
OLED_MENU.elf:     file format elf32-littlearm

Sections:
Idx Name          Size      VMA       LMA       File off  Algn
  0 .isr_vector   000001e4  08000000  08000000  00010000  2**0
                  CONTENTS, ALLOC, LOAD, READONLY, DATA
  1 .text         00007e70  080001f0  080001f0  000101f0  2**4
                  CONTENTS, ALLOC, LOAD, READONLY, CODE
  2 .rodata       00000a88  08008060  08008060  00018060  2**3
                  CONTENTS, ALLOC, LOAD, READONLY, DATA
  3 .ARM          00000008  08008ae8  08008ae8  00018ae8  2**2
                  CONTENTS, ALLOC, LOAD, READONLY, DATA
  4 .init_array   00000004  08008af0  08008af0  00018af0  2**2
                  CONTENTS, ALLOC, LOAD, DATA
  5 .fini_array   00000004  08008af4  08008af4  00018af4  2**2
                  CONTENTS, ALLOC, LOAD, DATA
  6 .data         0000072c  20000000  08008af8  00020000  2**2
                  CONTENTS, ALLOC, LOAD, DATA
  7 .bss          00003f44  2000072c  08009224  0002072c  2**2
                  ALLOC
  8 ._user_heap_stack 00000600  20004670  08009224  00024670  2**0
                  ALLOC
  9 .ARM.attributes 00000029  00000000  00000000  0002072c  2**0
                  CONTENTS, READONLY
 10 .debug_info   0002b721  00000000  00000000  00020755  2**0
                  CONTENTS, READONLY, DEBUGGING
 11 .debug_abbrev 00005dbe  00000000  00000000  0004be76  2**0
                  CONTENTS, READONLY, DEBUGGING
 12 .debug_loc    0000ea76  00000000  00000000  00051c34  2**0
                  CONTENTS, READONLY, DEBUGGING
 13 .debug_aranges 00001138  00000000  00000000  000606b0  2**3
                  CONTENTS, READONLY, DEBUGGING
 14 .debug_ranges 00001750  00000000  00000000  000617e8  2**3
                  CONTENTS, READONLY, DEBUGGING
 15 .debug_line   0000b4cf  00000000  00000000  00062f38  2**0
                  CONTENTS, READONLY, DEBUGGING
 16 .debug_str    0000629d  00000000  00000000  0006e407  2**0
                  CONTENTS, READONLY, DEBUGGING
 17 .comment      0000007c  00000000  00000000  000746a4  2**0
                  CONTENTS, READONLY
 18 .debug_frame  00003c4c  00000000  00000000  00074720  2**2
                  CONTENTS, READONLY, DEBUGGING

Disassembly of section .text:

080001f0 <__do_global_dtors_aux>:
 80001f0:	b510      	push	{r4, lr}
 80001f2:	4c05      	ldr	r4, [pc, #20]	; (8000208 <__do_global_dtors_aux+0x18>)
 80001f4:	7823      	ldrb	r3, [r4, #0]
 80001f6:	b933      	cbnz	r3, 8000206 <__do_global_dtors_aux+0x16>
 80001f8:	4b04      	ldr	r3, [pc, #16]	; (800020c <__do_global_dtors_aux+0x1c>)
 80001fa:	b113      	cbz	r3, 8000202 <__do_global_dtors_aux+0x12>
 80001fc:	4804      	ldr	r0, [pc, #16]	; (8000210 <__do_global_dtors_aux+0x20>)
 80001fe:	f3af 8000 	nop.w
 8000202:	2301      	movs	r3, #1
 8000204:	7023      	strb	r3, [r4, #0]
 8000206:	bd10      	pop	{r4, pc}
 8000208:	2000072c 	.word	0x2000072c
 800020c:	00000000 	.word	0x00000000
 8000210:	08008048 	.word	0x08008048

08000214 <frame_dummy>:
 8000214:	b508      	push	{r3, lr}
 8000216:	4b03      	ldr	r3, [pc, #12]	; (8000224 <frame_dummy+0x10>)
 8000218:	b11b      	cbz	r3, 8000222 <frame_dummy+0xe>
 800021a:	4903      	ldr	r1, [pc, #12]	; (8000228 <frame_dummy+0x14>)
 800021c:	4803      	ldr	r0, [pc, #12]	; (800022c <frame_dummy+0x18>)
 800021e:	f3af 8000 	nop.w
 8000222:	bd08      	pop	{r3, pc}
 8000224:	00000000 	.word	0x00000000
 8000228:	20000730 	.word	0x20000730
 800022c:	08008048 	.word	0x08008048

08000230 <strlen>:
 8000230:	4603      	mov	r3, r0
 8000232:	f813 2b01 	ldrb.w	r2, [r3], #1
 8000236:	2a00      	cmp	r2, #0
 8000238:	d1fb      	bne.n	8000232 <strlen+0x2>
 800023a:	1a18      	subs	r0, r3, r0
 800023c:	3801      	subs	r0, #1
 800023e:	4770      	bx	lr

08000240 <__aeabi_drsub>:
 8000240:	f081 4100 	eor.w	r1, r1, #2147483648	; 0x80000000
 8000244:	e002      	b.n	800024c <__adddf3>
 8000246:	bf00      	nop

08000248 <__aeabi_dsub>:
 8000248:	f083 4300 	eor.w	r3, r3, #2147483648	; 0x80000000

0800024c <__adddf3>:
 800024c:	b530      	push	{r4, r5, lr}
 800024e:	ea4f 0441 	mov.w	r4, r1, lsl #1
 8000252:	ea4f 0543 	mov.w	r5, r3, lsl #1
 8000256:	ea94 0f05 	teq	r4, r5
 800025a:	bf08      	it	eq
 800025c:	ea90 0f02 	teqeq	r0, r2
 8000260:	bf1f      	itttt	ne
 8000262:	ea54 0c00 	orrsne.w	ip, r4, r0
 8000266:	ea55 0c02 	orrsne.w	ip, r5, r2
 800026a:	ea7f 5c64 	mvnsne.w	ip, r4, asr #21
 800026e:	ea7f 5c65 	mvnsne.w	ip, r5, asr #21
 8000272:	f000 80e2 	beq.w	800043a <__adddf3+0x1ee>
 8000276:	ea4f 5454 	mov.w	r4, r4, lsr #21
 800027a:	ebd4 5555 	rsbs	r5, r4, r5, lsr #21
 800027e:	bfb8      	it	lt
 8000280:	426d      	neglt	r5, r5
 8000282:	dd0c      	ble.n	800029e <__adddf3+0x52>
 8000284:	442c      	add	r4, r5
 8000286:	ea80 0202 	eor.w	r2, r0, r2
 800028a:	ea81 0303 	eor.w	r3, r1, r3
 800028e:	ea82 0000 	eor.w	r0, r2, r0
 8000292:	ea83 0101 	eor.w	r1, r3, r1
 8000296:	ea80 0202 	eor.w	r2, r0, r2
 800029a:	ea81 0303 	eor.w	r3, r1, r3
 800029e:	2d36      	cmp	r5, #54	; 0x36
 80002a0:	bf88      	it	hi
 80002a2:	bd30      	pophi	{r4, r5, pc}
 80002a4:	f011 4f00 	tst.w	r1, #2147483648	; 0x80000000
 80002a8:	ea4f 3101 	mov.w	r1, r1, lsl #12
 80002ac:	f44f 1c80 	mov.w	ip, #1048576	; 0x100000
 80002b0:	ea4c 3111 	orr.w	r1, ip, r1, lsr #12
 80002b4:	d002      	beq.n	80002bc <__adddf3+0x70>
 80002b6:	4240      	negs	r0, r0
 80002b8:	eb61 0141 	sbc.w	r1, r1, r1, lsl #1
 80002bc:	f013 4f00 	tst.w	r3, #2147483648	; 0x80000000
 80002c0:	ea4f 3303 	mov.w	r3, r3, lsl #12
 80002c4:	ea4c 3313 	orr.w	r3, ip, r3, lsr #12
 80002c8:	d002      	beq.n	80002d0 <__adddf3+0x84>
 80002ca:	4252      	negs	r2, r2
 80002cc:	eb63 0343 	sbc.w	r3, r3, r3, lsl #1
 80002d0:	ea94 0f05 	teq	r4, r5
 80002d4:	f000 80a7 	beq.w	8000426 <__adddf3+0x1da>
 80002d8:	f1a4 0401 	sub.w	r4, r4, #1
 80002dc:	f1d5 0e20 	rsbs	lr, r5, #32
 80002e0:	db0d      	blt.n	80002fe <__adddf3+0xb2>
 80002e2:	fa02 fc0e 	lsl.w	ip, r2, lr
 80002e6:	fa22 f205 	lsr.w	r2, r2, r5
 80002ea:	1880      	adds	r0, r0, r2
 80002ec:	f141 0100 	adc.w	r1, r1, #0
 80002f0:	fa03 f20e 	lsl.w	r2, r3, lr
 80002f4:	1880      	adds	r0, r0, r2
 80002f6:	fa43 f305 	asr.w	r3, r3, r5
 80002fa:	4159      	adcs	r1, r3
 80002fc:	e00e      	b.n	800031c <__adddf3+0xd0>
 80002fe:	f1a5 0520 	sub.w	r5, r5, #32
 8000302:	f10e 0e20 	add.w	lr, lr, #32
 8000306:	2a01      	cmp	r2, #1
 8000308:	fa03 fc0e 	lsl.w	ip, r3, lr
 800030c:	bf28      	it	cs
 800030e:	f04c 0c02 	orrcs.w	ip, ip, #2
 8000312:	fa43 f305 	asr.w	r3, r3, r5
 8000316:	18c0      	adds	r0, r0, r3
 8000318:	eb51 71e3 	adcs.w	r1, r1, r3, asr #31
 800031c:	f001 4500 	and.w	r5, r1, #2147483648	; 0x80000000
 8000320:	d507      	bpl.n	8000332 <__adddf3+0xe6>
 8000322:	f04f 0e00 	mov.w	lr, #0
 8000326:	f1dc 0c00 	rsbs	ip, ip, #0
 800032a:	eb7e 0000 	sbcs.w	r0, lr, r0
 800032e:	eb6e 0101 	sbc.w	r1, lr, r1
 8000332:	f5b1 1f80 	cmp.w	r1, #1048576	; 0x100000
 8000336:	d31b      	bcc.n	8000370 <__adddf3+0x124>
 8000338:	f5b1 1f00 	cmp.w	r1, #2097152	; 0x200000
 800033c:	d30c      	bcc.n	8000358 <__adddf3+0x10c>
 800033e:	0849      	lsrs	r1, r1, #1
 8000340:	ea5f 0030 	movs.w	r0, r0, rrx
 8000344:	ea4f 0c3c 	mov.w	ip, ip, rrx
 8000348:	f104 0401 	add.w	r4, r4, #1
 800034c:	ea4f 5244 	mov.w	r2, r4, lsl #21
 8000350:	f512 0f80 	cmn.w	r2, #4194304	; 0x400000
 8000354:	f080 809a 	bcs.w	800048c <__adddf3+0x240>
 8000358:	f1bc 4f00 	cmp.w	ip, #2147483648	; 0x80000000
 800035c:	bf08      	it	eq
 800035e:	ea5f 0c50 	movseq.w	ip, r0, lsr #1
 8000362:	f150 0000 	adcs.w	r0, r0, #0
 8000366:	eb41 5104 	adc.w	r1, r1, r4, lsl #20
 800036a:	ea41 0105 	orr.w	r1, r1, r5
 800036e:	bd30      	pop	{r4, r5, pc}
 8000370:	ea5f 0c4c 	movs.w	ip, ip, lsl #1
 8000374:	4140      	adcs	r0, r0
 8000376:	eb41 0101 	adc.w	r1, r1, r1
 800037a:	f411 1f80 	tst.w	r1, #1048576	; 0x100000
 800037e:	f1a4 0401 	sub.w	r4, r4, #1
 8000382:	d1e9      	bne.n	8000358 <__adddf3+0x10c>
 8000384:	f091 0f00 	teq	r1, #0
 8000388:	bf04      	itt	eq
 800038a:	4601      	moveq	r1, r0
 800038c:	2000      	moveq	r0, #0
 800038e:	fab1 f381 	clz	r3, r1
 8000392:	bf08      	it	eq
 8000394:	3320      	addeq	r3, #32
 8000396:	f1a3 030b 	sub.w	r3, r3, #11
 800039a:	f1b3 0220 	subs.w	r2, r3, #32
 800039e:	da0c      	bge.n	80003ba <__adddf3+0x16e>
 80003a0:	320c      	adds	r2, #12
 80003a2:	dd08      	ble.n	80003b6 <__adddf3+0x16a>
 80003a4:	f102 0c14 	add.w	ip, r2, #20
 80003a8:	f1c2 020c 	rsb	r2, r2, #12
 80003ac:	fa01 f00c 	lsl.w	r0, r1, ip
 80003b0:	fa21 f102 	lsr.w	r1, r1, r2
 80003b4:	e00c      	b.n	80003d0 <__adddf3+0x184>
 80003b6:	f102 0214 	add.w	r2, r2, #20
 80003ba:	bfd8      	it	le
 80003bc:	f1c2 0c20 	rsble	ip, r2, #32
 80003c0:	fa01 f102 	lsl.w	r1, r1, r2
 80003c4:	fa20 fc0c 	lsr.w	ip, r0, ip
 80003c8:	bfdc      	itt	le
 80003ca:	ea41 010c 	orrle.w	r1, r1, ip
 80003ce:	4090      	lslle	r0, r2
 80003d0:	1ae4      	subs	r4, r4, r3
 80003d2:	bfa2      	ittt	ge
 80003d4:	eb01 5104 	addge.w	r1, r1, r4, lsl #20
 80003d8:	4329      	orrge	r1, r5
 80003da:	bd30      	popge	{r4, r5, pc}
 80003dc:	ea6f 0404 	mvn.w	r4, r4
 80003e0:	3c1f      	subs	r4, #31
 80003e2:	da1c      	bge.n	800041e <__adddf3+0x1d2>
 80003e4:	340c      	adds	r4, #12
 80003e6:	dc0e      	bgt.n	8000406 <__adddf3+0x1ba>
 80003e8:	f104 0414 	add.w	r4, r4, #20
 80003ec:	f1c4 0220 	rsb	r2, r4, #32
 80003f0:	fa20 f004 	lsr.w	r0, r0, r4
 80003f4:	fa01 f302 	lsl.w	r3, r1, r2
 80003f8:	ea40 0003 	orr.w	r0, r0, r3
 80003fc:	fa21 f304 	lsr.w	r3, r1, r4
 8000400:	ea45 0103 	orr.w	r1, r5, r3
 8000404:	bd30      	pop	{r4, r5, pc}
 8000406:	f1c4 040c 	rsb	r4, r4, #12
 800040a:	f1c4 0220 	rsb	r2, r4, #32
 800040e:	fa20 f002 	lsr.w	r0, r0, r2
 8000412:	fa01 f304 	lsl.w	r3, r1, r4
 8000416:	ea40 0003 	orr.w	r0, r0, r3
 800041a:	4629      	mov	r1, r5
 800041c:	bd30      	pop	{r4, r5, pc}
 800041e:	fa21 f004 	lsr.w	r0, r1, r4
 8000422:	4629      	mov	r1, r5
 8000424:	bd30      	pop	{r4, r5, pc}
 8000426:	f094 0f00 	teq	r4, #0
 800042a:	f483 1380 	eor.w	r3, r3, #1048576	; 0x100000
 800042e:	bf06      	itte	eq
 8000430:	f481 1180 	eoreq.w	r1, r1, #1048576	; 0x100000
 8000434:	3401      	addeq	r4, #1
 8000436:	3d01      	subne	r5, #1
 8000438:	e74e      	b.n	80002d8 <__adddf3+0x8c>
 800043a:	ea7f 5c64 	mvns.w	ip, r4, asr #21
 800043e:	bf18      	it	ne
 8000440:	ea7f 5c65 	mvnsne.w	ip, r5, asr #21
 8000444:	d029      	beq.n	800049a <__adddf3+0x24e>
 8000446:	ea94 0f05 	teq	r4, r5
 800044a:	bf08      	it	eq
 800044c:	ea90 0f02 	teqeq	r0, r2
 8000450:	d005      	beq.n	800045e <__adddf3+0x212>
 8000452:	ea54 0c00 	orrs.w	ip, r4, r0
 8000456:	bf04      	itt	eq
 8000458:	4619      	moveq	r1, r3
 800045a:	4610      	moveq	r0, r2
 800045c:	bd30      	pop	{r4, r5, pc}
 800045e:	ea91 0f03 	teq	r1, r3
 8000462:	bf1e      	ittt	ne
 8000464:	2100      	movne	r1, #0
 8000466:	2000      	movne	r0, #0
 8000468:	bd30      	popne	{r4, r5, pc}
 800046a:	ea5f 5c54 	movs.w	ip, r4, lsr #21
 800046e:	d105      	bne.n	800047c <__adddf3+0x230>
 8000470:	0040      	lsls	r0, r0, #1
 8000472:	4149      	adcs	r1, r1
 8000474:	bf28      	it	cs
 8000476:	f041 4100 	orrcs.w	r1, r1, #2147483648	; 0x80000000
 800047a:	bd30      	pop	{r4, r5, pc}
 800047c:	f514 0480 	adds.w	r4, r4, #4194304	; 0x400000
 8000480:	bf3c      	itt	cc
 8000482:	f501 1180 	addcc.w	r1, r1, #1048576	; 0x100000
 8000486:	bd30      	popcc	{r4, r5, pc}
 8000488:	f001 4500 	and.w	r5, r1, #2147483648	; 0x80000000
 800048c:	f045 41fe 	orr.w	r1, r5, #2130706432	; 0x7f000000
 8000490:	f441 0170 	orr.w	r1, r1, #15728640	; 0xf00000
 8000494:	f04f 0000 	mov.w	r0, #0
 8000498:	bd30      	pop	{r4, r5, pc}
 800049a:	ea7f 5c64 	mvns.w	ip, r4, asr #21
 800049e:	bf1a      	itte	ne
 80004a0:	4619      	movne	r1, r3
 80004a2:	4610      	movne	r0, r2
 80004a4:	ea7f 5c65 	mvnseq.w	ip, r5, asr #21
 80004a8:	bf1c      	itt	ne
 80004aa:	460b      	movne	r3, r1
 80004ac:	4602      	movne	r2, r0
 80004ae:	ea50 3401 	orrs.w	r4, r0, r1, lsl #12
 80004b2:	bf06      	itte	eq
 80004b4:	ea52 3503 	orrseq.w	r5, r2, r3, lsl #12
 80004b8:	ea91 0f03 	teqeq	r1, r3
 80004bc:	f441 2100 	orrne.w	r1, r1, #524288	; 0x80000
 80004c0:	bd30      	pop	{r4, r5, pc}
 80004c2:	bf00      	nop

080004c4 <__aeabi_ui2d>:
 80004c4:	f090 0f00 	teq	r0, #0
 80004c8:	bf04      	itt	eq
 80004ca:	2100      	moveq	r1, #0
 80004cc:	4770      	bxeq	lr
 80004ce:	b530      	push	{r4, r5, lr}
 80004d0:	f44f 6480 	mov.w	r4, #1024	; 0x400
 80004d4:	f104 0432 	add.w	r4, r4, #50	; 0x32
 80004d8:	f04f 0500 	mov.w	r5, #0
 80004dc:	f04f 0100 	mov.w	r1, #0
 80004e0:	e750      	b.n	8000384 <__adddf3+0x138>
 80004e2:	bf00      	nop

080004e4 <__aeabi_i2d>:
 80004e4:	f090 0f00 	teq	r0, #0
 80004e8:	bf04      	itt	eq
 80004ea:	2100      	moveq	r1, #0
 80004ec:	4770      	bxeq	lr
 80004ee:	b530      	push	{r4, r5, lr}
 80004f0:	f44f 6480 	mov.w	r4, #1024	; 0x400
 80004f4:	f104 0432 	add.w	r4, r4, #50	; 0x32
 80004f8:	f010 4500 	ands.w	r5, r0, #2147483648	; 0x80000000
 80004fc:	bf48      	it	mi
 80004fe:	4240      	negmi	r0, r0
 8000500:	f04f 0100 	mov.w	r1, #0
 8000504:	e73e      	b.n	8000384 <__adddf3+0x138>
 8000506:	bf00      	nop

08000508 <__aeabi_f2d>:
 8000508:	0042      	lsls	r2, r0, #1
 800050a:	ea4f 01e2 	mov.w	r1, r2, asr #3
 800050e:	ea4f 0131 	mov.w	r1, r1, rrx
 8000512:	ea4f 7002 	mov.w	r0, r2, lsl #28
 8000516:	bf1f      	itttt	ne
 8000518:	f012 437f 	andsne.w	r3, r2, #4278190080	; 0xff000000
 800051c:	f093 4f7f 	teqne	r3, #4278190080	; 0xff000000
 8000520:	f081 5160 	eorne.w	r1, r1, #939524096	; 0x38000000
 8000524:	4770      	bxne	lr
 8000526:	f092 0f00 	teq	r2, #0
 800052a:	bf14      	ite	ne
 800052c:	f093 4f7f 	teqne	r3, #4278190080	; 0xff000000
 8000530:	4770      	bxeq	lr
 8000532:	b530      	push	{r4, r5, lr}
 8000534:	f44f 7460 	mov.w	r4, #896	; 0x380
 8000538:	f001 4500 	and.w	r5, r1, #2147483648	; 0x80000000
 800053c:	f021 4100 	bic.w	r1, r1, #2147483648	; 0x80000000
 8000540:	e720      	b.n	8000384 <__adddf3+0x138>
 8000542:	bf00      	nop

08000544 <__aeabi_ul2d>:
 8000544:	ea50 0201 	orrs.w	r2, r0, r1
 8000548:	bf08      	it	eq
 800054a:	4770      	bxeq	lr
 800054c:	b530      	push	{r4, r5, lr}
 800054e:	f04f 0500 	mov.w	r5, #0
 8000552:	e00a      	b.n	800056a <__aeabi_l2d+0x16>

08000554 <__aeabi_l2d>:
 8000554:	ea50 0201 	orrs.w	r2, r0, r1
 8000558:	bf08      	it	eq
 800055a:	4770      	bxeq	lr
 800055c:	b530      	push	{r4, r5, lr}
 800055e:	f011 4500 	ands.w	r5, r1, #2147483648	; 0x80000000
 8000562:	d502      	bpl.n	800056a <__aeabi_l2d+0x16>
 8000564:	4240      	negs	r0, r0
 8000566:	eb61 0141 	sbc.w	r1, r1, r1, lsl #1
 800056a:	f44f 6480 	mov.w	r4, #1024	; 0x400
 800056e:	f104 0432 	add.w	r4, r4, #50	; 0x32
 8000572:	ea5f 5c91 	movs.w	ip, r1, lsr #22
 8000576:	f43f aedc 	beq.w	8000332 <__adddf3+0xe6>
 800057a:	f04f 0203 	mov.w	r2, #3
 800057e:	ea5f 0cdc 	movs.w	ip, ip, lsr #3
 8000582:	bf18      	it	ne
 8000584:	3203      	addne	r2, #3
 8000586:	ea5f 0cdc 	movs.w	ip, ip, lsr #3
 800058a:	bf18      	it	ne
 800058c:	3203      	addne	r2, #3
 800058e:	eb02 02dc 	add.w	r2, r2, ip, lsr #3
 8000592:	f1c2 0320 	rsb	r3, r2, #32
 8000596:	fa00 fc03 	lsl.w	ip, r0, r3
 800059a:	fa20 f002 	lsr.w	r0, r0, r2
 800059e:	fa01 fe03 	lsl.w	lr, r1, r3
 80005a2:	ea40 000e 	orr.w	r0, r0, lr
 80005a6:	fa21 f102 	lsr.w	r1, r1, r2
 80005aa:	4414      	add	r4, r2
 80005ac:	e6c1      	b.n	8000332 <__adddf3+0xe6>
 80005ae:	bf00      	nop

080005b0 <__aeabi_dmul>:
 80005b0:	b570      	push	{r4, r5, r6, lr}
 80005b2:	f04f 0cff 	mov.w	ip, #255	; 0xff
 80005b6:	f44c 6ce0 	orr.w	ip, ip, #1792	; 0x700
 80005ba:	ea1c 5411 	ands.w	r4, ip, r1, lsr #20
 80005be:	bf1d      	ittte	ne
 80005c0:	ea1c 5513 	andsne.w	r5, ip, r3, lsr #20
 80005c4:	ea94 0f0c 	teqne	r4, ip
 80005c8:	ea95 0f0c 	teqne	r5, ip
 80005cc:	f000 f8de 	bleq	800078c <__aeabi_dmul+0x1dc>
 80005d0:	442c      	add	r4, r5
 80005d2:	ea81 0603 	eor.w	r6, r1, r3
 80005d6:	ea21 514c 	bic.w	r1, r1, ip, lsl #21
 80005da:	ea23 534c 	bic.w	r3, r3, ip, lsl #21
 80005de:	ea50 3501 	orrs.w	r5, r0, r1, lsl #12
 80005e2:	bf18      	it	ne
 80005e4:	ea52 3503 	orrsne.w	r5, r2, r3, lsl #12
 80005e8:	f441 1180 	orr.w	r1, r1, #1048576	; 0x100000
 80005ec:	f443 1380 	orr.w	r3, r3, #1048576	; 0x100000
 80005f0:	d038      	beq.n	8000664 <__aeabi_dmul+0xb4>
 80005f2:	fba0 ce02 	umull	ip, lr, r0, r2
 80005f6:	f04f 0500 	mov.w	r5, #0
 80005fa:	fbe1 e502 	umlal	lr, r5, r1, r2
 80005fe:	f006 4200 	and.w	r2, r6, #2147483648	; 0x80000000
 8000602:	fbe0 e503 	umlal	lr, r5, r0, r3
 8000606:	f04f 0600 	mov.w	r6, #0
 800060a:	fbe1 5603 	umlal	r5, r6, r1, r3
 800060e:	f09c 0f00 	teq	ip, #0
 8000612:	bf18      	it	ne
 8000614:	f04e 0e01 	orrne.w	lr, lr, #1
 8000618:	f1a4 04ff 	sub.w	r4, r4, #255	; 0xff
 800061c:	f5b6 7f00 	cmp.w	r6, #512	; 0x200
 8000620:	f564 7440 	sbc.w	r4, r4, #768	; 0x300
 8000624:	d204      	bcs.n	8000630 <__aeabi_dmul+0x80>
 8000626:	ea5f 0e4e 	movs.w	lr, lr, lsl #1
 800062a:	416d      	adcs	r5, r5
 800062c:	eb46 0606 	adc.w	r6, r6, r6
 8000630:	ea42 21c6 	orr.w	r1, r2, r6, lsl #11
 8000634:	ea41 5155 	orr.w	r1, r1, r5, lsr #21
 8000638:	ea4f 20c5 	mov.w	r0, r5, lsl #11
 800063c:	ea40 505e 	orr.w	r0, r0, lr, lsr #21
 8000640:	ea4f 2ece 	mov.w	lr, lr, lsl #11
 8000644:	f1b4 0cfd 	subs.w	ip, r4, #253	; 0xfd
 8000648:	bf88      	it	hi
 800064a:	f5bc 6fe0 	cmphi.w	ip, #1792	; 0x700
 800064e:	d81e      	bhi.n	800068e <__aeabi_dmul+0xde>
 8000650:	f1be 4f00 	cmp.w	lr, #2147483648	; 0x80000000
 8000654:	bf08      	it	eq
 8000656:	ea5f 0e50 	movseq.w	lr, r0, lsr #1
 800065a:	f150 0000 	adcs.w	r0, r0, #0
 800065e:	eb41 5104 	adc.w	r1, r1, r4, lsl #20
 8000662:	bd70      	pop	{r4, r5, r6, pc}
 8000664:	f006 4600 	and.w	r6, r6, #2147483648	; 0x80000000
 8000668:	ea46 0101 	orr.w	r1, r6, r1
 800066c:	ea40 0002 	orr.w	r0, r0, r2
 8000670:	ea81 0103 	eor.w	r1, r1, r3
 8000674:	ebb4 045c 	subs.w	r4, r4, ip, lsr #1
 8000678:	bfc2      	ittt	gt
 800067a:	ebd4 050c 	rsbsgt	r5, r4, ip
 800067e:	ea41 5104 	orrgt.w	r1, r1, r4, lsl #20
 8000682:	bd70      	popgt	{r4, r5, r6, pc}
 8000684:	f441 1180 	orr.w	r1, r1, #1048576	; 0x100000
 8000688:	f04f 0e00 	mov.w	lr, #0
 800068c:	3c01      	subs	r4, #1
 800068e:	f300 80ab 	bgt.w	80007e8 <__aeabi_dmul+0x238>
 8000692:	f114 0f36 	cmn.w	r4, #54	; 0x36
 8000696:	bfde      	ittt	le
 8000698:	2000      	movle	r0, #0
 800069a:	f001 4100 	andle.w	r1, r1, #2147483648	; 0x80000000
 800069e:	bd70      	pople	{r4, r5, r6, pc}
 80006a0:	f1c4 0400 	rsb	r4, r4, #0
 80006a4:	3c20      	subs	r4, #32
 80006a6:	da35      	bge.n	8000714 <__aeabi_dmul+0x164>
 80006a8:	340c      	adds	r4, #12
 80006aa:	dc1b      	bgt.n	80006e4 <__aeabi_dmul+0x134>
 80006ac:	f104 0414 	add.w	r4, r4, #20
 80006b0:	f1c4 0520 	rsb	r5, r4, #32
 80006b4:	fa00 f305 	lsl.w	r3, r0, r5
 80006b8:	fa20 f004 	lsr.w	r0, r0, r4
 80006bc:	fa01 f205 	lsl.w	r2, r1, r5
 80006c0:	ea40 0002 	orr.w	r0, r0, r2
 80006c4:	f001 4200 	and.w	r2, r1, #2147483648	; 0x80000000
 80006c8:	f021 4100 	bic.w	r1, r1, #2147483648	; 0x80000000
 80006cc:	eb10 70d3 	adds.w	r0, r0, r3, lsr #31
 80006d0:	fa21 f604 	lsr.w	r6, r1, r4
 80006d4:	eb42 0106 	adc.w	r1, r2, r6
 80006d8:	ea5e 0e43 	orrs.w	lr, lr, r3, lsl #1
 80006dc:	bf08      	it	eq
 80006de:	ea20 70d3 	biceq.w	r0, r0, r3, lsr #31
 80006e2:	bd70      	pop	{r4, r5, r6, pc}
 80006e4:	f1c4 040c 	rsb	r4, r4, #12
 80006e8:	f1c4 0520 	rsb	r5, r4, #32
 80006ec:	fa00 f304 	lsl.w	r3, r0, r4
 80006f0:	fa20 f005 	lsr.w	r0, r0, r5
 80006f4:	fa01 f204 	lsl.w	r2, r1, r4
 80006f8:	ea40 0002 	orr.w	r0, r0, r2
 80006fc:	f001 4100 	and.w	r1, r1, #2147483648	; 0x80000000
 8000700:	eb10 70d3 	adds.w	r0, r0, r3, lsr #31
 8000704:	f141 0100 	adc.w	r1, r1, #0
 8000708:	ea5e 0e43 	orrs.w	lr, lr, r3, lsl #1
 800070c:	bf08      	it	eq
 800070e:	ea20 70d3 	biceq.w	r0, r0, r3, lsr #31
 8000712:	bd70      	pop	{r4, r5, r6, pc}
 8000714:	f1c4 0520 	rsb	r5, r4, #32
 8000718:	fa00 f205 	lsl.w	r2, r0, r5
 800071c:	ea4e 0e02 	orr.w	lr, lr, r2
 8000720:	fa20 f304 	lsr.w	r3, r0, r4
 8000724:	fa01 f205 	lsl.w	r2, r1, r5
 8000728:	ea43 0302 	orr.w	r3, r3, r2
 800072c:	fa21 f004 	lsr.w	r0, r1, r4
 8000730:	f001 4100 	and.w	r1, r1, #2147483648	; 0x80000000
 8000734:	fa21 f204 	lsr.w	r2, r1, r4
 8000738:	ea20 0002 	bic.w	r0, r0, r2
 800073c:	eb00 70d3 	add.w	r0, r0, r3, lsr #31
 8000740:	ea5e 0e43 	orrs.w	lr, lr, r3, lsl #1
 8000744:	bf08      	it	eq
 8000746:	ea20 70d3 	biceq.w	r0, r0, r3, lsr #31
 800074a:	bd70      	pop	{r4, r5, r6, pc}
 800074c:	f094 0f00 	teq	r4, #0
 8000750:	d10f      	bne.n	8000772 <__aeabi_dmul+0x1c2>
 8000752:	f001 4600 	and.w	r6, r1, #2147483648	; 0x80000000
 8000756:	0040      	lsls	r0, r0, #1
 8000758:	eb41 0101 	adc.w	r1, r1, r1
 800075c:	f411 1f80 	tst.w	r1, #1048576	; 0x100000
 8000760:	bf08      	it	eq
 8000762:	3c01      	subeq	r4, #1
 8000764:	d0f7      	beq.n	8000756 <__aeabi_dmul+0x1a6>
 8000766:	ea41 0106 	orr.w	r1, r1, r6
 800076a:	f095 0f00 	teq	r5, #0
 800076e:	bf18      	it	ne
 8000770:	4770      	bxne	lr
 8000772:	f003 4600 	and.w	r6, r3, #2147483648	; 0x80000000
 8000776:	0052      	lsls	r2, r2, #1
 8000778:	eb43 0303 	adc.w	r3, r3, r3
 800077c:	f413 1f80 	tst.w	r3, #1048576	; 0x100000
 8000780:	bf08      	it	eq
 8000782:	3d01      	subeq	r5, #1
 8000784:	d0f7      	beq.n	8000776 <__aeabi_dmul+0x1c6>
 8000786:	ea43 0306 	orr.w	r3, r3, r6
 800078a:	4770      	bx	lr
 800078c:	ea94 0f0c 	teq	r4, ip
 8000790:	ea0c 5513 	and.w	r5, ip, r3, lsr #20
 8000794:	bf18      	it	ne
 8000796:	ea95 0f0c 	teqne	r5, ip
 800079a:	d00c      	beq.n	80007b6 <__aeabi_dmul+0x206>
 800079c:	ea50 0641 	orrs.w	r6, r0, r1, lsl #1
 80007a0:	bf18      	it	ne
 80007a2:	ea52 0643 	orrsne.w	r6, r2, r3, lsl #1
 80007a6:	d1d1      	bne.n	800074c <__aeabi_dmul+0x19c>
 80007a8:	ea81 0103 	eor.w	r1, r1, r3
 80007ac:	f001 4100 	and.w	r1, r1, #2147483648	; 0x80000000
 80007b0:	f04f 0000 	mov.w	r0, #0
 80007b4:	bd70      	pop	{r4, r5, r6, pc}
 80007b6:	ea50 0641 	orrs.w	r6, r0, r1, lsl #1
 80007ba:	bf06      	itte	eq
 80007bc:	4610      	moveq	r0, r2
 80007be:	4619      	moveq	r1, r3
 80007c0:	ea52 0643 	orrsne.w	r6, r2, r3, lsl #1
 80007c4:	d019      	beq.n	80007fa <__aeabi_dmul+0x24a>
 80007c6:	ea94 0f0c 	teq	r4, ip
 80007ca:	d102      	bne.n	80007d2 <__aeabi_dmul+0x222>
 80007cc:	ea50 3601 	orrs.w	r6, r0, r1, lsl #12
 80007d0:	d113      	bne.n	80007fa <__aeabi_dmul+0x24a>
 80007d2:	ea95 0f0c 	teq	r5, ip
 80007d6:	d105      	bne.n	80007e4 <__aeabi_dmul+0x234>
 80007d8:	ea52 3603 	orrs.w	r6, r2, r3, lsl #12
 80007dc:	bf1c      	itt	ne
 80007de:	4610      	movne	r0, r2
 80007e0:	4619      	movne	r1, r3
 80007e2:	d10a      	bne.n	80007fa <__aeabi_dmul+0x24a>
 80007e4:	ea81 0103 	eor.w	r1, r1, r3
 80007e8:	f001 4100 	and.w	r1, r1, #2147483648	; 0x80000000
 80007ec:	f041 41fe 	orr.w	r1, r1, #2130706432	; 0x7f000000
 80007f0:	f441 0170 	orr.w	r1, r1, #15728640	; 0xf00000
 80007f4:	f04f 0000 	mov.w	r0, #0
 80007f8:	bd70      	pop	{r4, r5, r6, pc}
 80007fa:	f041 41fe 	orr.w	r1, r1, #2130706432	; 0x7f000000
 80007fe:	f441 0178 	orr.w	r1, r1, #16252928	; 0xf80000
 8000802:	bd70      	pop	{r4, r5, r6, pc}

08000804 <__aeabi_ddiv>:
 8000804:	b570      	push	{r4, r5, r6, lr}
 8000806:	f04f 0cff 	mov.w	ip, #255	; 0xff
 800080a:	f44c 6ce0 	orr.w	ip, ip, #1792	; 0x700
 800080e:	ea1c 5411 	ands.w	r4, ip, r1, lsr #20
 8000812:	bf1d      	ittte	ne
 8000814:	ea1c 5513 	andsne.w	r5, ip, r3, lsr #20
 8000818:	ea94 0f0c 	teqne	r4, ip
 800081c:	ea95 0f0c 	teqne	r5, ip
 8000820:	f000 f8a7 	bleq	8000972 <__aeabi_ddiv+0x16e>
 8000824:	eba4 0405 	sub.w	r4, r4, r5
 8000828:	ea81 0e03 	eor.w	lr, r1, r3
 800082c:	ea52 3503 	orrs.w	r5, r2, r3, lsl #12
 8000830:	ea4f 3101 	mov.w	r1, r1, lsl #12
 8000834:	f000 8088 	beq.w	8000948 <__aeabi_ddiv+0x144>
 8000838:	ea4f 3303 	mov.w	r3, r3, lsl #12
 800083c:	f04f 5580 	mov.w	r5, #268435456	; 0x10000000
 8000840:	ea45 1313 	orr.w	r3, r5, r3, lsr #4
 8000844:	ea43 6312 	orr.w	r3, r3, r2, lsr #24
 8000848:	ea4f 2202 	mov.w	r2, r2, lsl #8
 800084c:	ea45 1511 	orr.w	r5, r5, r1, lsr #4
 8000850:	ea45 6510 	orr.w	r5, r5, r0, lsr #24
 8000854:	ea4f 2600 	mov.w	r6, r0, lsl #8
 8000858:	f00e 4100 	and.w	r1, lr, #2147483648	; 0x80000000
 800085c:	429d      	cmp	r5, r3
 800085e:	bf08      	it	eq
 8000860:	4296      	cmpeq	r6, r2
 8000862:	f144 04fd 	adc.w	r4, r4, #253	; 0xfd
 8000866:	f504 7440 	add.w	r4, r4, #768	; 0x300
 800086a:	d202      	bcs.n	8000872 <__aeabi_ddiv+0x6e>
 800086c:	085b      	lsrs	r3, r3, #1
 800086e:	ea4f 0232 	mov.w	r2, r2, rrx
 8000872:	1ab6      	subs	r6, r6, r2
 8000874:	eb65 0503 	sbc.w	r5, r5, r3
 8000878:	085b      	lsrs	r3, r3, #1
 800087a:	ea4f 0232 	mov.w	r2, r2, rrx
 800087e:	f44f 1080 	mov.w	r0, #1048576	; 0x100000
 8000882:	f44f 2c00 	mov.w	ip, #524288	; 0x80000
 8000886:	ebb6 0e02 	subs.w	lr, r6, r2
 800088a:	eb75 0e03 	sbcs.w	lr, r5, r3
 800088e:	bf22      	ittt	cs
 8000890:	1ab6      	subcs	r6, r6, r2
 8000892:	4675      	movcs	r5, lr
 8000894:	ea40 000c 	orrcs.w	r0, r0, ip
 8000898:	085b      	lsrs	r3, r3, #1
 800089a:	ea4f 0232 	mov.w	r2, r2, rrx
 800089e:	ebb6 0e02 	subs.w	lr, r6, r2
 80008a2:	eb75 0e03 	sbcs.w	lr, r5, r3
 80008a6:	bf22      	ittt	cs
 80008a8:	1ab6      	subcs	r6, r6, r2
 80008aa:	4675      	movcs	r5, lr
 80008ac:	ea40 005c 	orrcs.w	r0, r0, ip, lsr #1
 80008b0:	085b      	lsrs	r3, r3, #1
 80008b2:	ea4f 0232 	mov.w	r2, r2, rrx
 80008b6:	ebb6 0e02 	subs.w	lr, r6, r2
 80008ba:	eb75 0e03 	sbcs.w	lr, r5, r3
 80008be:	bf22      	ittt	cs
 80008c0:	1ab6      	subcs	r6, r6, r2
 80008c2:	4675      	movcs	r5, lr
 80008c4:	ea40 009c 	orrcs.w	r0, r0, ip, lsr #2
 80008c8:	085b      	lsrs	r3, r3, #1
 80008ca:	ea4f 0232 	mov.w	r2, r2, rrx
 80008ce:	ebb6 0e02 	subs.w	lr, r6, r2
 80008d2:	eb75 0e03 	sbcs.w	lr, r5, r3
 80008d6:	bf22      	ittt	cs
 80008d8:	1ab6      	subcs	r6, r6, r2
 80008da:	4675      	movcs	r5, lr
 80008dc:	ea40 00dc 	orrcs.w	r0, r0, ip, lsr #3
 80008e0:	ea55 0e06 	orrs.w	lr, r5, r6
 80008e4:	d018      	beq.n	8000918 <__aeabi_ddiv+0x114>
 80008e6:	ea4f 1505 	mov.w	r5, r5, lsl #4
 80008ea:	ea45 7516 	orr.w	r5, r5, r6, lsr #28
 80008ee:	ea4f 1606 	mov.w	r6, r6, lsl #4
 80008f2:	ea4f 03c3 	mov.w	r3, r3, lsl #3
 80008f6:	ea43 7352 	orr.w	r3, r3, r2, lsr #29
 80008fa:	ea4f 02c2 	mov.w	r2, r2, lsl #3
 80008fe:	ea5f 1c1c 	movs.w	ip, ip, lsr #4
 8000902:	d1c0      	bne.n	8000886 <__aeabi_ddiv+0x82>
 8000904:	f411 1f80 	tst.w	r1, #1048576	; 0x100000
 8000908:	d10b      	bne.n	8000922 <__aeabi_ddiv+0x11e>
 800090a:	ea41 0100 	orr.w	r1, r1, r0
 800090e:	f04f 0000 	mov.w	r0, #0
 8000912:	f04f 4c00 	mov.w	ip, #2147483648	; 0x80000000
 8000916:	e7b6      	b.n	8000886 <__aeabi_ddiv+0x82>
 8000918:	f411 1f80 	tst.w	r1, #1048576	; 0x100000
 800091c:	bf04      	itt	eq
 800091e:	4301      	orreq	r1, r0
 8000920:	2000      	moveq	r0, #0
 8000922:	f1b4 0cfd 	subs.w	ip, r4, #253	; 0xfd
 8000926:	bf88      	it	hi
 8000928:	f5bc 6fe0 	cmphi.w	ip, #1792	; 0x700
 800092c:	f63f aeaf 	bhi.w	800068e <__aeabi_dmul+0xde>
 8000930:	ebb5 0c03 	subs.w	ip, r5, r3
 8000934:	bf04      	itt	eq
 8000936:	ebb6 0c02 	subseq.w	ip, r6, r2
 800093a:	ea5f 0c50 	movseq.w	ip, r0, lsr #1
 800093e:	f150 0000 	adcs.w	r0, r0, #0
 8000942:	eb41 5104 	adc.w	r1, r1, r4, lsl #20
 8000946:	bd70      	pop	{r4, r5, r6, pc}
 8000948:	f00e 4e00 	and.w	lr, lr, #2147483648	; 0x80000000
 800094c:	ea4e 3111 	orr.w	r1, lr, r1, lsr #12
 8000950:	eb14 045c 	adds.w	r4, r4, ip, lsr #1
 8000954:	bfc2      	ittt	gt
 8000956:	ebd4 050c 	rsbsgt	r5, r4, ip
 800095a:	ea41 5104 	orrgt.w	r1, r1, r4, lsl #20
 800095e:	bd70      	popgt	{r4, r5, r6, pc}
 8000960:	f441 1180 	orr.w	r1, r1, #1048576	; 0x100000
 8000964:	f04f 0e00 	mov.w	lr, #0
 8000968:	3c01      	subs	r4, #1
 800096a:	e690      	b.n	800068e <__aeabi_dmul+0xde>
 800096c:	ea45 0e06 	orr.w	lr, r5, r6
 8000970:	e68d      	b.n	800068e <__aeabi_dmul+0xde>
 8000972:	ea0c 5513 	and.w	r5, ip, r3, lsr #20
 8000976:	ea94 0f0c 	teq	r4, ip
 800097a:	bf08      	it	eq
 800097c:	ea95 0f0c 	teqeq	r5, ip
 8000980:	f43f af3b 	beq.w	80007fa <__aeabi_dmul+0x24a>
 8000984:	ea94 0f0c 	teq	r4, ip
 8000988:	d10a      	bne.n	80009a0 <__aeabi_ddiv+0x19c>
 800098a:	ea50 3401 	orrs.w	r4, r0, r1, lsl #12
 800098e:	f47f af34 	bne.w	80007fa <__aeabi_dmul+0x24a>
 8000992:	ea95 0f0c 	teq	r5, ip
 8000996:	f47f af25 	bne.w	80007e4 <__aeabi_dmul+0x234>
 800099a:	4610      	mov	r0, r2
 800099c:	4619      	mov	r1, r3
 800099e:	e72c      	b.n	80007fa <__aeabi_dmul+0x24a>
 80009a0:	ea95 0f0c 	teq	r5, ip
 80009a4:	d106      	bne.n	80009b4 <__aeabi_ddiv+0x1b0>
 80009a6:	ea52 3503 	orrs.w	r5, r2, r3, lsl #12
 80009aa:	f43f aefd 	beq.w	80007a8 <__aeabi_dmul+0x1f8>
 80009ae:	4610      	mov	r0, r2
 80009b0:	4619      	mov	r1, r3
 80009b2:	e722      	b.n	80007fa <__aeabi_dmul+0x24a>
 80009b4:	ea50 0641 	orrs.w	r6, r0, r1, lsl #1
 80009b8:	bf18      	it	ne
 80009ba:	ea52 0643 	orrsne.w	r6, r2, r3, lsl #1
 80009be:	f47f aec5 	bne.w	800074c <__aeabi_dmul+0x19c>
 80009c2:	ea50 0441 	orrs.w	r4, r0, r1, lsl #1
 80009c6:	f47f af0d 	bne.w	80007e4 <__aeabi_dmul+0x234>
 80009ca:	ea52 0543 	orrs.w	r5, r2, r3, lsl #1
 80009ce:	f47f aeeb 	bne.w	80007a8 <__aeabi_dmul+0x1f8>
 80009d2:	e712      	b.n	80007fa <__aeabi_dmul+0x24a>

080009d4 <__gedf2>:
 80009d4:	f04f 3cff 	mov.w	ip, #4294967295
 80009d8:	e006      	b.n	80009e8 <__cmpdf2+0x4>
 80009da:	bf00      	nop

080009dc <__ledf2>:
 80009dc:	f04f 0c01 	mov.w	ip, #1
 80009e0:	e002      	b.n	80009e8 <__cmpdf2+0x4>
 80009e2:	bf00      	nop

080009e4 <__cmpdf2>:
 80009e4:	f04f 0c01 	mov.w	ip, #1
 80009e8:	f84d cd04 	str.w	ip, [sp, #-4]!
 80009ec:	ea4f 0c41 	mov.w	ip, r1, lsl #1
 80009f0:	ea7f 5c6c 	mvns.w	ip, ip, asr #21
 80009f4:	ea4f 0c43 	mov.w	ip, r3, lsl #1
 80009f8:	bf18      	it	ne
 80009fa:	ea7f 5c6c 	mvnsne.w	ip, ip, asr #21
 80009fe:	d01b      	beq.n	8000a38 <__cmpdf2+0x54>
 8000a00:	b001      	add	sp, #4
 8000a02:	ea50 0c41 	orrs.w	ip, r0, r1, lsl #1
 8000a06:	bf0c      	ite	eq
 8000a08:	ea52 0c43 	orrseq.w	ip, r2, r3, lsl #1
 8000a0c:	ea91 0f03 	teqne	r1, r3
 8000a10:	bf02      	ittt	eq
 8000a12:	ea90 0f02 	teqeq	r0, r2
 8000a16:	2000      	moveq	r0, #0
 8000a18:	4770      	bxeq	lr
 8000a1a:	f110 0f00 	cmn.w	r0, #0
 8000a1e:	ea91 0f03 	teq	r1, r3
 8000a22:	bf58      	it	pl
 8000a24:	4299      	cmppl	r1, r3
 8000a26:	bf08      	it	eq
 8000a28:	4290      	cmpeq	r0, r2
 8000a2a:	bf2c      	ite	cs
 8000a2c:	17d8      	asrcs	r0, r3, #31
 8000a2e:	ea6f 70e3 	mvncc.w	r0, r3, asr #31
 8000a32:	f040 0001 	orr.w	r0, r0, #1
 8000a36:	4770      	bx	lr
 8000a38:	ea4f 0c41 	mov.w	ip, r1, lsl #1
 8000a3c:	ea7f 5c6c 	mvns.w	ip, ip, asr #21
 8000a40:	d102      	bne.n	8000a48 <__cmpdf2+0x64>
 8000a42:	ea50 3c01 	orrs.w	ip, r0, r1, lsl #12
 8000a46:	d107      	bne.n	8000a58 <__cmpdf2+0x74>
 8000a48:	ea4f 0c43 	mov.w	ip, r3, lsl #1
 8000a4c:	ea7f 5c6c 	mvns.w	ip, ip, asr #21
 8000a50:	d1d6      	bne.n	8000a00 <__cmpdf2+0x1c>
 8000a52:	ea52 3c03 	orrs.w	ip, r2, r3, lsl #12
 8000a56:	d0d3      	beq.n	8000a00 <__cmpdf2+0x1c>
 8000a58:	f85d 0b04 	ldr.w	r0, [sp], #4
 8000a5c:	4770      	bx	lr
 8000a5e:	bf00      	nop

08000a60 <__aeabi_cdrcmple>:
 8000a60:	4684      	mov	ip, r0
 8000a62:	4610      	mov	r0, r2
 8000a64:	4662      	mov	r2, ip
 8000a66:	468c      	mov	ip, r1
 8000a68:	4619      	mov	r1, r3
 8000a6a:	4663      	mov	r3, ip
 8000a6c:	e000      	b.n	8000a70 <__aeabi_cdcmpeq>
 8000a6e:	bf00      	nop

08000a70 <__aeabi_cdcmpeq>:
 8000a70:	b501      	push	{r0, lr}
 8000a72:	f7ff ffb7 	bl	80009e4 <__cmpdf2>
 8000a76:	2800      	cmp	r0, #0
 8000a78:	bf48      	it	mi
 8000a7a:	f110 0f00 	cmnmi.w	r0, #0
 8000a7e:	bd01      	pop	{r0, pc}

08000a80 <__aeabi_dcmpeq>:
 8000a80:	f84d ed08 	str.w	lr, [sp, #-8]!
 8000a84:	f7ff fff4 	bl	8000a70 <__aeabi_cdcmpeq>
 8000a88:	bf0c      	ite	eq
 8000a8a:	2001      	moveq	r0, #1
 8000a8c:	2000      	movne	r0, #0
 8000a8e:	f85d fb08 	ldr.w	pc, [sp], #8
 8000a92:	bf00      	nop

08000a94 <__aeabi_dcmplt>:
 8000a94:	f84d ed08 	str.w	lr, [sp, #-8]!
 8000a98:	f7ff ffea 	bl	8000a70 <__aeabi_cdcmpeq>
 8000a9c:	bf34      	ite	cc
 8000a9e:	2001      	movcc	r0, #1
 8000aa0:	2000      	movcs	r0, #0
 8000aa2:	f85d fb08 	ldr.w	pc, [sp], #8
 8000aa6:	bf00      	nop

08000aa8 <__aeabi_dcmple>:
 8000aa8:	f84d ed08 	str.w	lr, [sp, #-8]!
 8000aac:	f7ff ffe0 	bl	8000a70 <__aeabi_cdcmpeq>
 8000ab0:	bf94      	ite	ls
 8000ab2:	2001      	movls	r0, #1
 8000ab4:	2000      	movhi	r0, #0
 8000ab6:	f85d fb08 	ldr.w	pc, [sp], #8
 8000aba:	bf00      	nop

08000abc <__aeabi_dcmpge>:
 8000abc:	f84d ed08 	str.w	lr, [sp, #-8]!
 8000ac0:	f7ff ffce 	bl	8000a60 <__aeabi_cdrcmple>
 8000ac4:	bf94      	ite	ls
 8000ac6:	2001      	movls	r0, #1
 8000ac8:	2000      	movhi	r0, #0
 8000aca:	f85d fb08 	ldr.w	pc, [sp], #8
 8000ace:	bf00      	nop

08000ad0 <__aeabi_dcmpgt>:
 8000ad0:	f84d ed08 	str.w	lr, [sp, #-8]!
 8000ad4:	f7ff ffc4 	bl	8000a60 <__aeabi_cdrcmple>
 8000ad8:	bf34      	ite	cc
 8000ada:	2001      	movcc	r0, #1
 8000adc:	2000      	movcs	r0, #0
 8000ade:	f85d fb08 	ldr.w	pc, [sp], #8
 8000ae2:	bf00      	nop

08000ae4 <__aeabi_dcmpun>:
 8000ae4:	ea4f 0c41 	mov.w	ip, r1, lsl #1
 8000ae8:	ea7f 5c6c 	mvns.w	ip, ip, asr #21
 8000aec:	d102      	bne.n	8000af4 <__aeabi_dcmpun+0x10>
 8000aee:	ea50 3c01 	orrs.w	ip, r0, r1, lsl #12
 8000af2:	d10a      	bne.n	8000b0a <__aeabi_dcmpun+0x26>
 8000af4:	ea4f 0c43 	mov.w	ip, r3, lsl #1
 8000af8:	ea7f 5c6c 	mvns.w	ip, ip, asr #21
 8000afc:	d102      	bne.n	8000b04 <__aeabi_dcmpun+0x20>
 8000afe:	ea52 3c03 	orrs.w	ip, r2, r3, lsl #12
 8000b02:	d102      	bne.n	8000b0a <__aeabi_dcmpun+0x26>
 8000b04:	f04f 0000 	mov.w	r0, #0
 8000b08:	4770      	bx	lr
 8000b0a:	f04f 0001 	mov.w	r0, #1
 8000b0e:	4770      	bx	lr

08000b10 <__aeabi_d2iz>:
 8000b10:	ea4f 0241 	mov.w	r2, r1, lsl #1
 8000b14:	f512 1200 	adds.w	r2, r2, #2097152	; 0x200000
 8000b18:	d215      	bcs.n	8000b46 <__aeabi_d2iz+0x36>
 8000b1a:	d511      	bpl.n	8000b40 <__aeabi_d2iz+0x30>
 8000b1c:	f46f 7378 	mvn.w	r3, #992	; 0x3e0
 8000b20:	ebb3 5262 	subs.w	r2, r3, r2, asr #21
 8000b24:	d912      	bls.n	8000b4c <__aeabi_d2iz+0x3c>
 8000b26:	ea4f 23c1 	mov.w	r3, r1, lsl #11
 8000b2a:	f043 4300 	orr.w	r3, r3, #2147483648	; 0x80000000
 8000b2e:	ea43 5350 	orr.w	r3, r3, r0, lsr #21
 8000b32:	f011 4f00 	tst.w	r1, #2147483648	; 0x80000000
 8000b36:	fa23 f002 	lsr.w	r0, r3, r2
 8000b3a:	bf18      	it	ne
 8000b3c:	4240      	negne	r0, r0
 8000b3e:	4770      	bx	lr
 8000b40:	f04f 0000 	mov.w	r0, #0
 8000b44:	4770      	bx	lr
 8000b46:	ea50 3001 	orrs.w	r0, r0, r1, lsl #12
 8000b4a:	d105      	bne.n	8000b58 <__aeabi_d2iz+0x48>
 8000b4c:	f011 4000 	ands.w	r0, r1, #2147483648	; 0x80000000
 8000b50:	bf08      	it	eq
 8000b52:	f06f 4000 	mvneq.w	r0, #2147483648	; 0x80000000
 8000b56:	4770      	bx	lr
 8000b58:	f04f 0000 	mov.w	r0, #0
 8000b5c:	4770      	bx	lr
 8000b5e:	bf00      	nop

08000b60 <__aeabi_uldivmod>:
 8000b60:	b953      	cbnz	r3, 8000b78 <__aeabi_uldivmod+0x18>
 8000b62:	b94a      	cbnz	r2, 8000b78 <__aeabi_uldivmod+0x18>
 8000b64:	2900      	cmp	r1, #0
 8000b66:	bf08      	it	eq
 8000b68:	2800      	cmpeq	r0, #0
 8000b6a:	bf1c      	itt	ne
 8000b6c:	f04f 31ff 	movne.w	r1, #4294967295
 8000b70:	f04f 30ff 	movne.w	r0, #4294967295
 8000b74:	f000 b97a 	b.w	8000e6c <__aeabi_idiv0>
 8000b78:	f1ad 0c08 	sub.w	ip, sp, #8
 8000b7c:	e96d ce04 	strd	ip, lr, [sp, #-16]!
 8000b80:	f000 f806 	bl	8000b90 <__udivmoddi4>
 8000b84:	f8dd e004 	ldr.w	lr, [sp, #4]
 8000b88:	e9dd 2302 	ldrd	r2, r3, [sp, #8]
 8000b8c:	b004      	add	sp, #16
 8000b8e:	4770      	bx	lr

08000b90 <__udivmoddi4>:
 8000b90:	e92d 47f0 	stmdb	sp!, {r4, r5, r6, r7, r8, r9, sl, lr}
 8000b94:	468c      	mov	ip, r1
 8000b96:	460e      	mov	r6, r1
 8000b98:	4604      	mov	r4, r0
 8000b9a:	9d08      	ldr	r5, [sp, #32]
 8000b9c:	2b00      	cmp	r3, #0
 8000b9e:	d150      	bne.n	8000c42 <__udivmoddi4+0xb2>
 8000ba0:	428a      	cmp	r2, r1
 8000ba2:	4617      	mov	r7, r2
 8000ba4:	d96c      	bls.n	8000c80 <__udivmoddi4+0xf0>
 8000ba6:	fab2 fe82 	clz	lr, r2
 8000baa:	f1be 0f00 	cmp.w	lr, #0
 8000bae:	d00b      	beq.n	8000bc8 <__udivmoddi4+0x38>
 8000bb0:	f1ce 0c20 	rsb	ip, lr, #32
 8000bb4:	fa01 f60e 	lsl.w	r6, r1, lr
 8000bb8:	fa20 fc0c 	lsr.w	ip, r0, ip
 8000bbc:	fa02 f70e 	lsl.w	r7, r2, lr
 8000bc0:	ea4c 0c06 	orr.w	ip, ip, r6
 8000bc4:	fa00 f40e 	lsl.w	r4, r0, lr
 8000bc8:	0c3a      	lsrs	r2, r7, #16
 8000bca:	fbbc f9f2 	udiv	r9, ip, r2
 8000bce:	b2bb      	uxth	r3, r7
 8000bd0:	fb02 cc19 	mls	ip, r2, r9, ip
 8000bd4:	fb09 fa03 	mul.w	sl, r9, r3
 8000bd8:	ea4f 4814 	mov.w	r8, r4, lsr #16
 8000bdc:	ea48 460c 	orr.w	r6, r8, ip, lsl #16
 8000be0:	45b2      	cmp	sl, r6
 8000be2:	d90a      	bls.n	8000bfa <__udivmoddi4+0x6a>
 8000be4:	19f6      	adds	r6, r6, r7
 8000be6:	f109 31ff 	add.w	r1, r9, #4294967295
 8000bea:	f080 8125 	bcs.w	8000e38 <__udivmoddi4+0x2a8>
 8000bee:	45b2      	cmp	sl, r6
 8000bf0:	f240 8122 	bls.w	8000e38 <__udivmoddi4+0x2a8>
 8000bf4:	f1a9 0902 	sub.w	r9, r9, #2
 8000bf8:	443e      	add	r6, r7
 8000bfa:	eba6 060a 	sub.w	r6, r6, sl
 8000bfe:	fbb6 f0f2 	udiv	r0, r6, r2
 8000c02:	fb02 6610 	mls	r6, r2, r0, r6
 8000c06:	fb00 f303 	mul.w	r3, r0, r3
 8000c0a:	b2a4      	uxth	r4, r4
 8000c0c:	ea44 4406 	orr.w	r4, r4, r6, lsl #16
 8000c10:	42a3      	cmp	r3, r4
 8000c12:	d909      	bls.n	8000c28 <__udivmoddi4+0x98>
 8000c14:	19e4      	adds	r4, r4, r7
 8000c16:	f100 32ff 	add.w	r2, r0, #4294967295
 8000c1a:	f080 810b 	bcs.w	8000e34 <__udivmoddi4+0x2a4>
 8000c1e:	42a3      	cmp	r3, r4
 8000c20:	f240 8108 	bls.w	8000e34 <__udivmoddi4+0x2a4>
 8000c24:	3802      	subs	r0, #2
 8000c26:	443c      	add	r4, r7
 8000c28:	2100      	movs	r1, #0
 8000c2a:	1ae4      	subs	r4, r4, r3
 8000c2c:	ea40 4009 	orr.w	r0, r0, r9, lsl #16
 8000c30:	2d00      	cmp	r5, #0
 8000c32:	d062      	beq.n	8000cfa <__udivmoddi4+0x16a>
 8000c34:	2300      	movs	r3, #0
 8000c36:	fa24 f40e 	lsr.w	r4, r4, lr
 8000c3a:	602c      	str	r4, [r5, #0]
 8000c3c:	606b      	str	r3, [r5, #4]
 8000c3e:	e8bd 87f0 	ldmia.w	sp!, {r4, r5, r6, r7, r8, r9, sl, pc}
 8000c42:	428b      	cmp	r3, r1
 8000c44:	d907      	bls.n	8000c56 <__udivmoddi4+0xc6>
 8000c46:	2d00      	cmp	r5, #0
 8000c48:	d055      	beq.n	8000cf6 <__udivmoddi4+0x166>
 8000c4a:	2100      	movs	r1, #0
 8000c4c:	e885 0041 	stmia.w	r5, {r0, r6}
 8000c50:	4608      	mov	r0, r1
 8000c52:	e8bd 87f0 	ldmia.w	sp!, {r4, r5, r6, r7, r8, r9, sl, pc}
 8000c56:	fab3 f183 	clz	r1, r3
 8000c5a:	2900      	cmp	r1, #0
 8000c5c:	f040 808f 	bne.w	8000d7e <__udivmoddi4+0x1ee>
 8000c60:	42b3      	cmp	r3, r6
 8000c62:	d302      	bcc.n	8000c6a <__udivmoddi4+0xda>
 8000c64:	4282      	cmp	r2, r0
 8000c66:	f200 80fc 	bhi.w	8000e62 <__udivmoddi4+0x2d2>
 8000c6a:	1a84      	subs	r4, r0, r2
 8000c6c:	eb66 0603 	sbc.w	r6, r6, r3
 8000c70:	2001      	movs	r0, #1
 8000c72:	46b4      	mov	ip, r6
 8000c74:	2d00      	cmp	r5, #0
 8000c76:	d040      	beq.n	8000cfa <__udivmoddi4+0x16a>
 8000c78:	e885 1010 	stmia.w	r5, {r4, ip}
 8000c7c:	e8bd 87f0 	ldmia.w	sp!, {r4, r5, r6, r7, r8, r9, sl, pc}
 8000c80:	b912      	cbnz	r2, 8000c88 <__udivmoddi4+0xf8>
 8000c82:	2701      	movs	r7, #1
 8000c84:	fbb7 f7f2 	udiv	r7, r7, r2
 8000c88:	fab7 fe87 	clz	lr, r7
 8000c8c:	f1be 0f00 	cmp.w	lr, #0
 8000c90:	d135      	bne.n	8000cfe <__udivmoddi4+0x16e>
 8000c92:	2101      	movs	r1, #1
 8000c94:	1bf6      	subs	r6, r6, r7
 8000c96:	ea4f 4c17 	mov.w	ip, r7, lsr #16
 8000c9a:	fa1f f887 	uxth.w	r8, r7
 8000c9e:	fbb6 f2fc 	udiv	r2, r6, ip
 8000ca2:	fb0c 6612 	mls	r6, ip, r2, r6
 8000ca6:	fb08 f002 	mul.w	r0, r8, r2
 8000caa:	0c23      	lsrs	r3, r4, #16
 8000cac:	ea43 4606 	orr.w	r6, r3, r6, lsl #16
 8000cb0:	42b0      	cmp	r0, r6
 8000cb2:	d907      	bls.n	8000cc4 <__udivmoddi4+0x134>
 8000cb4:	19f6      	adds	r6, r6, r7
 8000cb6:	f102 33ff 	add.w	r3, r2, #4294967295
 8000cba:	d202      	bcs.n	8000cc2 <__udivmoddi4+0x132>
 8000cbc:	42b0      	cmp	r0, r6
 8000cbe:	f200 80d2 	bhi.w	8000e66 <__udivmoddi4+0x2d6>
 8000cc2:	461a      	mov	r2, r3
 8000cc4:	1a36      	subs	r6, r6, r0
 8000cc6:	fbb6 f0fc 	udiv	r0, r6, ip
 8000cca:	fb0c 6610 	mls	r6, ip, r0, r6
 8000cce:	fb08 f800 	mul.w	r8, r8, r0
 8000cd2:	b2a3      	uxth	r3, r4
 8000cd4:	ea43 4406 	orr.w	r4, r3, r6, lsl #16
 8000cd8:	45a0      	cmp	r8, r4
 8000cda:	d907      	bls.n	8000cec <__udivmoddi4+0x15c>
 8000cdc:	19e4      	adds	r4, r4, r7
 8000cde:	f100 33ff 	add.w	r3, r0, #4294967295
 8000ce2:	d202      	bcs.n	8000cea <__udivmoddi4+0x15a>
 8000ce4:	45a0      	cmp	r8, r4
 8000ce6:	f200 80b9 	bhi.w	8000e5c <__udivmoddi4+0x2cc>
 8000cea:	4618      	mov	r0, r3
 8000cec:	eba4 0408 	sub.w	r4, r4, r8
 8000cf0:	ea40 4002 	orr.w	r0, r0, r2, lsl #16
 8000cf4:	e79c      	b.n	8000c30 <__udivmoddi4+0xa0>
 8000cf6:	4629      	mov	r1, r5
 8000cf8:	4628      	mov	r0, r5
 8000cfa:	e8bd 87f0 	ldmia.w	sp!, {r4, r5, r6, r7, r8, r9, sl, pc}
 8000cfe:	fa07 f70e 	lsl.w	r7, r7, lr
 8000d02:	f1ce 0320 	rsb	r3, lr, #32
 8000d06:	fa26 f203 	lsr.w	r2, r6, r3
 8000d0a:	ea4f 4c17 	mov.w	ip, r7, lsr #16
 8000d0e:	fbb2 f1fc 	udiv	r1, r2, ip
 8000d12:	fa1f f887 	uxth.w	r8, r7
 8000d16:	fb0c 2211 	mls	r2, ip, r1, r2
 8000d1a:	fa06 f60e 	lsl.w	r6, r6, lr
 8000d1e:	fa20 f303 	lsr.w	r3, r0, r3
 8000d22:	fb01 f908 	mul.w	r9, r1, r8
 8000d26:	4333      	orrs	r3, r6
 8000d28:	0c1e      	lsrs	r6, r3, #16
 8000d2a:	ea46 4602 	orr.w	r6, r6, r2, lsl #16
 8000d2e:	45b1      	cmp	r9, r6
 8000d30:	fa00 f40e 	lsl.w	r4, r0, lr
 8000d34:	d909      	bls.n	8000d4a <__udivmoddi4+0x1ba>
 8000d36:	19f6      	adds	r6, r6, r7
 8000d38:	f101 32ff 	add.w	r2, r1, #4294967295
 8000d3c:	f080 808c 	bcs.w	8000e58 <__udivmoddi4+0x2c8>
 8000d40:	45b1      	cmp	r9, r6
 8000d42:	f240 8089 	bls.w	8000e58 <__udivmoddi4+0x2c8>
 8000d46:	3902      	subs	r1, #2
 8000d48:	443e      	add	r6, r7
 8000d4a:	eba6 0609 	sub.w	r6, r6, r9
 8000d4e:	fbb6 f0fc 	udiv	r0, r6, ip
 8000d52:	fb0c 6210 	mls	r2, ip, r0, r6
 8000d56:	fb00 f908 	mul.w	r9, r0, r8
 8000d5a:	b29e      	uxth	r6, r3
 8000d5c:	ea46 4602 	orr.w	r6, r6, r2, lsl #16
 8000d60:	45b1      	cmp	r9, r6
 8000d62:	d907      	bls.n	8000d74 <__udivmoddi4+0x1e4>
 8000d64:	19f6      	adds	r6, r6, r7
 8000d66:	f100 33ff 	add.w	r3, r0, #4294967295
 8000d6a:	d271      	bcs.n	8000e50 <__udivmoddi4+0x2c0>
 8000d6c:	45b1      	cmp	r9, r6
 8000d6e:	d96f      	bls.n	8000e50 <__udivmoddi4+0x2c0>
 8000d70:	3802      	subs	r0, #2
 8000d72:	443e      	add	r6, r7
 8000d74:	eba6 0609 	sub.w	r6, r6, r9
 8000d78:	ea40 4101 	orr.w	r1, r0, r1, lsl #16
 8000d7c:	e78f      	b.n	8000c9e <__udivmoddi4+0x10e>
 8000d7e:	f1c1 0720 	rsb	r7, r1, #32
 8000d82:	fa22 f807 	lsr.w	r8, r2, r7
 8000d86:	408b      	lsls	r3, r1
 8000d88:	ea48 0303 	orr.w	r3, r8, r3
 8000d8c:	fa26 f407 	lsr.w	r4, r6, r7
 8000d90:	ea4f 4e13 	mov.w	lr, r3, lsr #16
 8000d94:	fbb4 f9fe 	udiv	r9, r4, lr
 8000d98:	fa1f fc83 	uxth.w	ip, r3
 8000d9c:	fb0e 4419 	mls	r4, lr, r9, r4
 8000da0:	408e      	lsls	r6, r1
 8000da2:	fa20 f807 	lsr.w	r8, r0, r7
 8000da6:	fb09 fa0c 	mul.w	sl, r9, ip
 8000daa:	ea48 0806 	orr.w	r8, r8, r6
 8000dae:	ea4f 4618 	mov.w	r6, r8, lsr #16
 8000db2:	ea46 4404 	orr.w	r4, r6, r4, lsl #16
 8000db6:	45a2      	cmp	sl, r4
 8000db8:	fa02 f201 	lsl.w	r2, r2, r1
 8000dbc:	fa00 f601 	lsl.w	r6, r0, r1
 8000dc0:	d908      	bls.n	8000dd4 <__udivmoddi4+0x244>
 8000dc2:	18e4      	adds	r4, r4, r3
 8000dc4:	f109 30ff 	add.w	r0, r9, #4294967295
 8000dc8:	d244      	bcs.n	8000e54 <__udivmoddi4+0x2c4>
 8000dca:	45a2      	cmp	sl, r4
 8000dcc:	d942      	bls.n	8000e54 <__udivmoddi4+0x2c4>
 8000dce:	f1a9 0902 	sub.w	r9, r9, #2
 8000dd2:	441c      	add	r4, r3
 8000dd4:	eba4 040a 	sub.w	r4, r4, sl
 8000dd8:	fbb4 f0fe 	udiv	r0, r4, lr
 8000ddc:	fb0e 4410 	mls	r4, lr, r0, r4
 8000de0:	fb00 fc0c 	mul.w	ip, r0, ip
 8000de4:	fa1f f888 	uxth.w	r8, r8
 8000de8:	ea48 4404 	orr.w	r4, r8, r4, lsl #16
 8000dec:	45a4      	cmp	ip, r4
 8000dee:	d907      	bls.n	8000e00 <__udivmoddi4+0x270>
 8000df0:	18e4      	adds	r4, r4, r3
 8000df2:	f100 3eff 	add.w	lr, r0, #4294967295
 8000df6:	d229      	bcs.n	8000e4c <__udivmoddi4+0x2bc>
 8000df8:	45a4      	cmp	ip, r4
 8000dfa:	d927      	bls.n	8000e4c <__udivmoddi4+0x2bc>
 8000dfc:	3802      	subs	r0, #2
 8000dfe:	441c      	add	r4, r3
 8000e00:	ea40 4009 	orr.w	r0, r0, r9, lsl #16
 8000e04:	fba0 8902 	umull	r8, r9, r0, r2
 8000e08:	eba4 0c0c 	sub.w	ip, r4, ip
 8000e0c:	45cc      	cmp	ip, r9
 8000e0e:	46c2      	mov	sl, r8
 8000e10:	46ce      	mov	lr, r9
 8000e12:	d315      	bcc.n	8000e40 <__udivmoddi4+0x2b0>
 8000e14:	d012      	beq.n	8000e3c <__udivmoddi4+0x2ac>
 8000e16:	b155      	cbz	r5, 8000e2e <__udivmoddi4+0x29e>
 8000e18:	ebb6 030a 	subs.w	r3, r6, sl
 8000e1c:	eb6c 060e 	sbc.w	r6, ip, lr
 8000e20:	fa06 f707 	lsl.w	r7, r6, r7
 8000e24:	40cb      	lsrs	r3, r1
 8000e26:	431f      	orrs	r7, r3
 8000e28:	40ce      	lsrs	r6, r1
 8000e2a:	602f      	str	r7, [r5, #0]
 8000e2c:	606e      	str	r6, [r5, #4]
 8000e2e:	2100      	movs	r1, #0
 8000e30:	e8bd 87f0 	ldmia.w	sp!, {r4, r5, r6, r7, r8, r9, sl, pc}
 8000e34:	4610      	mov	r0, r2
 8000e36:	e6f7      	b.n	8000c28 <__udivmoddi4+0x98>
 8000e38:	4689      	mov	r9, r1
 8000e3a:	e6de      	b.n	8000bfa <__udivmoddi4+0x6a>
 8000e3c:	4546      	cmp	r6, r8
 8000e3e:	d2ea      	bcs.n	8000e16 <__udivmoddi4+0x286>
 8000e40:	ebb8 0a02 	subs.w	sl, r8, r2
 8000e44:	eb69 0e03 	sbc.w	lr, r9, r3
 8000e48:	3801      	subs	r0, #1
 8000e4a:	e7e4      	b.n	8000e16 <__udivmoddi4+0x286>
 8000e4c:	4670      	mov	r0, lr
 8000e4e:	e7d7      	b.n	8000e00 <__udivmoddi4+0x270>
 8000e50:	4618      	mov	r0, r3
 8000e52:	e78f      	b.n	8000d74 <__udivmoddi4+0x1e4>
 8000e54:	4681      	mov	r9, r0
 8000e56:	e7bd      	b.n	8000dd4 <__udivmoddi4+0x244>
 8000e58:	4611      	mov	r1, r2
 8000e5a:	e776      	b.n	8000d4a <__udivmoddi4+0x1ba>
 8000e5c:	3802      	subs	r0, #2
 8000e5e:	443c      	add	r4, r7
 8000e60:	e744      	b.n	8000cec <__udivmoddi4+0x15c>
 8000e62:	4608      	mov	r0, r1
 8000e64:	e706      	b.n	8000c74 <__udivmoddi4+0xe4>
 8000e66:	3a02      	subs	r2, #2
 8000e68:	443e      	add	r6, r7
 8000e6a:	e72b      	b.n	8000cc4 <__udivmoddi4+0x134>

08000e6c <__aeabi_idiv0>:
 8000e6c:	4770      	bx	lr
 8000e6e:	bf00      	nop

08000e70 <START_task>:

}

/* USER CODE BEGIN 4 */

void START_task(void *pvParameters){
 8000e70:	b507      	push	{r0, r1, r2, lr}
	taskENTER_CRITICAL();
 8000e72:	f002 f927 	bl	80030c4 <vPortEnterCritical>
	EventGroupHandler = xEventGroupCreate(); //create event group
 8000e76:	f001 ffb6 	bl	8002de6 <xEventGroupCreate>
 8000e7a:	4b14      	ldr	r3, [pc, #80]	; (8000ecc <START_task+0x5c>)

	xTaskCreate((TaskFunction_t  )(Button_task),         	  	//Task Function
 8000e7c:	2246      	movs	r2, #70	; 0x46
	EventGroupHandler = xEventGroupCreate(); //create event group
 8000e7e:	6018      	str	r0, [r3, #0]
	xTaskCreate((TaskFunction_t  )(Button_task),         	  	//Task Function
 8000e80:	4b13      	ldr	r3, [pc, #76]	; (8000ed0 <START_task+0x60>)
 8000e82:	4914      	ldr	r1, [pc, #80]	; (8000ed4 <START_task+0x64>)
 8000e84:	9301      	str	r3, [sp, #4]
 8000e86:	2301      	movs	r3, #1
 8000e88:	4813      	ldr	r0, [pc, #76]	; (8000ed8 <START_task+0x68>)
 8000e8a:	9300      	str	r3, [sp, #0]
 8000e8c:	2300      	movs	r3, #0
 8000e8e:	f002 fe67 	bl	8003b60 <xTaskCreate>
				(uint16_t        ) Button_task_STACK_SIZE, 	//Task Stack Size
				(void *          ) NULL,				    //Task Fuction Parameter
				(UBaseType_t     ) Button_task_PRIORITY, 		//Task Priority

				(TaskHandle_t    ) &RTCUITaskHandler);	    //Task Handler
	xTaskCreate((TaskFunction_t  )(Menu_Task),         	  	//Task Function
 8000e92:	4b12      	ldr	r3, [pc, #72]	; (8000edc <START_task+0x6c>)
 8000e94:	2280      	movs	r2, #128	; 0x80
 8000e96:	9301      	str	r3, [sp, #4]
 8000e98:	2302      	movs	r3, #2
 8000e9a:	4911      	ldr	r1, [pc, #68]	; (8000ee0 <START_task+0x70>)
 8000e9c:	9300      	str	r3, [sp, #0]
 8000e9e:	4811      	ldr	r0, [pc, #68]	; (8000ee4 <START_task+0x74>)
 8000ea0:	2300      	movs	r3, #0
 8000ea2:	f002 fe5d 	bl	8003b60 <xTaskCreate>
				(uint16_t        ) MENU_TASK_STACK_SIZE, 	//Task Stack Size
				(void *          ) NULL,				    //Task Fuction Parameter
				(UBaseType_t     ) MENU_TASK_PRIORITY, 		//Task Priority
				(TaskHandle_t    ) &MenuTaskHandler);	    //Task Handler

	xTaskCreate((TaskFunction_t  )(GPIO_task),         	  	//Task Function
 8000ea6:	4b10      	ldr	r3, [pc, #64]	; (8000ee8 <START_task+0x78>)
 8000ea8:	2246      	movs	r2, #70	; 0x46
 8000eaa:	9301      	str	r3, [sp, #4]
 8000eac:	2305      	movs	r3, #5
 8000eae:	490f      	ldr	r1, [pc, #60]	; (8000eec <START_task+0x7c>)
 8000eb0:	9300      	str	r3, [sp, #0]
 8000eb2:	480f      	ldr	r0, [pc, #60]	; (8000ef0 <START_task+0x80>)
 8000eb4:	2300      	movs	r3, #0
 8000eb6:	f002 fe53 	bl	8003b60 <xTaskCreate>
//				(uint16_t        ) RTCUI_TASK_STACK_SIZE, 	//Task Stack Size
//				(void *          ) NULL,				    //Task Fuction Parameter
//				(UBaseType_t     ) RTCUI_TASK_PRIORITY, 		//Task Priority
//				(TaskHandle_t    ) &RTCUITaskHandler);	    //Task Handler

	vTaskDelete(StartTaskHandler);
 8000eba:	4b0e      	ldr	r3, [pc, #56]	; (8000ef4 <START_task+0x84>)
 8000ebc:	6818      	ldr	r0, [r3, #0]
 8000ebe:	f002 ff2f 	bl	8003d20 <vTaskDelete>
	taskEXIT_CRITICAL();
}
 8000ec2:	b003      	add	sp, #12
 8000ec4:	f85d eb04 	ldr.w	lr, [sp], #4
	taskEXIT_CRITICAL();
 8000ec8:	f002 b91e 	b.w	8003108 <vPortExitCritical>
 8000ecc:	2000455c 	.word	0x2000455c
 8000ed0:	20004650 	.word	0x20004650
 8000ed4:	08008080 	.word	0x08008080
 8000ed8:	080018e5 	.word	0x080018e5
 8000edc:	20004648 	.word	0x20004648
 8000ee0:	0800808c 	.word	0x0800808c
 8000ee4:	08004a85 	.word	0x08004a85
 8000ee8:	20004558 	.word	0x20004558
 8000eec:	08008096 	.word	0x08008096
 8000ef0:	08000ef9 	.word	0x08000ef9
 8000ef4:	200045b4 	.word	0x200045b4

08000ef8 <GPIO_task>:
void GPIO_task(void *pvParameters){
 8000ef8:	b508      	push	{r3, lr}

	while(1){
		HAL_GPIO_TogglePin(LED0_GPIO_Port, LED0_Pin);
 8000efa:	4d0a      	ldr	r5, [pc, #40]	; (8000f24 <GPIO_task+0x2c>)
		vTaskDelay(1000/portTICK_PERIOD_MS);
		HAL_GPIO_TogglePin(LED1_GPIO_Port, LED1_Pin);
 8000efc:	4c0a      	ldr	r4, [pc, #40]	; (8000f28 <GPIO_task+0x30>)
		HAL_GPIO_TogglePin(LED0_GPIO_Port, LED0_Pin);
 8000efe:	f44f 7180 	mov.w	r1, #256	; 0x100
 8000f02:	4628      	mov	r0, r5
 8000f04:	f000 ff21 	bl	8001d4a <HAL_GPIO_TogglePin>
		vTaskDelay(1000/portTICK_PERIOD_MS);
 8000f08:	f44f 707a 	mov.w	r0, #1000	; 0x3e8
 8000f0c:	f003 f8cc 	bl	80040a8 <vTaskDelay>
		HAL_GPIO_TogglePin(LED1_GPIO_Port, LED1_Pin);
 8000f10:	4620      	mov	r0, r4
 8000f12:	2104      	movs	r1, #4
 8000f14:	f000 ff19 	bl	8001d4a <HAL_GPIO_TogglePin>
		vTaskDelay(2000/portTICK_PERIOD_MS);
 8000f18:	f44f 60fa 	mov.w	r0, #2000	; 0x7d0
 8000f1c:	f003 f8c4 	bl	80040a8 <vTaskDelay>
 8000f20:	e7ed      	b.n	8000efe <GPIO_task+0x6>
 8000f22:	bf00      	nop
 8000f24:	40010800 	.word	0x40010800
 8000f28:	40011400 	.word	0x40011400

08000f2c <SystemClock_Config>:
  RCC_OscInitStruct.OscillatorType = RCC_OSCILLATORTYPE_HSE|RCC_OSCILLATORTYPE_LSE;
 8000f2c:	2305      	movs	r3, #5
{
 8000f2e:	b530      	push	{r4, r5, lr}
 8000f30:	b097      	sub	sp, #92	; 0x5c
  RCC_OscInitStruct.OscillatorType = RCC_OSCILLATORTYPE_HSE|RCC_OSCILLATORTYPE_LSE;
 8000f32:	930c      	str	r3, [sp, #48]	; 0x30
  RCC_OscInitStruct.HSEState = RCC_HSE_ON;
 8000f34:	f44f 3380 	mov.w	r3, #65536	; 0x10000
  RCC_OscInitStruct.LSEState = RCC_LSE_ON;
 8000f38:	2401      	movs	r4, #1
  RCC_OscInitStruct.HSEState = RCC_HSE_ON;
 8000f3a:	930d      	str	r3, [sp, #52]	; 0x34
  RCC_OscInitStruct.HSEPredivValue = RCC_HSE_PREDIV_DIV1;
 8000f3c:	2200      	movs	r2, #0
  RCC_OscInitStruct.PLL.PLLState = RCC_PLL_ON;
 8000f3e:	2502      	movs	r5, #2
  RCC_OscInitStruct.PLL.PLLSource = RCC_PLLSOURCE_HSE;
 8000f40:	9314      	str	r3, [sp, #80]	; 0x50
  RCC_OscInitStruct.PLL.PLLMUL = RCC_PLL_MUL9;
 8000f42:	f44f 13e0 	mov.w	r3, #1835008	; 0x1c0000
  if (HAL_RCC_OscConfig(&RCC_OscInitStruct) != HAL_OK)
 8000f46:	a80c      	add	r0, sp, #48	; 0x30
  RCC_OscInitStruct.HSEPredivValue = RCC_HSE_PREDIV_DIV1;
 8000f48:	920e      	str	r2, [sp, #56]	; 0x38
  RCC_OscInitStruct.LSEState = RCC_LSE_ON;
 8000f4a:	940f      	str	r4, [sp, #60]	; 0x3c
  RCC_OscInitStruct.HSIState = RCC_HSI_ON;
 8000f4c:	9410      	str	r4, [sp, #64]	; 0x40
  RCC_OscInitStruct.PLL.PLLState = RCC_PLL_ON;
 8000f4e:	9513      	str	r5, [sp, #76]	; 0x4c
  RCC_OscInitStruct.PLL.PLLMUL = RCC_PLL_MUL9;
 8000f50:	9315      	str	r3, [sp, #84]	; 0x54
  if (HAL_RCC_OscConfig(&RCC_OscInitStruct) != HAL_OK)
 8000f52:	f000 ff05 	bl	8001d60 <HAL_RCC_OscConfig>
 8000f56:	b100      	cbz	r0, 8000f5a <SystemClock_Config+0x2e>
 8000f58:	e7fe      	b.n	8000f58 <SystemClock_Config+0x2c>
  RCC_ClkInitStruct.ClockType = RCC_CLOCKTYPE_HCLK|RCC_CLOCKTYPE_SYSCLK
 8000f5a:	230f      	movs	r3, #15
 8000f5c:	9301      	str	r3, [sp, #4]
  RCC_ClkInitStruct.APB1CLKDivider = RCC_HCLK_DIV2;
 8000f5e:	f44f 6380 	mov.w	r3, #1024	; 0x400
  RCC_ClkInitStruct.AHBCLKDivider = RCC_SYSCLK_DIV1;
 8000f62:	9003      	str	r0, [sp, #12]
  RCC_ClkInitStruct.APB2CLKDivider = RCC_HCLK_DIV1;
 8000f64:	9005      	str	r0, [sp, #20]
  if (HAL_RCC_ClockConfig(&RCC_ClkInitStruct, FLASH_LATENCY_2) != HAL_OK)
 8000f66:	4629      	mov	r1, r5
 8000f68:	a801      	add	r0, sp, #4
  RCC_ClkInitStruct.SYSCLKSource = RCC_SYSCLKSOURCE_PLLCLK;
 8000f6a:	9502      	str	r5, [sp, #8]
  RCC_ClkInitStruct.APB1CLKDivider = RCC_HCLK_DIV2;
 8000f6c:	9304      	str	r3, [sp, #16]
  if (HAL_RCC_ClockConfig(&RCC_ClkInitStruct, FLASH_LATENCY_2) != HAL_OK)
 8000f6e:	f001 f8bf 	bl	80020f0 <HAL_RCC_ClockConfig>
 8000f72:	b100      	cbz	r0, 8000f76 <SystemClock_Config+0x4a>
 8000f74:	e7fe      	b.n	8000f74 <SystemClock_Config+0x48>
  PeriphClkInit.RTCClockSelection = RCC_RTCCLKSOURCE_LSE;
 8000f76:	f44f 7380 	mov.w	r3, #256	; 0x100
  if (HAL_RCCEx_PeriphCLKConfig(&PeriphClkInit) != HAL_OK)
 8000f7a:	a806      	add	r0, sp, #24
  PeriphClkInit.PeriphClockSelection = RCC_PERIPHCLK_RTC;
 8000f7c:	9406      	str	r4, [sp, #24]
  PeriphClkInit.RTCClockSelection = RCC_RTCCLKSOURCE_LSE;
 8000f7e:	9307      	str	r3, [sp, #28]
  if (HAL_RCCEx_PeriphCLKConfig(&PeriphClkInit) != HAL_OK)
 8000f80:	f001 f970 	bl	8002264 <HAL_RCCEx_PeriphCLKConfig>
 8000f84:	4604      	mov	r4, r0
 8000f86:	b100      	cbz	r0, 8000f8a <SystemClock_Config+0x5e>
 8000f88:	e7fe      	b.n	8000f88 <SystemClock_Config+0x5c>
  HAL_SYSTICK_Config(HAL_RCC_GetHCLKFreq()/1000);
 8000f8a:	f001 f955 	bl	8002238 <HAL_RCC_GetHCLKFreq>
 8000f8e:	f44f 737a 	mov.w	r3, #1000	; 0x3e8
 8000f92:	fbb0 f0f3 	udiv	r0, r0, r3
 8000f96:	f000 fdb9 	bl	8001b0c <HAL_SYSTICK_Config>
  HAL_SYSTICK_CLKSourceConfig(SYSTICK_CLKSOURCE_HCLK);
 8000f9a:	2004      	movs	r0, #4
 8000f9c:	f000 fdcc 	bl	8001b38 <HAL_SYSTICK_CLKSourceConfig>
  HAL_NVIC_SetPriority(SysTick_IRQn, 0, 0);
 8000fa0:	4622      	mov	r2, r4
 8000fa2:	4621      	mov	r1, r4
 8000fa4:	f04f 30ff 	mov.w	r0, #4294967295
 8000fa8:	f000 fd7c 	bl	8001aa4 <HAL_NVIC_SetPriority>
}
 8000fac:	b017      	add	sp, #92	; 0x5c
 8000fae:	bd30      	pop	{r4, r5, pc}

08000fb0 <main>:
{
 8000fb0:	b580      	push	{r7, lr}
 8000fb2:	b092      	sub	sp, #72	; 0x48
  HAL_Init();
 8000fb4:	f000 fd2e 	bl	8001a14 <HAL_Init>
  SystemClock_Config();
 8000fb8:	f7ff ffb8 	bl	8000f2c <SystemClock_Config>
  __HAL_RCC_GPIOC_CLK_ENABLE();
 8000fbc:	4b7e      	ldr	r3, [pc, #504]	; (80011b8 <main+0x208>)
  GPIO_InitStruct.Mode = GPIO_MODE_INPUT;
 8000fbe:	2500      	movs	r5, #0
  __HAL_RCC_GPIOC_CLK_ENABLE();
 8000fc0:	699a      	ldr	r2, [r3, #24]
  GPIO_InitStruct.Pull = GPIO_PULLUP;
 8000fc2:	2401      	movs	r4, #1
  __HAL_RCC_GPIOC_CLK_ENABLE();
 8000fc4:	f042 0210 	orr.w	r2, r2, #16
 8000fc8:	619a      	str	r2, [r3, #24]
 8000fca:	699a      	ldr	r2, [r3, #24]
  GPIO_InitStruct.Pin = ROTARY_SW_Pin;
 8000fcc:	2708      	movs	r7, #8
  __HAL_RCC_GPIOC_CLK_ENABLE();
 8000fce:	f002 0210 	and.w	r2, r2, #16
 8000fd2:	9203      	str	r2, [sp, #12]
 8000fd4:	9a03      	ldr	r2, [sp, #12]
  __HAL_RCC_GPIOD_CLK_ENABLE();
 8000fd6:	699a      	ldr	r2, [r3, #24]
  HAL_GPIO_WritePin(GPIOB, SPI_CS_Pin|OLED_RST_Pin, GPIO_PIN_SET);
 8000fd8:	f44f 41a0 	mov.w	r1, #20480	; 0x5000
  __HAL_RCC_GPIOD_CLK_ENABLE();
 8000fdc:	f042 0220 	orr.w	r2, r2, #32
 8000fe0:	619a      	str	r2, [r3, #24]
 8000fe2:	699a      	ldr	r2, [r3, #24]
  HAL_GPIO_WritePin(GPIOB, SPI_CS_Pin|OLED_RST_Pin, GPIO_PIN_SET);
 8000fe4:	4875      	ldr	r0, [pc, #468]	; (80011bc <main+0x20c>)
  __HAL_RCC_GPIOD_CLK_ENABLE();
 8000fe6:	f002 0220 	and.w	r2, r2, #32
 8000fea:	9204      	str	r2, [sp, #16]
 8000fec:	9a04      	ldr	r2, [sp, #16]
  __HAL_RCC_GPIOA_CLK_ENABLE();
 8000fee:	699a      	ldr	r2, [r3, #24]
  GPIO_InitStruct.Speed = GPIO_SPEED_FREQ_HIGH;
 8000ff0:	2603      	movs	r6, #3
  __HAL_RCC_GPIOA_CLK_ENABLE();
 8000ff2:	f042 0204 	orr.w	r2, r2, #4
 8000ff6:	619a      	str	r2, [r3, #24]
 8000ff8:	699a      	ldr	r2, [r3, #24]
  GPIO_InitStruct.Speed = GPIO_SPEED_FREQ_LOW;
 8000ffa:	f04f 0902 	mov.w	r9, #2
  __HAL_RCC_GPIOA_CLK_ENABLE();
 8000ffe:	f002 0204 	and.w	r2, r2, #4
 8001002:	9205      	str	r2, [sp, #20]
 8001004:	9a05      	ldr	r2, [sp, #20]
  __HAL_RCC_GPIOB_CLK_ENABLE();
 8001006:	699a      	ldr	r2, [r3, #24]
  GPIO_InitStruct.Pin = LED0_Pin;
 8001008:	f44f 7880 	mov.w	r8, #256	; 0x100
  __HAL_RCC_GPIOB_CLK_ENABLE();
 800100c:	f042 0208 	orr.w	r2, r2, #8
 8001010:	619a      	str	r2, [r3, #24]
 8001012:	699b      	ldr	r3, [r3, #24]
  HAL_GPIO_WritePin(GPIOB, SPI_CS_Pin|OLED_RST_Pin, GPIO_PIN_SET);
 8001014:	2201      	movs	r2, #1
  __HAL_RCC_GPIOB_CLK_ENABLE();
 8001016:	f003 0308 	and.w	r3, r3, #8
 800101a:	9306      	str	r3, [sp, #24]
 800101c:	9b06      	ldr	r3, [sp, #24]
  HAL_GPIO_WritePin(GPIOB, SPI_CS_Pin|OLED_RST_Pin, GPIO_PIN_SET);
 800101e:	f000 fe8f 	bl	8001d40 <HAL_GPIO_WritePin>
  HAL_GPIO_WritePin(OLED_DC_GPIO_Port, OLED_DC_Pin, GPIO_PIN_SET);
 8001022:	2201      	movs	r2, #1
 8001024:	2140      	movs	r1, #64	; 0x40
 8001026:	4866      	ldr	r0, [pc, #408]	; (80011c0 <main+0x210>)
 8001028:	f000 fe8a 	bl	8001d40 <HAL_GPIO_WritePin>
  HAL_GPIO_WritePin(LED0_GPIO_Port, LED0_Pin, GPIO_PIN_RESET);
 800102c:	2200      	movs	r2, #0
 800102e:	f44f 7180 	mov.w	r1, #256	; 0x100
 8001032:	4864      	ldr	r0, [pc, #400]	; (80011c4 <main+0x214>)
 8001034:	f000 fe84 	bl	8001d40 <HAL_GPIO_WritePin>
  HAL_GPIO_WritePin(LED1_GPIO_Port, LED1_Pin, GPIO_PIN_RESET);
 8001038:	2200      	movs	r2, #0
 800103a:	2104      	movs	r1, #4
 800103c:	4862      	ldr	r0, [pc, #392]	; (80011c8 <main+0x218>)
 800103e:	f000 fe7f 	bl	8001d40 <HAL_GPIO_WritePin>
  HAL_GPIO_Init(ROTARY_SW_GPIO_Port, &GPIO_InitStruct);
 8001042:	a909      	add	r1, sp, #36	; 0x24
 8001044:	485e      	ldr	r0, [pc, #376]	; (80011c0 <main+0x210>)
  GPIO_InitStruct.Pin = ROTARY_SW_Pin;
 8001046:	9709      	str	r7, [sp, #36]	; 0x24
  GPIO_InitStruct.Mode = GPIO_MODE_INPUT;
 8001048:	950a      	str	r5, [sp, #40]	; 0x28
  GPIO_InitStruct.Pull = GPIO_PULLUP;
 800104a:	940b      	str	r4, [sp, #44]	; 0x2c
  HAL_GPIO_Init(ROTARY_SW_GPIO_Port, &GPIO_InitStruct);
 800104c:	f000 fd86 	bl	8001b5c <HAL_GPIO_Init>
  GPIO_InitStruct.Pin = SPI_CS_Pin;
 8001050:	f44f 5380 	mov.w	r3, #4096	; 0x1000
  HAL_GPIO_Init(SPI_CS_GPIO_Port, &GPIO_InitStruct);
 8001054:	a909      	add	r1, sp, #36	; 0x24
 8001056:	4859      	ldr	r0, [pc, #356]	; (80011bc <main+0x20c>)
  GPIO_InitStruct.Pin = SPI_CS_Pin;
 8001058:	9309      	str	r3, [sp, #36]	; 0x24
  GPIO_InitStruct.Mode = GPIO_MODE_OUTPUT_PP;
 800105a:	940a      	str	r4, [sp, #40]	; 0x28
  GPIO_InitStruct.Pull = GPIO_NOPULL;
 800105c:	950b      	str	r5, [sp, #44]	; 0x2c
  GPIO_InitStruct.Speed = GPIO_SPEED_FREQ_HIGH;
 800105e:	960c      	str	r6, [sp, #48]	; 0x30
  HAL_GPIO_Init(SPI_CS_GPIO_Port, &GPIO_InitStruct);
 8001060:	f000 fd7c 	bl	8001b5c <HAL_GPIO_Init>
  GPIO_InitStruct.Pin = OLED_RST_Pin;
 8001064:	f44f 4380 	mov.w	r3, #16384	; 0x4000
  HAL_GPIO_Init(OLED_RST_GPIO_Port, &GPIO_InitStruct);
 8001068:	a909      	add	r1, sp, #36	; 0x24
 800106a:	4854      	ldr	r0, [pc, #336]	; (80011bc <main+0x20c>)
  GPIO_InitStruct.Pin = OLED_RST_Pin;
 800106c:	9309      	str	r3, [sp, #36]	; 0x24
  GPIO_InitStruct.Mode = GPIO_MODE_OUTPUT_PP;
 800106e:	940a      	str	r4, [sp, #40]	; 0x28
  GPIO_InitStruct.Pull = GPIO_PULLUP;
 8001070:	940b      	str	r4, [sp, #44]	; 0x2c
  GPIO_InitStruct.Speed = GPIO_SPEED_FREQ_HIGH;
 8001072:	960c      	str	r6, [sp, #48]	; 0x30
  HAL_GPIO_Init(OLED_RST_GPIO_Port, &GPIO_InitStruct);
 8001074:	f000 fd72 	bl	8001b5c <HAL_GPIO_Init>
  GPIO_InitStruct.Pin = OLED_DC_Pin;
 8001078:	2340      	movs	r3, #64	; 0x40
  HAL_GPIO_Init(OLED_DC_GPIO_Port, &GPIO_InitStruct);
 800107a:	a909      	add	r1, sp, #36	; 0x24
 800107c:	4850      	ldr	r0, [pc, #320]	; (80011c0 <main+0x210>)
  GPIO_InitStruct.Pin = OLED_DC_Pin;
 800107e:	9309      	str	r3, [sp, #36]	; 0x24
  GPIO_InitStruct.Mode = GPIO_MODE_OUTPUT_PP;
 8001080:	940a      	str	r4, [sp, #40]	; 0x28
  GPIO_InitStruct.Pull = GPIO_NOPULL;
 8001082:	950b      	str	r5, [sp, #44]	; 0x2c
  GPIO_InitStruct.Speed = GPIO_SPEED_FREQ_MEDIUM;
 8001084:	940c      	str	r4, [sp, #48]	; 0x30
  HAL_GPIO_Init(OLED_DC_GPIO_Port, &GPIO_InitStruct);
 8001086:	f000 fd69 	bl	8001b5c <HAL_GPIO_Init>
  HAL_GPIO_Init(LED0_GPIO_Port, &GPIO_InitStruct);
 800108a:	a909      	add	r1, sp, #36	; 0x24
 800108c:	484d      	ldr	r0, [pc, #308]	; (80011c4 <main+0x214>)
  GPIO_InitStruct.Speed = GPIO_SPEED_FREQ_LOW;
 800108e:	f8cd 9030 	str.w	r9, [sp, #48]	; 0x30
  GPIO_InitStruct.Pin = LED0_Pin;
 8001092:	f8cd 8024 	str.w	r8, [sp, #36]	; 0x24
  GPIO_InitStruct.Mode = GPIO_MODE_OUTPUT_PP;
 8001096:	940a      	str	r4, [sp, #40]	; 0x28
  GPIO_InitStruct.Pull = GPIO_NOPULL;
 8001098:	950b      	str	r5, [sp, #44]	; 0x2c
  HAL_GPIO_Init(LED0_GPIO_Port, &GPIO_InitStruct);
 800109a:	f000 fd5f 	bl	8001b5c <HAL_GPIO_Init>
  GPIO_InitStruct.Pin = LED1_Pin;
 800109e:	2304      	movs	r3, #4
  HAL_GPIO_Init(LED1_GPIO_Port, &GPIO_InitStruct);
 80010a0:	a909      	add	r1, sp, #36	; 0x24
 80010a2:	4849      	ldr	r0, [pc, #292]	; (80011c8 <main+0x218>)
  GPIO_InitStruct.Pin = LED1_Pin;
 80010a4:	9309      	str	r3, [sp, #36]	; 0x24
  GPIO_InitStruct.Speed = GPIO_SPEED_FREQ_LOW;
 80010a6:	f8cd 9030 	str.w	r9, [sp, #48]	; 0x30
  GPIO_InitStruct.Mode = GPIO_MODE_OUTPUT_PP;
 80010aa:	940a      	str	r4, [sp, #40]	; 0x28
  GPIO_InitStruct.Pull = GPIO_NOPULL;
 80010ac:	950b      	str	r5, [sp, #44]	; 0x2c
  HAL_GPIO_Init(LED1_GPIO_Port, &GPIO_InitStruct);
 80010ae:	f000 fd55 	bl	8001b5c <HAL_GPIO_Init>
  hspi2.Init.Direction = SPI_DIRECTION_1LINE;
 80010b2:	f44f 7382 	mov.w	r3, #260	; 0x104
 80010b6:	f44f 4e00 	mov.w	lr, #32768	; 0x8000
  hspi2.Instance = SPI2;
 80010ba:	4844      	ldr	r0, [pc, #272]	; (80011cc <main+0x21c>)
  hspi2.Init.Direction = SPI_DIRECTION_1LINE;
 80010bc:	4944      	ldr	r1, [pc, #272]	; (80011d0 <main+0x220>)
  hspi2.Init.CLKPolarity = SPI_POLARITY_HIGH;
 80010be:	f8c0 9010 	str.w	r9, [r0, #16]
  hspi2.Init.Direction = SPI_DIRECTION_1LINE;
 80010c2:	e880 400a 	stmia.w	r0, {r1, r3, lr}
  hspi2.Init.CRCPolynomial = 10;
 80010c6:	f04f 090a 	mov.w	r9, #10
  hspi2.Init.NSS = SPI_NSS_SOFT;
 80010ca:	f44f 7300 	mov.w	r3, #512	; 0x200
  hspi2.Init.DataSize = SPI_DATASIZE_8BIT;
 80010ce:	60c5      	str	r5, [r0, #12]
  hspi2.Init.CLKPhase = SPI_PHASE_2EDGE;
 80010d0:	6144      	str	r4, [r0, #20]
  hspi2.Init.NSS = SPI_NSS_SOFT;
 80010d2:	6183      	str	r3, [r0, #24]
  hspi2.Init.BaudRatePrescaler = SPI_BAUDRATEPRESCALER_4;
 80010d4:	61c7      	str	r7, [r0, #28]
  hspi2.Init.FirstBit = SPI_FIRSTBIT_MSB;
 80010d6:	6205      	str	r5, [r0, #32]
  hspi2.Init.TIMode = SPI_TIMODE_DISABLE;
 80010d8:	6245      	str	r5, [r0, #36]	; 0x24
  hspi2.Init.CRCCalculation = SPI_CRCCALCULATION_DISABLE;
 80010da:	6285      	str	r5, [r0, #40]	; 0x28
  hspi2.Init.CRCPolynomial = 10;
 80010dc:	f8c0 902c 	str.w	r9, [r0, #44]	; 0x2c
  if (HAL_SPI_Init(&hspi2) != HAL_OK)
 80010e0:	f001 fd6c 	bl	8002bbc <HAL_SPI_Init>
 80010e4:	b100      	cbz	r0, 80010e8 <main+0x138>
 80010e6:	e7fe      	b.n	80010e6 <main+0x136>
  htim2.Instance = TIM2;
 80010e8:	f04f 4380 	mov.w	r3, #1073741824	; 0x40000000
 80010ec:	4d39      	ldr	r5, [pc, #228]	; (80011d4 <main+0x224>)
  sConfig.IC1Polarity = TIM_ICPOLARITY_RISING;
 80010ee:	900a      	str	r0, [sp, #40]	; 0x28
  htim2.Init.Prescaler = 3;
 80010f0:	e885 0048 	stmia.w	r5, {r3, r6}
  htim2.Init.Period = 65535;
 80010f4:	f64f 73ff 	movw	r3, #65535	; 0xffff
  htim2.Init.CounterMode = TIM_COUNTERMODE_UP;
 80010f8:	60a8      	str	r0, [r5, #8]
  htim2.Init.ClockDivision = TIM_CLOCKDIVISION_DIV1;
 80010fa:	6128      	str	r0, [r5, #16]
  htim2.Init.AutoReloadPreload = TIM_AUTORELOAD_PRELOAD_DISABLE;
 80010fc:	61a8      	str	r0, [r5, #24]
  sConfig.IC1Prescaler = TIM_ICPSC_DIV1;
 80010fe:	900c      	str	r0, [sp, #48]	; 0x30
  sConfig.IC2Polarity = TIM_ICPOLARITY_RISING;
 8001100:	900e      	str	r0, [sp, #56]	; 0x38
  sConfig.IC2Prescaler = TIM_ICPSC_DIV1;
 8001102:	9010      	str	r0, [sp, #64]	; 0x40
  if (HAL_TIM_Encoder_Init(&htim2, &sConfig) != HAL_OK)
 8001104:	a909      	add	r1, sp, #36	; 0x24
 8001106:	4628      	mov	r0, r5
  htim2.Init.Period = 65535;
 8001108:	60eb      	str	r3, [r5, #12]
  sConfig.EncoderMode = TIM_ENCODERMODE_TI12;
 800110a:	9609      	str	r6, [sp, #36]	; 0x24
  sConfig.IC1Selection = TIM_ICSELECTION_DIRECTTI;
 800110c:	940b      	str	r4, [sp, #44]	; 0x2c
  sConfig.IC1Filter = 10;
 800110e:	f8cd 9034 	str.w	r9, [sp, #52]	; 0x34
  sConfig.IC2Selection = TIM_ICSELECTION_DIRECTTI;
 8001112:	940f      	str	r4, [sp, #60]	; 0x3c
  sConfig.IC2Filter = 10;
 8001114:	f8cd 9044 	str.w	r9, [sp, #68]	; 0x44
  if (HAL_TIM_Encoder_Init(&htim2, &sConfig) != HAL_OK)
 8001118:	f001 fdfa 	bl	8002d10 <HAL_TIM_Encoder_Init>
 800111c:	b100      	cbz	r0, 8001120 <main+0x170>
 800111e:	e7fe      	b.n	800111e <main+0x16e>
  sMasterConfig.MasterOutputTrigger = TIM_TRGO_RESET;
 8001120:	9007      	str	r0, [sp, #28]
  sMasterConfig.MasterSlaveMode = TIM_MASTERSLAVEMODE_DISABLE;
 8001122:	9008      	str	r0, [sp, #32]
  if (HAL_TIMEx_MasterConfigSynchronization(&htim2, &sMasterConfig) != HAL_OK)
 8001124:	a907      	add	r1, sp, #28
 8001126:	4628      	mov	r0, r5
 8001128:	f001 fe3b 	bl	8002da2 <HAL_TIMEx_MasterConfigSynchronization>
 800112c:	b100      	cbz	r0, 8001130 <main+0x180>
 800112e:	e7fe      	b.n	800112e <main+0x17e>
  hrtc.Init.AsynchPrediv = RTC_AUTO_1_SECOND;
 8001130:	f04f 33ff 	mov.w	r3, #4294967295
  hrtc.Instance = RTC;
 8001134:	4d28      	ldr	r5, [pc, #160]	; (80011d8 <main+0x228>)
  hrtc.Init.AsynchPrediv = RTC_AUTO_1_SECOND;
 8001136:	4a29      	ldr	r2, [pc, #164]	; (80011dc <main+0x22c>)
  if (HAL_RTC_Init(&hrtc) != HAL_OK)
 8001138:	4628      	mov	r0, r5
  hrtc.Init.AsynchPrediv = RTC_AUTO_1_SECOND;
 800113a:	e885 000c 	stmia.w	r5, {r2, r3}
  hrtc.Init.OutPut = RTC_OUTPUTSOURCE_ALARM;
 800113e:	f8c5 8008 	str.w	r8, [r5, #8]
  if (HAL_RTC_Init(&hrtc) != HAL_OK)
 8001142:	f001 fbeb 	bl	800291c <HAL_RTC_Init>
 8001146:	b100      	cbz	r0, 800114a <main+0x19a>
 8001148:	e7fe      	b.n	8001148 <main+0x198>
  sTime.Minutes = 0x30;
 800114a:	2330      	movs	r3, #48	; 0x30
  sTime.Hours = 0x18;
 800114c:	f04f 0818 	mov.w	r8, #24
  if (HAL_RTC_SetTime(&hrtc, &sTime, RTC_FORMAT_BCD) != HAL_OK)
 8001150:	4622      	mov	r2, r4
 8001152:	a907      	add	r1, sp, #28
 8001154:	4628      	mov	r0, r5
  sTime.Hours = 0x18;
 8001156:	f88d 801c 	strb.w	r8, [sp, #28]
  sTime.Minutes = 0x30;
 800115a:	f88d 301d 	strb.w	r3, [sp, #29]
  sTime.Seconds = 0x30;
 800115e:	f88d 301e 	strb.w	r3, [sp, #30]
  if (HAL_RTC_SetTime(&hrtc, &sTime, RTC_FORMAT_BCD) != HAL_OK)
 8001162:	f001 fa33 	bl	80025cc <HAL_RTC_SetTime>
 8001166:	b100      	cbz	r0, 800116a <main+0x1ba>
 8001168:	e7fe      	b.n	8001168 <main+0x1b8>
  DateToUpdate.Date = 0x22;
 800116a:	2322      	movs	r3, #34	; 0x22
  if (HAL_RTC_SetDate(&hrtc, &DateToUpdate, RTC_FORMAT_BCD) != HAL_OK)
 800116c:	4628      	mov	r0, r5
 800116e:	4622      	mov	r2, r4
 8001170:	a909      	add	r1, sp, #36	; 0x24
  DateToUpdate.WeekDay = RTC_WEEKDAY_WEDNESDAY;
 8001172:	f88d 6024 	strb.w	r6, [sp, #36]	; 0x24
  DateToUpdate.Month = RTC_MONTH_AUGUST;
 8001176:	f88d 7025 	strb.w	r7, [sp, #37]	; 0x25
  DateToUpdate.Date = 0x22;
 800117a:	f88d 3026 	strb.w	r3, [sp, #38]	; 0x26
  DateToUpdate.Year = 0x18;
 800117e:	f88d 8027 	strb.w	r8, [sp, #39]	; 0x27
  if (HAL_RTC_SetDate(&hrtc, &DateToUpdate, RTC_FORMAT_BCD) != HAL_OK)
 8001182:	f001 fb2b 	bl	80027dc <HAL_RTC_SetDate>
 8001186:	4605      	mov	r5, r0
 8001188:	b100      	cbz	r0, 800118c <main+0x1dc>
 800118a:	e7fe      	b.n	800118a <main+0x1da>
	RotaryEcncorder_Init();
 800118c:	f000 fbbc 	bl	8001908 <RotaryEcncorder_Init>
	RotaryEcncorder_SetRange(0,10);
 8001190:	4649      	mov	r1, r9
 8001192:	4628      	mov	r0, r5
 8001194:	f000 fbd0 	bl	8001938 <RotaryEcncorder_SetRange>
	OLED_Init();
 8001198:	f000 fa76 	bl	8001688 <OLED_Init>
	mainMenuInit();
 800119c:	f003 fbca 	bl	8004934 <mainMenuInit>
	xTaskCreate((TaskFunction_t  )(START_task),         	//Task Function
 80011a0:	4b0f      	ldr	r3, [pc, #60]	; (80011e0 <main+0x230>)
 80011a2:	2280      	movs	r2, #128	; 0x80
 80011a4:	9301      	str	r3, [sp, #4]
 80011a6:	490f      	ldr	r1, [pc, #60]	; (80011e4 <main+0x234>)
 80011a8:	462b      	mov	r3, r5
 80011aa:	9400      	str	r4, [sp, #0]
 80011ac:	480e      	ldr	r0, [pc, #56]	; (80011e8 <main+0x238>)
 80011ae:	f002 fcd7 	bl	8003b60 <xTaskCreate>
	vTaskStartScheduler();
 80011b2:	f002 fe21 	bl	8003df8 <vTaskStartScheduler>
 80011b6:	e7fe      	b.n	80011b6 <main+0x206>
 80011b8:	40021000 	.word	0x40021000
 80011bc:	40010c00 	.word	0x40010c00
 80011c0:	40011000 	.word	0x40011000
 80011c4:	40010800 	.word	0x40010800
 80011c8:	40011400 	.word	0x40011400
 80011cc:	200044fc 	.word	0x200044fc
 80011d0:	40003800 	.word	0x40003800
 80011d4:	20004574 	.word	0x20004574
 80011d8:	20004560 	.word	0x20004560
 80011dc:	40002800 	.word	0x40002800
 80011e0:	200045b4 	.word	0x200045b4
 80011e4:	080080a0 	.word	0x080080a0
 80011e8:	08000e71 	.word	0x08000e71

080011ec <HAL_MspInit>:
{
  /* USER CODE BEGIN MspInit 0 */

  /* USER CODE END MspInit 0 */

  __HAL_RCC_AFIO_CLK_ENABLE();
 80011ec:	4b25      	ldr	r3, [pc, #148]	; (8001284 <HAL_MspInit+0x98>)
{
 80011ee:	b507      	push	{r0, r1, r2, lr}
  __HAL_RCC_AFIO_CLK_ENABLE();
 80011f0:	699a      	ldr	r2, [r3, #24]
  __HAL_RCC_PWR_CLK_ENABLE();

  HAL_NVIC_SetPriorityGrouping(NVIC_PRIORITYGROUP_4);
 80011f2:	2003      	movs	r0, #3
  __HAL_RCC_AFIO_CLK_ENABLE();
 80011f4:	f042 0201 	orr.w	r2, r2, #1
 80011f8:	619a      	str	r2, [r3, #24]
 80011fa:	699a      	ldr	r2, [r3, #24]
 80011fc:	f002 0201 	and.w	r2, r2, #1
 8001200:	9200      	str	r2, [sp, #0]
 8001202:	9a00      	ldr	r2, [sp, #0]
  __HAL_RCC_PWR_CLK_ENABLE();
 8001204:	69da      	ldr	r2, [r3, #28]
 8001206:	f042 5280 	orr.w	r2, r2, #268435456	; 0x10000000
 800120a:	61da      	str	r2, [r3, #28]
 800120c:	69db      	ldr	r3, [r3, #28]
 800120e:	f003 5380 	and.w	r3, r3, #268435456	; 0x10000000
 8001212:	9301      	str	r3, [sp, #4]
 8001214:	9b01      	ldr	r3, [sp, #4]
  HAL_NVIC_SetPriorityGrouping(NVIC_PRIORITYGROUP_4);
 8001216:	f000 fc33 	bl	8001a80 <HAL_NVIC_SetPriorityGrouping>

  /* System interrupt init*/
  /* MemoryManagement_IRQn interrupt configuration */
  HAL_NVIC_SetPriority(MemoryManagement_IRQn, 0, 0);
 800121a:	2200      	movs	r2, #0
 800121c:	f06f 000b 	mvn.w	r0, #11
 8001220:	4611      	mov	r1, r2
 8001222:	f000 fc3f 	bl	8001aa4 <HAL_NVIC_SetPriority>
  /* BusFault_IRQn interrupt configuration */
  HAL_NVIC_SetPriority(BusFault_IRQn, 0, 0);
 8001226:	2200      	movs	r2, #0
 8001228:	f06f 000a 	mvn.w	r0, #10
 800122c:	4611      	mov	r1, r2
 800122e:	f000 fc39 	bl	8001aa4 <HAL_NVIC_SetPriority>
  /* UsageFault_IRQn interrupt configuration */
  HAL_NVIC_SetPriority(UsageFault_IRQn, 0, 0);
 8001232:	2200      	movs	r2, #0
 8001234:	f06f 0009 	mvn.w	r0, #9
 8001238:	4611      	mov	r1, r2
 800123a:	f000 fc33 	bl	8001aa4 <HAL_NVIC_SetPriority>
  /* SVCall_IRQn interrupt configuration */
  HAL_NVIC_SetPriority(SVCall_IRQn, 0, 0);
 800123e:	2200      	movs	r2, #0
 8001240:	f06f 0004 	mvn.w	r0, #4
 8001244:	4611      	mov	r1, r2
 8001246:	f000 fc2d 	bl	8001aa4 <HAL_NVIC_SetPriority>
  /* DebugMonitor_IRQn interrupt configuration */
  HAL_NVIC_SetPriority(DebugMonitor_IRQn, 0, 0);
 800124a:	2200      	movs	r2, #0
 800124c:	f06f 0003 	mvn.w	r0, #3
 8001250:	4611      	mov	r1, r2
 8001252:	f000 fc27 	bl	8001aa4 <HAL_NVIC_SetPriority>
  /* PendSV_IRQn interrupt configuration */
  HAL_NVIC_SetPriority(PendSV_IRQn, 0, 0);
 8001256:	2200      	movs	r2, #0
 8001258:	f06f 0001 	mvn.w	r0, #1
 800125c:	4611      	mov	r1, r2
 800125e:	f000 fc21 	bl	8001aa4 <HAL_NVIC_SetPriority>
  /* SysTick_IRQn interrupt configuration */
  HAL_NVIC_SetPriority(SysTick_IRQn, 0, 0);
 8001262:	2200      	movs	r2, #0
 8001264:	f04f 30ff 	mov.w	r0, #4294967295
 8001268:	4611      	mov	r1, r2
 800126a:	f000 fc1b 	bl	8001aa4 <HAL_NVIC_SetPriority>

    /**NOJTAG: JTAG-DP Disabled and SW-DP Enabled 
    */
  __HAL_AFIO_REMAP_SWJ_NOJTAG();
 800126e:	4a06      	ldr	r2, [pc, #24]	; (8001288 <HAL_MspInit+0x9c>)
 8001270:	6853      	ldr	r3, [r2, #4]
 8001272:	f023 63e0 	bic.w	r3, r3, #117440512	; 0x7000000
 8001276:	f043 7300 	orr.w	r3, r3, #33554432	; 0x2000000
 800127a:	6053      	str	r3, [r2, #4]

  /* USER CODE BEGIN MspInit 1 */

  /* USER CODE END MspInit 1 */
}
 800127c:	b003      	add	sp, #12
 800127e:	f85d fb04 	ldr.w	pc, [sp], #4
 8001282:	bf00      	nop
 8001284:	40021000 	.word	0x40021000
 8001288:	40010000 	.word	0x40010000

0800128c <HAL_RTC_MspInit>:

void HAL_RTC_MspInit(RTC_HandleTypeDef* hrtc)
{
 800128c:	b507      	push	{r0, r1, r2, lr}

  if(hrtc->Instance==RTC)
 800128e:	4b0b      	ldr	r3, [pc, #44]	; (80012bc <HAL_RTC_MspInit+0x30>)
 8001290:	6802      	ldr	r2, [r0, #0]
 8001292:	429a      	cmp	r2, r3
 8001294:	d10e      	bne.n	80012b4 <HAL_RTC_MspInit+0x28>
  {
  /* USER CODE BEGIN RTC_MspInit 0 */

  /* USER CODE END RTC_MspInit 0 */
    HAL_PWR_EnableBkUpAccess();
 8001296:	f000 fd5d 	bl	8001d54 <HAL_PWR_EnableBkUpAccess>
    /* Enable BKP CLK enable for backup registers */
    __HAL_RCC_BKP_CLK_ENABLE();
 800129a:	4b09      	ldr	r3, [pc, #36]	; (80012c0 <HAL_RTC_MspInit+0x34>)
 800129c:	69da      	ldr	r2, [r3, #28]
 800129e:	f042 6200 	orr.w	r2, r2, #134217728	; 0x8000000
 80012a2:	61da      	str	r2, [r3, #28]
    /* Peripheral clock enable */
    __HAL_RCC_RTC_ENABLE();
 80012a4:	2201      	movs	r2, #1
    __HAL_RCC_BKP_CLK_ENABLE();
 80012a6:	69db      	ldr	r3, [r3, #28]
 80012a8:	f003 6300 	and.w	r3, r3, #134217728	; 0x8000000
 80012ac:	9301      	str	r3, [sp, #4]
 80012ae:	9b01      	ldr	r3, [sp, #4]
    __HAL_RCC_RTC_ENABLE();
 80012b0:	4b04      	ldr	r3, [pc, #16]	; (80012c4 <HAL_RTC_MspInit+0x38>)
 80012b2:	601a      	str	r2, [r3, #0]
  /* USER CODE BEGIN RTC_MspInit 1 */

  /* USER CODE END RTC_MspInit 1 */
  }

}
 80012b4:	b003      	add	sp, #12
 80012b6:	f85d fb04 	ldr.w	pc, [sp], #4
 80012ba:	bf00      	nop
 80012bc:	40002800 	.word	0x40002800
 80012c0:	40021000 	.word	0x40021000
 80012c4:	4242043c 	.word	0x4242043c

080012c8 <HAL_SPI_MspInit>:
  }

}

void HAL_SPI_MspInit(SPI_HandleTypeDef* hspi)
{
 80012c8:	b57f      	push	{r0, r1, r2, r3, r4, r5, r6, lr}

  GPIO_InitTypeDef GPIO_InitStruct;
  if(hspi->Instance==SPI2)
 80012ca:	6802      	ldr	r2, [r0, #0]
 80012cc:	4b0d      	ldr	r3, [pc, #52]	; (8001304 <HAL_SPI_MspInit+0x3c>)
 80012ce:	429a      	cmp	r2, r3
 80012d0:	d115      	bne.n	80012fe <HAL_SPI_MspInit+0x36>
  {
  /* USER CODE BEGIN SPI2_MspInit 0 */

  /* USER CODE END SPI2_MspInit 0 */
    /* Peripheral clock enable */
    __HAL_RCC_SPI2_CLK_ENABLE();
 80012d2:	f503 33ec 	add.w	r3, r3, #120832	; 0x1d800
 80012d6:	69da      	ldr	r2, [r3, #28]
    PB15     ------> SPI2_MOSI 
    */
    GPIO_InitStruct.Pin = GPIO_PIN_13|GPIO_PIN_15;
    GPIO_InitStruct.Mode = GPIO_MODE_AF_PP;
    GPIO_InitStruct.Speed = GPIO_SPEED_FREQ_HIGH;
    HAL_GPIO_Init(GPIOB, &GPIO_InitStruct);
 80012d8:	a902      	add	r1, sp, #8
    __HAL_RCC_SPI2_CLK_ENABLE();
 80012da:	f442 4280 	orr.w	r2, r2, #16384	; 0x4000
 80012de:	61da      	str	r2, [r3, #28]
 80012e0:	69db      	ldr	r3, [r3, #28]
    HAL_GPIO_Init(GPIOB, &GPIO_InitStruct);
 80012e2:	4809      	ldr	r0, [pc, #36]	; (8001308 <HAL_SPI_MspInit+0x40>)
    __HAL_RCC_SPI2_CLK_ENABLE();
 80012e4:	f403 4380 	and.w	r3, r3, #16384	; 0x4000
 80012e8:	9301      	str	r3, [sp, #4]
 80012ea:	9b01      	ldr	r3, [sp, #4]
    GPIO_InitStruct.Pin = GPIO_PIN_13|GPIO_PIN_15;
 80012ec:	f44f 4320 	mov.w	r3, #40960	; 0xa000
 80012f0:	9302      	str	r3, [sp, #8]
    GPIO_InitStruct.Mode = GPIO_MODE_AF_PP;
 80012f2:	2302      	movs	r3, #2
 80012f4:	9303      	str	r3, [sp, #12]
    GPIO_InitStruct.Speed = GPIO_SPEED_FREQ_HIGH;
 80012f6:	2303      	movs	r3, #3
 80012f8:	9305      	str	r3, [sp, #20]
    HAL_GPIO_Init(GPIOB, &GPIO_InitStruct);
 80012fa:	f000 fc2f 	bl	8001b5c <HAL_GPIO_Init>
  /* USER CODE BEGIN SPI2_MspInit 1 */

  /* USER CODE END SPI2_MspInit 1 */
  }

}
 80012fe:	b007      	add	sp, #28
 8001300:	f85d fb04 	ldr.w	pc, [sp], #4
 8001304:	40003800 	.word	0x40003800
 8001308:	40010c00 	.word	0x40010c00

0800130c <HAL_TIM_Encoder_MspInit>:
  }

}

void HAL_TIM_Encoder_MspInit(TIM_HandleTypeDef* htim_encoder)
{
 800130c:	b57f      	push	{r0, r1, r2, r3, r4, r5, r6, lr}

  GPIO_InitTypeDef GPIO_InitStruct;
  if(htim_encoder->Instance==TIM2)
 800130e:	6803      	ldr	r3, [r0, #0]
 8001310:	f1b3 4f80 	cmp.w	r3, #1073741824	; 0x40000000
 8001314:	d114      	bne.n	8001340 <HAL_TIM_Encoder_MspInit+0x34>
  {
  /* USER CODE BEGIN TIM2_MspInit 0 */

  /* USER CODE END TIM2_MspInit 0 */
    /* Peripheral clock enable */
    __HAL_RCC_TIM2_CLK_ENABLE();
 8001316:	f503 3304 	add.w	r3, r3, #135168	; 0x21000
 800131a:	69da      	ldr	r2, [r3, #28]
    PA1     ------> TIM2_CH2 
    */
    GPIO_InitStruct.Pin = ROTARY_A_Pin|ROTARY_B_Pin;
    GPIO_InitStruct.Mode = GPIO_MODE_INPUT;
    GPIO_InitStruct.Pull = GPIO_PULLUP;
    HAL_GPIO_Init(GPIOA, &GPIO_InitStruct);
 800131c:	a902      	add	r1, sp, #8
    __HAL_RCC_TIM2_CLK_ENABLE();
 800131e:	f042 0201 	orr.w	r2, r2, #1
 8001322:	61da      	str	r2, [r3, #28]
 8001324:	69db      	ldr	r3, [r3, #28]
    HAL_GPIO_Init(GPIOA, &GPIO_InitStruct);
 8001326:	4808      	ldr	r0, [pc, #32]	; (8001348 <HAL_TIM_Encoder_MspInit+0x3c>)
    __HAL_RCC_TIM2_CLK_ENABLE();
 8001328:	f003 0301 	and.w	r3, r3, #1
 800132c:	9301      	str	r3, [sp, #4]
 800132e:	9b01      	ldr	r3, [sp, #4]
    GPIO_InitStruct.Pin = ROTARY_A_Pin|ROTARY_B_Pin;
 8001330:	2303      	movs	r3, #3
 8001332:	9302      	str	r3, [sp, #8]
    GPIO_InitStruct.Mode = GPIO_MODE_INPUT;
 8001334:	2300      	movs	r3, #0
 8001336:	9303      	str	r3, [sp, #12]
    GPIO_InitStruct.Pull = GPIO_PULLUP;
 8001338:	2301      	movs	r3, #1
 800133a:	9304      	str	r3, [sp, #16]
    HAL_GPIO_Init(GPIOA, &GPIO_InitStruct);
 800133c:	f000 fc0e 	bl	8001b5c <HAL_GPIO_Init>
  /* USER CODE BEGIN TIM2_MspInit 1 */

  /* USER CODE END TIM2_MspInit 1 */
  }

}
 8001340:	b007      	add	sp, #28
 8001342:	f85d fb04 	ldr.w	pc, [sp], #4
 8001346:	bf00      	nop
 8001348:	40010800 	.word	0x40010800

0800134c <NMI_Handler>:
 800134c:	4770      	bx	lr

0800134e <HardFault_Handler>:

/**
* @brief This function handles Hard fault interrupt.
*/
void HardFault_Handler(void)
{
 800134e:	e7fe      	b.n	800134e <HardFault_Handler>

08001350 <MemManage_Handler>:

/**
* @brief This function handles Memory management fault.
*/
void MemManage_Handler(void)
{
 8001350:	e7fe      	b.n	8001350 <MemManage_Handler>

08001352 <BusFault_Handler>:

/**
* @brief This function handles Prefetch fault, memory access fault.
*/
void BusFault_Handler(void)
{
 8001352:	e7fe      	b.n	8001352 <BusFault_Handler>

08001354 <UsageFault_Handler>:

/**
* @brief This function handles Undefined instruction or illegal state.
*/
void UsageFault_Handler(void)
{
 8001354:	e7fe      	b.n	8001354 <UsageFault_Handler>

08001356 <DebugMon_Handler>:

/**
* @brief This function handles Debug monitor.
*/
void DebugMon_Handler(void)
{
 8001356:	4770      	bx	lr

08001358 <SysTick_Handler>:

/**
* @brief This function handles System tick timer.
*/
void SysTick_Handler(void)
{
 8001358:	b508      	push	{r3, lr}
  /* USER CODE BEGIN SysTick_IRQn 0 */
	if (xTaskGetSchedulerState() != taskSCHEDULER_NOT_STARTED) {
 800135a:	f003 f8a9 	bl	80044b0 <xTaskGetSchedulerState>
 800135e:	2801      	cmp	r0, #1
 8001360:	d001      	beq.n	8001366 <SysTick_Handler+0xe>
		xPortSysTickHandler();
 8001362:	f001 ff07 	bl	8003174 <xPortSysTickHandler>
	}
  /* USER CODE END SysTick_IRQn 0 */
  HAL_IncTick();
 8001366:	f000 fb67 	bl	8001a38 <HAL_IncTick>
  HAL_SYSTICK_IRQHandler();
  /* USER CODE BEGIN SysTick_IRQn 1 */

  /* USER CODE END SysTick_IRQn 1 */
}
 800136a:	e8bd 4008 	ldmia.w	sp!, {r3, lr}
  HAL_SYSTICK_IRQHandler();
 800136e:	f000 bbf0 	b.w	8001b52 <HAL_SYSTICK_IRQHandler>
	...

08001374 <SystemInit>:
  */
void SystemInit (void)
{
  /* Reset the RCC clock configuration to the default reset state(for debug purpose) */
  /* Set HSION bit */
  RCC->CR |= 0x00000001U;
 8001374:	4b0f      	ldr	r3, [pc, #60]	; (80013b4 <SystemInit+0x40>)
 8001376:	681a      	ldr	r2, [r3, #0]
 8001378:	f042 0201 	orr.w	r2, r2, #1
 800137c:	601a      	str	r2, [r3, #0]

  /* Reset SW, HPRE, PPRE1, PPRE2, ADCPRE and MCO bits */
#if !defined(STM32F105xC) && !defined(STM32F107xC)
  RCC->CFGR &= 0xF8FF0000U;
 800137e:	6859      	ldr	r1, [r3, #4]
 8001380:	4a0d      	ldr	r2, [pc, #52]	; (80013b8 <SystemInit+0x44>)
 8001382:	400a      	ands	r2, r1
 8001384:	605a      	str	r2, [r3, #4]
#else
  RCC->CFGR &= 0xF0FF0000U;
#endif /* STM32F105xC */   
  
  /* Reset HSEON, CSSON and PLLON bits */
  RCC->CR &= 0xFEF6FFFFU;
 8001386:	681a      	ldr	r2, [r3, #0]
 8001388:	f022 7284 	bic.w	r2, r2, #17301504	; 0x1080000
 800138c:	f422 3280 	bic.w	r2, r2, #65536	; 0x10000
 8001390:	601a      	str	r2, [r3, #0]

  /* Reset HSEBYP bit */
  RCC->CR &= 0xFFFBFFFFU;
 8001392:	681a      	ldr	r2, [r3, #0]
 8001394:	f422 2280 	bic.w	r2, r2, #262144	; 0x40000
 8001398:	601a      	str	r2, [r3, #0]

  /* Reset PLLSRC, PLLXTPRE, PLLMUL and USBPRE/OTGFSPRE bits */
  RCC->CFGR &= 0xFF80FFFFU;
 800139a:	685a      	ldr	r2, [r3, #4]
 800139c:	f422 02fe 	bic.w	r2, r2, #8323072	; 0x7f0000
 80013a0:	605a      	str	r2, [r3, #4]

  /* Reset CFGR2 register */
  RCC->CFGR2 = 0x00000000U;      
#else
  /* Disable all interrupts and clear pending bits  */
  RCC->CIR = 0x009F0000U;
 80013a2:	f44f 021f 	mov.w	r2, #10420224	; 0x9f0000
 80013a6:	609a      	str	r2, [r3, #8]
#endif 

#ifdef VECT_TAB_SRAM
  SCB->VTOR = SRAM_BASE | VECT_TAB_OFFSET; /* Vector Table Relocation in Internal SRAM. */
#else
  SCB->VTOR = FLASH_BASE | VECT_TAB_OFFSET; /* Vector Table Relocation in Internal FLASH. */
 80013a8:	f04f 6200 	mov.w	r2, #134217728	; 0x8000000
 80013ac:	4b03      	ldr	r3, [pc, #12]	; (80013bc <SystemInit+0x48>)
 80013ae:	609a      	str	r2, [r3, #8]
 80013b0:	4770      	bx	lr
 80013b2:	bf00      	nop
 80013b4:	40021000 	.word	0x40021000
 80013b8:	f8ff0000 	.word	0xf8ff0000
 80013bc:	e000ed00 	.word	0xe000ed00

080013c0 <write>:
#define Max_Column	0x3F			// 256/4-1
#define Max_Row		0x3F			// 64-1
#define	Brightness	0x0F

uint16_t gram[64][64] = { 0 }; // row : 64 col: 64 *4 = 256   u16 = [p1,p2,p3,p4]
static void write(uint8_t bytes, uint8_t is_data) {
 80013c0:	b513      	push	{r0, r1, r4, lr}
 80013c2:	460c      	mov	r4, r1
	uint8_t tmp = bytes;
 80013c4:	f88d 0007 	strb.w	r0, [sp, #7]
	HAL_GPIO_WritePin(SPI_CS_GPIO_Port, SPI_CS_Pin, RESET);
 80013c8:	2200      	movs	r2, #0
 80013ca:	f44f 5180 	mov.w	r1, #4096	; 0x1000
 80013ce:	480d      	ldr	r0, [pc, #52]	; (8001404 <write+0x44>)
 80013d0:	f000 fcb6 	bl	8001d40 <HAL_GPIO_WritePin>
	if (is_data) {
 80013d4:	b1a4      	cbz	r4, 8001400 <write+0x40>
		HAL_GPIO_WritePin(OLED_DC_GPIO_Port, OLED_DC_Pin, SET);
 80013d6:	2201      	movs	r2, #1
	}
	/* We are sending commands */
	else {
		HAL_GPIO_WritePin(OLED_DC_GPIO_Port, OLED_DC_Pin, RESET);
 80013d8:	2140      	movs	r1, #64	; 0x40
 80013da:	480b      	ldr	r0, [pc, #44]	; (8001408 <write+0x48>)
 80013dc:	f000 fcb0 	bl	8001d40 <HAL_GPIO_WritePin>
	}
	HAL_SPI_Transmit(&hspi2, &tmp, 1, 1000);
 80013e0:	f44f 737a 	mov.w	r3, #1000	; 0x3e8
 80013e4:	f10d 0107 	add.w	r1, sp, #7
 80013e8:	2201      	movs	r2, #1
 80013ea:	4808      	ldr	r0, [pc, #32]	; (800140c <write+0x4c>)
 80013ec:	f001 fb3d 	bl	8002a6a <HAL_SPI_Transmit>
	HAL_GPIO_WritePin(SPI_CS_GPIO_Port, SPI_CS_Pin, SET);
 80013f0:	2201      	movs	r2, #1
 80013f2:	f44f 5180 	mov.w	r1, #4096	; 0x1000
 80013f6:	4803      	ldr	r0, [pc, #12]	; (8001404 <write+0x44>)
 80013f8:	f000 fca2 	bl	8001d40 <HAL_GPIO_WritePin>
}
 80013fc:	b002      	add	sp, #8
 80013fe:	bd10      	pop	{r4, pc}
		HAL_GPIO_WritePin(OLED_DC_GPIO_Port, OLED_DC_Pin, RESET);
 8001400:	4622      	mov	r2, r4
 8001402:	e7e9      	b.n	80013d8 <write+0x18>
 8001404:	40010c00 	.word	0x40010c00
 8001408:	40011000 	.word	0x40011000
 800140c:	200044fc 	.word	0x200044fc

08001410 <OLED_DrawPoint>:
//   y: OLEDy
//	 mode: 0x00() 0x01()
//-=-=-=-=-=-=-=-=-=-=-=-=-=-=-=-=-=-=-=-=-=-=-=-=-=-=-=-=-=-=-=-=-=-
void OLED_DrawPoint(uint8_t x, uint8_t y, uint8_t mode) {

	if (x > 255 || y > 63)
 8001410:	293f      	cmp	r1, #63	; 0x3f
void OLED_DrawPoint(uint8_t x, uint8_t y, uint8_t mode) {
 8001412:	b510      	push	{r4, lr}
	if (x > 255 || y > 63)
 8001414:	d811      	bhi.n	800143a <OLED_DrawPoint+0x2a>
		return;
	uint16_t point = 0x000f;
	uint8_t group = x >> 2;
 8001416:	0884      	lsrs	r4, r0, #2
	uint8_t group_bit = 3 - (x % 4);
 8001418:	43c0      	mvns	r0, r0
	point = point << (group_bit * 4);
 800141a:	f000 0303 	and.w	r3, r0, #3
 800141e:	0098      	lsls	r0, r3, #2
 8001420:	230f      	movs	r3, #15
 8001422:	0189      	lsls	r1, r1, #6
 8001424:	4083      	lsls	r3, r0
 8001426:	b29b      	uxth	r3, r3
 8001428:	4806      	ldr	r0, [pc, #24]	; (8001444 <OLED_DrawPoint+0x34>)

	if (!mode) {
		point = ~point;
		gram[y][group] &= point;
 800142a:	4421      	add	r1, r4
	if (!mode) {
 800142c:	b932      	cbnz	r2, 800143c <OLED_DrawPoint+0x2c>
		gram[y][group] &= point;
 800142e:	f830 2011 	ldrh.w	r2, [r0, r1, lsl #1]
 8001432:	ea22 0303 	bic.w	r3, r2, r3
	} else {
		gram[y][group] |= point;
 8001436:	f820 3011 	strh.w	r3, [r0, r1, lsl #1]
 800143a:	bd10      	pop	{r4, pc}
 800143c:	f830 2011 	ldrh.w	r2, [r0, r1, lsl #1]
 8001440:	4313      	orrs	r3, r2
 8001442:	e7f8      	b.n	8001436 <OLED_DrawPoint+0x26>
 8001444:	20000748 	.word	0x20000748

08001448 <OLED_FillBlock>:
void OLED_FillBlock(unsigned char a, unsigned char b,unsigned char c, unsigned char d,unsigned char Data){
 8001448:	e92d 47f0 	stmdb	sp!, {r4, r5, r6, r7, r8, r9, sl, lr}
 800144c:	4607      	mov	r7, r0
 800144e:	4688      	mov	r8, r1
 8001450:	461e      	mov	r6, r3
	for(int y=c;y<d;y++)
 8001452:	4614      	mov	r4, r2
void OLED_FillBlock(unsigned char a, unsigned char b,unsigned char c, unsigned char d,unsigned char Data){
 8001454:	f89d 9020 	ldrb.w	r9, [sp, #32]
	for(int y=c;y<d;y++)
 8001458:	42b4      	cmp	r4, r6
 800145a:	db01      	blt.n	8001460 <OLED_FillBlock+0x18>
}
 800145c:	e8bd 87f0 	ldmia.w	sp!, {r4, r5, r6, r7, r8, r9, sl, pc}
		for(int x=a;x<b;x++)
 8001460:	463d      	mov	r5, r7
			OLED_DrawPoint(x,y,Data);
 8001462:	fa5f fa84 	uxtb.w	sl, r4
		for(int x=a;x<b;x++)
 8001466:	4545      	cmp	r5, r8
 8001468:	db01      	blt.n	800146e <OLED_FillBlock+0x26>
	for(int y=c;y<d;y++)
 800146a:	3401      	adds	r4, #1
 800146c:	e7f4      	b.n	8001458 <OLED_FillBlock+0x10>
			OLED_DrawPoint(x,y,Data);
 800146e:	b2e8      	uxtb	r0, r5
 8001470:	464a      	mov	r2, r9
 8001472:	4651      	mov	r1, sl
 8001474:	f7ff ffcc 	bl	8001410 <OLED_DrawPoint>
		for(int x=a;x<b;x++)
 8001478:	3501      	adds	r5, #1
 800147a:	e7f4      	b.n	8001466 <OLED_FillBlock+0x1e>

0800147c <OLED_FillRam>:
void OLED_FillRam(unsigned char Data) {
 800147c:	b507      	push	{r0, r1, r2, lr}
	OLED_FillBlock(0x00, Max_Column, 0x00, Max_Row,Data);
 800147e:	233f      	movs	r3, #63	; 0x3f
 8001480:	2200      	movs	r2, #0
 8001482:	9000      	str	r0, [sp, #0]
 8001484:	4619      	mov	r1, r3
 8001486:	4610      	mov	r0, r2
 8001488:	f7ff ffde 	bl	8001448 <OLED_FillBlock>
}
 800148c:	b003      	add	sp, #12
 800148e:	f85d fb04 	ldr.w	pc, [sp], #4
	...

08001494 <OLED_RefreshGram>:
	point = (gram[y][group] & (point << (group_bit * 4))) >> (group_bit * 4);
	point = point & 0x00ff;
	return point;

}
void OLED_RefreshGram() {
 8001494:	b5f8      	push	{r3, r4, r5, r6, r7, lr}
	Write_Command(0x15);			// Set Column Address
 8001496:	2100      	movs	r1, #0
 8001498:	2015      	movs	r0, #21
 800149a:	f7ff ff91 	bl	80013c0 <write>
	Write_Data(a);				//   Default => 0x00
 800149e:	2101      	movs	r1, #1
 80014a0:	201c      	movs	r0, #28
 80014a2:	f7ff ff8d 	bl	80013c0 <write>
	Write_Data(b);				//   Default => 0x77
 80014a6:	2101      	movs	r1, #1
 80014a8:	205b      	movs	r0, #91	; 0x5b
 80014aa:	f7ff ff89 	bl	80013c0 <write>
	Write_Command(0x75);			// Set Row Address
 80014ae:	2100      	movs	r1, #0
 80014b0:	2075      	movs	r0, #117	; 0x75
 80014b2:	f7ff ff85 	bl	80013c0 <write>
	Write_Data(a);				//   Default => 0x00
 80014b6:	2101      	movs	r1, #1
 80014b8:	2000      	movs	r0, #0
 80014ba:	f7ff ff81 	bl	80013c0 <write>
	Write_Data(b);				//   Default => 0x7F
 80014be:	2101      	movs	r1, #1
 80014c0:	203f      	movs	r0, #63	; 0x3f
 80014c2:	f7ff ff7d 	bl	80013c0 <write>
	Write_Command(0x5C);			// Enable MCU to Write into RAM
 80014c6:	2100      	movs	r1, #0
 80014c8:	205c      	movs	r0, #92	; 0x5c
 80014ca:	f7ff ff79 	bl	80013c0 <write>
 80014ce:	2500      	movs	r5, #0
 80014d0:	4f0a      	ldr	r7, [pc, #40]	; (80014fc <OLED_RefreshGram+0x68>)
void OLED_RefreshGram() {
 80014d2:	2400      	movs	r4, #0
 80014d4:	197e      	adds	r6, r7, r5
	Set_Column_Address(Shift + a, Shift + b);
	Set_Row_Address(c, d);
	Set_Write_RAM();
	for (int y = 0; y < (d - c+1); y++) {
		for (int x = 0; x < (b - a+1); x++) {
			Write_Data((gram[y][x] & 0xff00) >> 8); //draw 3,4 point
 80014d6:	f836 0014 	ldrh.w	r0, [r6, r4, lsl #1]
 80014da:	2101      	movs	r1, #1
 80014dc:	0a00      	lsrs	r0, r0, #8
 80014de:	f7ff ff6f 	bl	80013c0 <write>
			Write_Data(gram[y][x] & 0x00ff); 		//draw 1,2 point
 80014e2:	f816 0014 	ldrb.w	r0, [r6, r4, lsl #1]
 80014e6:	2101      	movs	r1, #1
		for (int x = 0; x < (b - a+1); x++) {
 80014e8:	3401      	adds	r4, #1
			Write_Data(gram[y][x] & 0x00ff); 		//draw 1,2 point
 80014ea:	f7ff ff69 	bl	80013c0 <write>
		for (int x = 0; x < (b - a+1); x++) {
 80014ee:	2c40      	cmp	r4, #64	; 0x40
 80014f0:	d1f1      	bne.n	80014d6 <OLED_RefreshGram+0x42>
 80014f2:	3580      	adds	r5, #128	; 0x80
	for (int y = 0; y < (d - c+1); y++) {
 80014f4:	f5b5 5f00 	cmp.w	r5, #8192	; 0x2000
 80014f8:	d1eb      	bne.n	80014d2 <OLED_RefreshGram+0x3e>
 80014fa:	bdf8      	pop	{r3, r4, r5, r6, r7, pc}
 80014fc:	20000748 	.word	0x20000748

08001500 <OLED_Clear>:
{
 8001500:	b508      	push	{r3, lr}
	OLED_FillRam(0x00);
 8001502:	2000      	movs	r0, #0
 8001504:	f7ff ffba 	bl	800147c <OLED_FillRam>
}
 8001508:	e8bd 4008 	ldmia.w	sp!, {r3, lr}
	OLED_RefreshGram();
 800150c:	f7ff bfc2 	b.w	8001494 <OLED_RefreshGram>

08001510 <OLED_ShowChar>:
//   chr: 
//   f_w:
//   f_h:
//	 mode: 0x00() 0x01()
//-=-=-=-=-=-=-=-=-=-=-=-=-=-=-=-=-=-=-=-=-=-=-=-=-=-=-=-=-=-=-=-=-=-
void OLED_ShowChar(uint8_t x, uint8_t y, uint8_t chr, uint8_t f_w, uint8_t f_h,uint8_t mode){
 8001510:	e92d 4ff0 	stmdb	sp!, {r4, r5, r6, r7, r8, r9, sl, fp, lr}
 8001514:	b085      	sub	sp, #20
 8001516:	f89d 6038 	ldrb.w	r6, [sp, #56]	; 0x38
 800151a:	9300      	str	r3, [sp, #0]
	uint8_t temp,t,t1;
	uint8_t y0=y;
	uint8_t csize=(f_h/8+((f_h%8)?1:0))*f_w;//
 800151c:	f016 0307 	ands.w	r3, r6, #7
 8001520:	bf18      	it	ne
 8001522:	2301      	movne	r3, #1
void OLED_ShowChar(uint8_t x, uint8_t y, uint8_t chr, uint8_t f_w, uint8_t f_h,uint8_t mode){
 8001524:	4688      	mov	r8, r1
	uint8_t csize=(f_h/8+((f_h%8)?1:0))*f_w;//
 8001526:	9900      	ldr	r1, [sp, #0]
 8001528:	eb03 03d6 	add.w	r3, r3, r6, lsr #3
 800152c:	434b      	muls	r3, r1
 800152e:	210c      	movs	r1, #12
 8001530:	b2db      	uxtb	r3, r3
 8001532:	9301      	str	r3, [sp, #4]
	chr=chr-' ';//
 8001534:	3a20      	subs	r2, #32
 8001536:	4b22      	ldr	r3, [pc, #136]	; (80015c0 <OLED_ShowChar+0xb0>)
 8001538:	b2d2      	uxtb	r2, r2
 800153a:	fb01 3302 	mla	r3, r1, r2, r3
 800153e:	2106      	movs	r1, #6
void OLED_ShowChar(uint8_t x, uint8_t y, uint8_t chr, uint8_t f_w, uint8_t f_h,uint8_t mode){
 8001540:	4605      	mov	r5, r0
	for(t=0;t<csize;t++)
 8001542:	4644      	mov	r4, r8
 8001544:	f04f 0a00 	mov.w	sl, #0
 8001548:	9303      	str	r3, [sp, #12]
 800154a:	4b1e      	ldr	r3, [pc, #120]	; (80015c4 <OLED_ShowChar+0xb4>)
void OLED_ShowChar(uint8_t x, uint8_t y, uint8_t chr, uint8_t f_w, uint8_t f_h,uint8_t mode){
 800154c:	f89d b03c 	ldrb.w	fp, [sp, #60]	; 0x3c
 8001550:	fb01 3302 	mla	r3, r1, r2, r3
 8001554:	9302      	str	r3, [sp, #8]
	for(t=0;t<csize;t++)
 8001556:	9b01      	ldr	r3, [sp, #4]
 8001558:	fa5f f28a 	uxtb.w	r2, sl
 800155c:	4293      	cmp	r3, r2
 800155e:	d802      	bhi.n	8001566 <OLED_ShowChar+0x56>
				x++;
				break;
			}
		}
	}
}
 8001560:	b005      	add	sp, #20
 8001562:	e8bd 8ff0 	ldmia.w	sp!, {r4, r5, r6, r7, r8, r9, sl, fp, pc}
		if(f_w==6&&f_h==8)temp=asc2_0608[chr][t];		//0608ascii
 8001566:	9b00      	ldr	r3, [sp, #0]
 8001568:	2b06      	cmp	r3, #6
 800156a:	d1f9      	bne.n	8001560 <OLED_ShowChar+0x50>
 800156c:	2e08      	cmp	r6, #8
 800156e:	d120      	bne.n	80015b2 <OLED_ShowChar+0xa2>
 8001570:	9b02      	ldr	r3, [sp, #8]
 8001572:	f104 0908 	add.w	r9, r4, #8
		else if(f_w==6&&f_h==12)temp=asc2_0612[chr][t];	//0612ascii
 8001576:	f813 700a 	ldrb.w	r7, [r3, sl]
 800157a:	fa5f f989 	uxtb.w	r9, r9
			if(temp&0x80)OLED_DrawPoint(x,y,mode);
 800157e:	063b      	lsls	r3, r7, #24
			else OLED_DrawPoint(x,y,!mode);
 8001580:	bf58      	it	pl
 8001582:	fabb f28b 	clzpl	r2, fp
 8001586:	4621      	mov	r1, r4
			y++;
 8001588:	f104 0401 	add.w	r4, r4, #1
			if(temp&0x80)OLED_DrawPoint(x,y,mode);
 800158c:	bf4c      	ite	mi
 800158e:	465a      	movmi	r2, fp
			else OLED_DrawPoint(x,y,!mode);
 8001590:	0952      	lsrpl	r2, r2, #5
 8001592:	4628      	mov	r0, r5
			y++;
 8001594:	b2e4      	uxtb	r4, r4
			else OLED_DrawPoint(x,y,!mode);
 8001596:	f7ff ff3b 	bl	8001410 <OLED_DrawPoint>
			if((y-y0)==f_h)
 800159a:	eba4 0208 	sub.w	r2, r4, r8
			temp<<=1;
 800159e:	007f      	lsls	r7, r7, #1
			if((y-y0)==f_h)
 80015a0:	42b2      	cmp	r2, r6
			temp<<=1;
 80015a2:	b2ff      	uxtb	r7, r7
			if((y-y0)==f_h)
 80015a4:	d109      	bne.n	80015ba <OLED_ShowChar+0xaa>
				y=y0;
 80015a6:	4644      	mov	r4, r8
				x++;
 80015a8:	3501      	adds	r5, #1
 80015aa:	b2ed      	uxtb	r5, r5
 80015ac:	f10a 0a01 	add.w	sl, sl, #1
 80015b0:	e7d1      	b.n	8001556 <OLED_ShowChar+0x46>
		else if(f_w==6&&f_h==12)temp=asc2_0612[chr][t];	//0612ascii
 80015b2:	2e0c      	cmp	r6, #12
 80015b4:	d1d4      	bne.n	8001560 <OLED_ShowChar+0x50>
 80015b6:	9b03      	ldr	r3, [sp, #12]
 80015b8:	e7db      	b.n	8001572 <OLED_ShowChar+0x62>
		for(t1=0;t1<8;t1++)
 80015ba:	45a1      	cmp	r9, r4
 80015bc:	d1df      	bne.n	800157e <OLED_ShowChar+0x6e>
 80015be:	e7f5      	b.n	80015ac <OLED_ShowChar+0x9c>
 80015c0:	080083f8 	.word	0x080083f8
 80015c4:	080081be 	.word	0x080081be

080015c8 <OLED_ShowPicture>:
//   p_w:
//   p_h:
//	 mode: 0x00() 0x01()
//-=-=-=-=-=-=-=-=-=-=-=-=-=-=-=-=-=-=-=-=-=-=-=-=-=-=-=-=-=-=-=-=-=-
void OLED_ShowPicture(uint8_t x,uint8_t y,const uint8_t *p,uint8_t p_w,uint8_t p_h)
{
 80015c8:	e92d 4ff0 	stmdb	sp!, {r4, r5, r6, r7, r8, r9, sl, fp, lr}
 80015cc:	468a      	mov	sl, r1
 80015ce:	4698      	mov	r8, r3
 80015d0:	b087      	sub	sp, #28
 80015d2:	f89d 1040 	ldrb.w	r1, [sp, #64]	; 0x40
	uint8_t temp,i,col,row;
	uint8_t y0=y;
	uint8_t width=p_w;
	if(x+p_w>OLED_PIXEL_WIDTH)width=OLED_PIXEL_WIDTH-p_w;//
 80015d6:	18c3      	adds	r3, r0, r3
 80015d8:	f5b3 7f80 	cmp.w	r3, #256	; 0x100
 80015dc:	bfc8      	it	gt
 80015de:	f1c8 0800 	rsbgt	r8, r8, #0
	uint8_t high=p_h;
	if(y+p_h>OLED_PIXEL_HEIGHT)high=OLED_PIXEL_HEIGHT-p_h;//
 80015e2:	eb01 030a 	add.w	r3, r1, sl
	if(x+p_w>OLED_PIXEL_WIDTH)width=OLED_PIXEL_WIDTH-p_w;//
 80015e6:	bfc8      	it	gt
 80015e8:	fa5f f888 	uxtbgt.w	r8, r8
	if(y+p_h>OLED_PIXEL_HEIGHT)high=OLED_PIXEL_HEIGHT-p_h;//
 80015ec:	2b40      	cmp	r3, #64	; 0x40
	uint8_t high=p_h;
 80015ee:	bfd2      	itee	le
 80015f0:	460d      	movle	r5, r1
	if(y+p_h>OLED_PIXEL_HEIGHT)high=OLED_PIXEL_HEIGHT-p_h;//
 80015f2:	f1c1 0540 	rsbgt	r5, r1, #64	; 0x40
 80015f6:	b2ed      	uxtbgt	r5, r5
	uint8_t exp_col_bytes=(p_h/8+((p_h%8)?1:0));//
	uint8_t act_col_bytes=(high/8+((high%8)?1:0));//
 80015f8:	f015 0307 	ands.w	r3, r5, #7
 80015fc:	bf18      	it	ne
 80015fe:	2301      	movne	r3, #1
 8001600:	eb03 03d5 	add.w	r3, r3, r5, lsr #3
 8001604:	9301      	str	r3, [sp, #4]
	uint8_t exp_col_bytes=(p_h/8+((p_h%8)?1:0));//
 8001606:	f011 0307 	ands.w	r3, r1, #7
 800160a:	bf18      	it	ne
 800160c:	2301      	movne	r3, #1
 800160e:	eb03 03d1 	add.w	r3, r3, r1, lsr #3
 8001612:	9303      	str	r3, [sp, #12]
{
 8001614:	4606      	mov	r6, r0
 8001616:	4617      	mov	r7, r2

	for(row=0;row<width;row++)//++
 8001618:	4654      	mov	r4, sl
 800161a:	2300      	movs	r3, #0
 800161c:	b2da      	uxtb	r2, r3
 800161e:	4590      	cmp	r8, r2
 8001620:	d92e      	bls.n	8001680 <OLED_ShowPicture+0xb8>
 8001622:	9a01      	ldr	r2, [sp, #4]
 8001624:	46bb      	mov	fp, r7
 8001626:	443a      	add	r2, r7
 8001628:	9204      	str	r2, [sp, #16]
 800162a:	e01e      	b.n	800166a <OLED_ShowPicture+0xa2>
 800162c:	f104 0208 	add.w	r2, r4, #8
 8001630:	b2d2      	uxtb	r2, r2
	{
		for(col=0;col<act_col_bytes;col++)//
		{
			temp = p[col+row*exp_col_bytes];
 8001632:	f81b 9b01 	ldrb.w	r9, [fp], #1
 8001636:	9202      	str	r2, [sp, #8]
			for(i=0;i<8;i++)
			{
				if(temp&0x80)OLED_DrawPoint(x,y,1);
 8001638:	f019 0f80 	tst.w	r9, #128	; 0x80
				else OLED_DrawPoint(x,y,0);
 800163c:	4621      	mov	r1, r4
				temp<<=1;
				y++;
 800163e:	f104 0401 	add.w	r4, r4, #1
				if(temp&0x80)OLED_DrawPoint(x,y,1);
 8001642:	bf14      	ite	ne
 8001644:	2201      	movne	r2, #1
				else OLED_DrawPoint(x,y,0);
 8001646:	2200      	moveq	r2, #0
 8001648:	4630      	mov	r0, r6
				y++;
 800164a:	b2e4      	uxtb	r4, r4
 800164c:	9305      	str	r3, [sp, #20]
				else OLED_DrawPoint(x,y,0);
 800164e:	f7ff fedf 	bl	8001410 <OLED_DrawPoint>
				if((y-y0)==high)
 8001652:	eba4 020a 	sub.w	r2, r4, sl
				temp<<=1;
 8001656:	ea4f 0949 	mov.w	r9, r9, lsl #1
				if((y-y0)==high)
 800165a:	42aa      	cmp	r2, r5
				else OLED_DrawPoint(x,y,0);
 800165c:	9b05      	ldr	r3, [sp, #20]
				temp<<=1;
 800165e:	fa5f f989 	uxtb.w	r9, r9
				if((y-y0)==high)
 8001662:	d109      	bne.n	8001678 <OLED_ShowPicture+0xb0>
				{
					y=y0;
 8001664:	4654      	mov	r4, sl
					x++;
 8001666:	3601      	adds	r6, #1
 8001668:	b2f6      	uxtb	r6, r6
		for(col=0;col<act_col_bytes;col++)//
 800166a:	9a04      	ldr	r2, [sp, #16]
 800166c:	4593      	cmp	fp, r2
 800166e:	d1dd      	bne.n	800162c <OLED_ShowPicture+0x64>
 8001670:	9a03      	ldr	r2, [sp, #12]
 8001672:	3301      	adds	r3, #1
 8001674:	4417      	add	r7, r2
 8001676:	e7d1      	b.n	800161c <OLED_ShowPicture+0x54>
			for(i=0;i<8;i++)
 8001678:	9a02      	ldr	r2, [sp, #8]
 800167a:	4294      	cmp	r4, r2
 800167c:	d1dc      	bne.n	8001638 <OLED_ShowPicture+0x70>
 800167e:	e7f4      	b.n	800166a <OLED_ShowPicture+0xa2>
					break;
				}
			}
		}
	}
}
 8001680:	b007      	add	sp, #28
 8001682:	e8bd 8ff0 	ldmia.w	sp!, {r4, r5, r6, r7, r8, r9, sl, fp, pc}
	...

08001688 <OLED_Init>:
//=-=-=-=-=-=-=-=-=-=-=-=-=-=-=-=-=-=-=-=-=-=-=-=-=-=-=-=-=-=-=-=-=-=-=-=-=-=-=-=
//  OLED Initialization
//=-=-=-=-=-=-=-=-=-=-=-=-=-=-=-=-=-=-=-=-=-=-=-=-=-=-=-=-=-=-=-=-=-=-=-=-=-=-=-=
void OLED_Init() {
 8001688:	b573      	push	{r0, r1, r4, r5, r6, lr}
	uint8_t dummy = 0x0;
 800168a:	2400      	movs	r4, #0


	//LCD_RST_SetLow();
	HAL_GPIO_WritePin(OLED_RST_GPIO_Port,OLED_RST_Pin,RESET);
 800168c:	4e7f      	ldr	r6, [pc, #508]	; (800188c <OLED_Init+0x204>)
 800168e:	4622      	mov	r2, r4
	uint8_t dummy = 0x0;
 8001690:	ad02      	add	r5, sp, #8
	HAL_GPIO_WritePin(OLED_RST_GPIO_Port,OLED_RST_Pin,RESET);
 8001692:	f44f 4180 	mov.w	r1, #16384	; 0x4000
 8001696:	4630      	mov	r0, r6
	uint8_t dummy = 0x0;
 8001698:	f805 4d01 	strb.w	r4, [r5, #-1]!
	HAL_GPIO_WritePin(OLED_RST_GPIO_Port,OLED_RST_Pin,RESET);
 800169c:	f000 fb50 	bl	8001d40 <HAL_GPIO_WritePin>
	HAL_Delay(500);
 80016a0:	f44f 70fa 	mov.w	r0, #500	; 0x1f4
 80016a4:	f000 f9da 	bl	8001a5c <HAL_Delay>
	HAL_GPIO_WritePin(OLED_RST_GPIO_Port,OLED_RST_Pin,SET);
 80016a8:	4630      	mov	r0, r6
 80016aa:	2201      	movs	r2, #1
 80016ac:	f44f 4180 	mov.w	r1, #16384	; 0x4000
 80016b0:	f000 fb46 	bl	8001d40 <HAL_GPIO_WritePin>
	HAL_SPI_Transmit(&hspi2, &dummy, 1, 1000);
 80016b4:	f44f 737a 	mov.w	r3, #1000	; 0x3e8
 80016b8:	2201      	movs	r2, #1
 80016ba:	4629      	mov	r1, r5
 80016bc:	4874      	ldr	r0, [pc, #464]	; (8001890 <OLED_Init+0x208>)
 80016be:	f001 f9d4 	bl	8002a6a <HAL_SPI_Transmit>
	Write_Command(0xFD);			// Set Command Lock
 80016c2:	4621      	mov	r1, r4
 80016c4:	20fd      	movs	r0, #253	; 0xfd
 80016c6:	f7ff fe7b 	bl	80013c0 <write>
	Write_Data(0x12 | d);			//   Default => 0x12
 80016ca:	2101      	movs	r1, #1
 80016cc:	2012      	movs	r0, #18
 80016ce:	f7ff fe77 	bl	80013c0 <write>
	Write_Command(0xAE | d);			// Set Display On/Off
 80016d2:	4621      	mov	r1, r4
 80016d4:	20ae      	movs	r0, #174	; 0xae
 80016d6:	f7ff fe73 	bl	80013c0 <write>
	Write_Command(0xB3);	// Set Display Clock Divider / Oscillator Frequency
 80016da:	4621      	mov	r1, r4
 80016dc:	20b3      	movs	r0, #179	; 0xb3
 80016de:	f7ff fe6f 	bl	80013c0 <write>
	Write_Data(d);				//   Default => 0xD0
 80016e2:	2101      	movs	r1, #1
 80016e4:	2091      	movs	r0, #145	; 0x91
 80016e6:	f7ff fe6b 	bl	80013c0 <write>
	Write_Command(0xCA);			// Set Multiplex Ratio
 80016ea:	4621      	mov	r1, r4
 80016ec:	20ca      	movs	r0, #202	; 0xca
 80016ee:	f7ff fe67 	bl	80013c0 <write>
	Write_Data(d);				//   Default => 0x7F (1/128 Duty)
 80016f2:	2101      	movs	r1, #1
 80016f4:	203f      	movs	r0, #63	; 0x3f
 80016f6:	f7ff fe63 	bl	80013c0 <write>
	Write_Command(0xA2);			// Set Vertical Scroll by Row
 80016fa:	4621      	mov	r1, r4
 80016fc:	20a2      	movs	r0, #162	; 0xa2
 80016fe:	f7ff fe5f 	bl	80013c0 <write>
	Write_Data(d);				//   Default => 0x00
 8001702:	4620      	mov	r0, r4
 8001704:	2101      	movs	r1, #1
 8001706:	f7ff fe5b 	bl	80013c0 <write>
	Write_Command(0xA1);			// Set Vertical Scroll by RAM
 800170a:	4621      	mov	r1, r4
 800170c:	20a1      	movs	r0, #161	; 0xa1
 800170e:	f7ff fe57 	bl	80013c0 <write>
	Write_Data(d);				//   Default => 0x00
 8001712:	4620      	mov	r0, r4
 8001714:	2101      	movs	r1, #1
 8001716:	f7ff fe53 	bl	80013c0 <write>
	Write_Command(0xA0);			// Set Re-Map / Dual COM Line Mode
 800171a:	4621      	mov	r1, r4
 800171c:	20a0      	movs	r0, #160	; 0xa0
 800171e:	f7ff fe4f 	bl	80013c0 <write>
	Write_Data(d);				//   Default => 0x40
 8001722:	2101      	movs	r1, #1
 8001724:	2014      	movs	r0, #20
 8001726:	f7ff fe4b 	bl	80013c0 <write>
	Write_Data(0x11);			//   Default => 0x01 (Disable Dual COM Mode)
 800172a:	2101      	movs	r1, #1
 800172c:	2011      	movs	r0, #17
 800172e:	f7ff fe47 	bl	80013c0 <write>
	Write_Command(0xB5);			// General Purpose IO
 8001732:	4621      	mov	r1, r4
 8001734:	20b5      	movs	r0, #181	; 0xb5
 8001736:	f7ff fe43 	bl	80013c0 <write>
	Write_Data(d);			//   Default => 0x0A (GPIO Pins output Low Level.)
 800173a:	4620      	mov	r0, r4
 800173c:	2101      	movs	r1, #1
 800173e:	f7ff fe3f 	bl	80013c0 <write>
	Write_Command(0xAB);			// Function Selection
 8001742:	4621      	mov	r1, r4
 8001744:	20ab      	movs	r0, #171	; 0xab
 8001746:	f7ff fe3b 	bl	80013c0 <write>
	Write_Data(d);				//   Default => 0x01
 800174a:	2101      	movs	r1, #1
 800174c:	4608      	mov	r0, r1
 800174e:	f7ff fe37 	bl	80013c0 <write>
	Write_Command(0xB4);			// Display Enhancement
 8001752:	4621      	mov	r1, r4
 8001754:	20b4      	movs	r0, #180	; 0xb4
 8001756:	f7ff fe33 	bl	80013c0 <write>
	Write_Data(0xA0 | a);			//   Default => 0xA2
 800175a:	2101      	movs	r1, #1
 800175c:	20a0      	movs	r0, #160	; 0xa0
 800175e:	f7ff fe2f 	bl	80013c0 <write>
	Write_Data(0x05 | b);			//   Default => 0xB5
 8001762:	2101      	movs	r1, #1
 8001764:	20fd      	movs	r0, #253	; 0xfd
 8001766:	f7ff fe2b 	bl	80013c0 <write>
	Write_Command(0xC1);			// Set Contrast Current
 800176a:	4621      	mov	r1, r4
 800176c:	20c1      	movs	r0, #193	; 0xc1
 800176e:	f7ff fe27 	bl	80013c0 <write>
	Write_Data(d);				//   Default => 0x7F
 8001772:	2101      	movs	r1, #1
 8001774:	209f      	movs	r0, #159	; 0x9f
 8001776:	f7ff fe23 	bl	80013c0 <write>
	Write_Command(0xC7);			// Master Contrast Current Control
 800177a:	4621      	mov	r1, r4
 800177c:	20c7      	movs	r0, #199	; 0xc7
 800177e:	f7ff fe1f 	bl	80013c0 <write>
	Write_Data(d);				//   Default => 0x0f (Maximum)
 8001782:	2101      	movs	r1, #1
 8001784:	200f      	movs	r0, #15
 8001786:	f7ff fe1b 	bl	80013c0 <write>
	Write_Command(0xB8);			// Set Gray Scale Table
 800178a:	4621      	mov	r1, r4
 800178c:	20b8      	movs	r0, #184	; 0xb8
 800178e:	f7ff fe17 	bl	80013c0 <write>
	Write_Data(0x0C);			//   Gray Scale Level 1
 8001792:	2101      	movs	r1, #1
 8001794:	200c      	movs	r0, #12
 8001796:	f7ff fe13 	bl	80013c0 <write>
	Write_Data(0x18);			//   Gray Scale Level 2
 800179a:	2101      	movs	r1, #1
 800179c:	2018      	movs	r0, #24
 800179e:	f7ff fe0f 	bl	80013c0 <write>
	Write_Data(0x24);			//   Gray Scale Level 3
 80017a2:	2101      	movs	r1, #1
 80017a4:	2024      	movs	r0, #36	; 0x24
 80017a6:	f7ff fe0b 	bl	80013c0 <write>
	Write_Data(0x30);			//   Gray Scale Level 4
 80017aa:	2101      	movs	r1, #1
 80017ac:	2030      	movs	r0, #48	; 0x30
 80017ae:	f7ff fe07 	bl	80013c0 <write>
	Write_Data(0x3C);			//   Gray Scale Level 5
 80017b2:	2101      	movs	r1, #1
 80017b4:	203c      	movs	r0, #60	; 0x3c
 80017b6:	f7ff fe03 	bl	80013c0 <write>
	Write_Data(0x48);			//   Gray Scale Level 6
 80017ba:	2101      	movs	r1, #1
 80017bc:	2048      	movs	r0, #72	; 0x48
 80017be:	f7ff fdff 	bl	80013c0 <write>
	Write_Data(0x54);			//   Gray Scale Level 7
 80017c2:	2101      	movs	r1, #1
 80017c4:	2054      	movs	r0, #84	; 0x54
 80017c6:	f7ff fdfb 	bl	80013c0 <write>
	Write_Data(0x60);			//   Gray Scale Level 8
 80017ca:	2101      	movs	r1, #1
 80017cc:	2060      	movs	r0, #96	; 0x60
 80017ce:	f7ff fdf7 	bl	80013c0 <write>
	Write_Data(0x6C);			//   Gray Scale Level 9
 80017d2:	2101      	movs	r1, #1
 80017d4:	206c      	movs	r0, #108	; 0x6c
 80017d6:	f7ff fdf3 	bl	80013c0 <write>
	Write_Data(0x78);			//   Gray Scale Level 10
 80017da:	2101      	movs	r1, #1
 80017dc:	2078      	movs	r0, #120	; 0x78
 80017de:	f7ff fdef 	bl	80013c0 <write>
	Write_Data(0x84);			//   Gray Scale Level 11
 80017e2:	2101      	movs	r1, #1
 80017e4:	2084      	movs	r0, #132	; 0x84
 80017e6:	f7ff fdeb 	bl	80013c0 <write>
	Write_Data(0x90);			//   Gray Scale Level 12
 80017ea:	2101      	movs	r1, #1
 80017ec:	2090      	movs	r0, #144	; 0x90
 80017ee:	f7ff fde7 	bl	80013c0 <write>
	Write_Data(0x9C);			//   Gray Scale Level 13
 80017f2:	2101      	movs	r1, #1
 80017f4:	209c      	movs	r0, #156	; 0x9c
 80017f6:	f7ff fde3 	bl	80013c0 <write>
	Write_Data(0xA8);			//   Gray Scale Level 14
 80017fa:	2101      	movs	r1, #1
 80017fc:	20a8      	movs	r0, #168	; 0xa8
 80017fe:	f7ff fddf 	bl	80013c0 <write>
	Write_Data(0xB4);			//   Gray Scale Level 15
 8001802:	2101      	movs	r1, #1
 8001804:	20b4      	movs	r0, #180	; 0xb4
 8001806:	f7ff fddb 	bl	80013c0 <write>
	Write_Command(0x00);			// Enable Gray Scale Table
 800180a:	4621      	mov	r1, r4
 800180c:	4620      	mov	r0, r4
 800180e:	f7ff fdd7 	bl	80013c0 <write>
	Write_Command(0xB1);// Phase 1 (Reset) & Phase 2 (Pre-Charge) Period Adjustment
 8001812:	4621      	mov	r1, r4
 8001814:	20b1      	movs	r0, #177	; 0xb1
 8001816:	f7ff fdd3 	bl	80013c0 <write>
	Write_Data(d);//   Default => 0x74 (7 Display Clocks [Phase 2] / 9 Display Clocks [Phase 1])
 800181a:	2101      	movs	r1, #1
 800181c:	20e2      	movs	r0, #226	; 0xe2
 800181e:	f7ff fdcf 	bl	80013c0 <write>
	Write_Command(0xD1);			// Display Enhancement
 8001822:	4621      	mov	r1, r4
 8001824:	20d1      	movs	r0, #209	; 0xd1
 8001826:	f7ff fdcb 	bl	80013c0 <write>
	Write_Data(0x82 | d);			//   Default => 0xA2
 800182a:	2101      	movs	r1, #1
 800182c:	20a2      	movs	r0, #162	; 0xa2
 800182e:	f7ff fdc7 	bl	80013c0 <write>
	Write_Data(0x20);
 8001832:	2101      	movs	r1, #1
 8001834:	2020      	movs	r0, #32
 8001836:	f7ff fdc3 	bl	80013c0 <write>
	Write_Command(0xBB);			// Set Pre-Charge Voltage Level
 800183a:	4621      	mov	r1, r4
 800183c:	20bb      	movs	r0, #187	; 0xbb
 800183e:	f7ff fdbf 	bl	80013c0 <write>
	Write_Data(d);				//   Default => 0x17 (0.50*VCC)
 8001842:	2101      	movs	r1, #1
 8001844:	201f      	movs	r0, #31
 8001846:	f7ff fdbb 	bl	80013c0 <write>
	Write_Command(0xB6);			// Set Second Pre-Charge Period
 800184a:	4621      	mov	r1, r4
 800184c:	20b6      	movs	r0, #182	; 0xb6
 800184e:	f7ff fdb7 	bl	80013c0 <write>
	Write_Data(d);				//   Default => 0x08 (8 Display Clocks)
 8001852:	2101      	movs	r1, #1
 8001854:	2008      	movs	r0, #8
 8001856:	f7ff fdb3 	bl	80013c0 <write>
	Write_Command(0xBE);			// Set COM Deselect Voltage Level
 800185a:	4621      	mov	r1, r4
 800185c:	20be      	movs	r0, #190	; 0xbe
 800185e:	f7ff fdaf 	bl	80013c0 <write>
	Write_Data(d);				//   Default => 0x04 (0.80*VCC)
 8001862:	2101      	movs	r1, #1
 8001864:	2007      	movs	r0, #7
 8001866:	f7ff fdab 	bl	80013c0 <write>
	Write_Command(0xA4 | d);			// Set Display Mode
 800186a:	4621      	mov	r1, r4
 800186c:	20a6      	movs	r0, #166	; 0xa6
 800186e:	f7ff fda7 	bl	80013c0 <write>
	Write_Command(0xA8 | a);
 8001872:	4621      	mov	r1, r4
 8001874:	20a9      	movs	r0, #169	; 0xa9
 8001876:	f7ff fda3 	bl	80013c0 <write>
	Set_Precharge_Period(0x08);		// Set Second Pre-Charge Period as 8 Clocks
	Set_VCOMH(0x07);	// Set Common Pins Deselect Voltage Level as 0.86*VCC
	Set_Display_Mode(0x02);			// Normal Display Mode (0x00/0x01/0x02/0x03)
	Set_Partial_Display(0x01, 0x00, 0x00);	// Disable Partial Display

	OLED_Clear();				// Clear Screen
 800187a:	f7ff fe41 	bl	8001500 <OLED_Clear>
	Write_Command(0xAE | d);			// Set Display On/Off
 800187e:	4621      	mov	r1, r4
 8001880:	20af      	movs	r0, #175	; 0xaf
 8001882:	f7ff fd9d 	bl	80013c0 <write>

	Set_Display_On_Off(0x01);		// Display On (0x00/0x01)

}
 8001886:	b002      	add	sp, #8
 8001888:	bd70      	pop	{r4, r5, r6, pc}
 800188a:	bf00      	nop
 800188c:	40010c00 	.word	0x40010c00
 8001890:	200044fc 	.word	0x200044fc

08001894 <RotaryEcncorder_ButtonScan>:
		vTaskDelay(10 / portTICK_PERIOD_MS);
	}

}

Button_state RotaryEcncorder_ButtonScan(void) {
 8001894:	b510      	push	{r4, lr}
	Button_state button_state;
	current_state = HAL_GPIO_ReadPin(ROTARY_SW_GPIO_Port, ROTARY_SW_Pin);
 8001896:	2108      	movs	r1, #8
 8001898:	480f      	ldr	r0, [pc, #60]	; (80018d8 <RotaryEcncorder_ButtonScan+0x44>)
 800189a:	f000 fa4b 	bl	8001d34 <HAL_GPIO_ReadPin>
	if (current_state == 0 && old_state == 1) {
 800189e:	b980      	cbnz	r0, 80018c2 <RotaryEcncorder_ButtonScan+0x2e>
 80018a0:	4a0e      	ldr	r2, [pc, #56]	; (80018dc <RotaryEcncorder_ButtonScan+0x48>)
 80018a2:	6813      	ldr	r3, [r2, #0]
 80018a4:	2b01      	cmp	r3, #1
 80018a6:	d103      	bne.n	80018b0 <RotaryEcncorder_ButtonScan+0x1c>
		old_state = current_state;
		button_state = button_debouce;
 80018a8:	2402      	movs	r4, #2
		old_state = current_state;
 80018aa:	6010      	str	r0, [r2, #0]
		press_count = 0;
		button_state = button_release;
	}
	return button_state;

}
 80018ac:	4620      	mov	r0, r4
 80018ae:	bd10      	pop	{r4, pc}
	} else if (current_state == 0 && old_state == 0 && press_count == 0) {
 80018b0:	2b00      	cmp	r3, #0
 80018b2:	d1fb      	bne.n	80018ac <RotaryEcncorder_ButtonScan+0x18>
 80018b4:	4b0a      	ldr	r3, [pc, #40]	; (80018e0 <RotaryEcncorder_ButtonScan+0x4c>)
 80018b6:	681a      	ldr	r2, [r3, #0]
 80018b8:	2a00      	cmp	r2, #0
 80018ba:	d1f7      	bne.n	80018ac <RotaryEcncorder_ButtonScan+0x18>
		press_count = 1;
 80018bc:	2401      	movs	r4, #1
 80018be:	601c      	str	r4, [r3, #0]
 80018c0:	e7f4      	b.n	80018ac <RotaryEcncorder_ButtonScan+0x18>
	else if (current_state == 1 && old_state == 0) {
 80018c2:	2801      	cmp	r0, #1
 80018c4:	d1f2      	bne.n	80018ac <RotaryEcncorder_ButtonScan+0x18>
 80018c6:	4b05      	ldr	r3, [pc, #20]	; (80018dc <RotaryEcncorder_ButtonScan+0x48>)
 80018c8:	681b      	ldr	r3, [r3, #0]
 80018ca:	2b00      	cmp	r3, #0
 80018cc:	d1ee      	bne.n	80018ac <RotaryEcncorder_ButtonScan+0x18>
		press_count = 0;
 80018ce:	4a04      	ldr	r2, [pc, #16]	; (80018e0 <RotaryEcncorder_ButtonScan+0x4c>)
		button_state = button_release;
 80018d0:	2403      	movs	r4, #3
		press_count = 0;
 80018d2:	6013      	str	r3, [r2, #0]
 80018d4:	e7ea      	b.n	80018ac <RotaryEcncorder_ButtonScan+0x18>
 80018d6:	bf00      	nop
 80018d8:	40011000 	.word	0x40011000
 80018dc:	20000004 	.word	0x20000004
 80018e0:	2000274c 	.word	0x2000274c

080018e4 <Button_task>:
void Button_task(void *pvParameters) {
 80018e4:	b510      	push	{r4, lr}
		if (EventGroupHandler !=NULL) {
 80018e6:	4c07      	ldr	r4, [pc, #28]	; (8001904 <Button_task+0x20>)
 80018e8:	6823      	ldr	r3, [r4, #0]
 80018ea:	b13b      	cbz	r3, 80018fc <Button_task+0x18>
			bstate = RotaryEcncorder_ButtonScan();
 80018ec:	f7ff ffd2 	bl	8001894 <RotaryEcncorder_ButtonScan>
			switch (bstate) {
 80018f0:	2801      	cmp	r0, #1
			bstate = RotaryEcncorder_ButtonScan();
 80018f2:	4601      	mov	r1, r0
			switch (bstate) {
 80018f4:	d102      	bne.n	80018fc <Button_task+0x18>
				xEventGroupSetBits(EventGroupHandler, BUTTON_PRESS_EVENT);
 80018f6:	6820      	ldr	r0, [r4, #0]
 80018f8:	f001 fb0c 	bl	8002f14 <xEventGroupSetBits>
		vTaskDelay(10 / portTICK_PERIOD_MS);
 80018fc:	200a      	movs	r0, #10
 80018fe:	f002 fbd3 	bl	80040a8 <vTaskDelay>
		if (EventGroupHandler !=NULL) {
 8001902:	e7f1      	b.n	80018e8 <Button_task+0x4>
 8001904:	2000455c 	.word	0x2000455c

08001908 <RotaryEcncorder_Init>:

void RotaryEcncorder_Init() {
 8001908:	b510      	push	{r4, lr}
	HAL_TIM_Encoder_Start(&htim2, TIM_CHANNEL_ALL);
 800190a:	4c05      	ldr	r4, [pc, #20]	; (8001920 <RotaryEcncorder_Init+0x18>)
 800190c:	2118      	movs	r1, #24
 800190e:	4620      	mov	r0, r4
 8001910:	f001 f98f 	bl	8002c32 <HAL_TIM_Encoder_Start>
//-=-=-=-=-=-=-=-=-=-=-=-=-=-=-=-=-=-=-=-=-=-=-=-=-=-=-=-=-=-=-=-=-=-
//   
//   count:-32767~32767
//-=-=-=-=-=-=-=-=-=-=-=-=-=-=-=-=-=-=-=-=-=-=-=-=-=-=-=-=-=-=-=-=-=-
void RotaryEcncorder_SetCount(int32_t count) {
	__HAL_TIM_SET_COUNTER(&htim2,32767+count);
 8001914:	f647 72ff 	movw	r2, #32767	; 0x7fff
 8001918:	6823      	ldr	r3, [r4, #0]
 800191a:	625a      	str	r2, [r3, #36]	; 0x24
 800191c:	bd10      	pop	{r4, pc}
 800191e:	bf00      	nop
 8001920:	20004574 	.word	0x20004574

08001924 <RotaryEcncorder_SetCount>:
 8001924:	4b03      	ldr	r3, [pc, #12]	; (8001934 <RotaryEcncorder_SetCount+0x10>)
 8001926:	f500 40ff 	add.w	r0, r0, #32640	; 0x7f80
 800192a:	681b      	ldr	r3, [r3, #0]
 800192c:	307f      	adds	r0, #127	; 0x7f
 800192e:	6258      	str	r0, [r3, #36]	; 0x24
 8001930:	4770      	bx	lr
 8001932:	bf00      	nop
 8001934:	20004574 	.word	0x20004574

08001938 <RotaryEcncorder_SetRange>:
//-=-=-=-=-=-=-=-=-=-=-=-=-=-=-=-=-=-=-=-=-=-=-=-=-=-=-=-=-=-=-=-=-=-
void RotaryEcncorder_SetRange(int32_t min ,int32_t max) {

	int32_t temp;

	if(max < min)
 8001938:	4281      	cmp	r1, r0
 800193a:	bfbc      	itt	lt
 800193c:	4603      	movlt	r3, r0
 800193e:	4608      	movlt	r0, r1
	}

	if(min < -32767)min = -32767;
	if(max > 32767)max = 32767;

	range_min = min;
 8001940:	4a07      	ldr	r2, [pc, #28]	; (8001960 <RotaryEcncorder_SetRange+0x28>)
	if(max < min)
 8001942:	bfb8      	it	lt
 8001944:	4619      	movlt	r1, r3
	range_min = min;
 8001946:	4b07      	ldr	r3, [pc, #28]	; (8001964 <RotaryEcncorder_SetRange+0x2c>)
 8001948:	4290      	cmp	r0, r2
 800194a:	bfac      	ite	ge
 800194c:	6018      	strge	r0, [r3, #0]
 800194e:	601a      	strlt	r2, [r3, #0]
	range_max = max;
 8001950:	f647 72ff 	movw	r2, #32767	; 0x7fff
 8001954:	4b04      	ldr	r3, [pc, #16]	; (8001968 <RotaryEcncorder_SetRange+0x30>)
 8001956:	4291      	cmp	r1, r2
 8001958:	bfd4      	ite	le
 800195a:	6019      	strle	r1, [r3, #0]
 800195c:	601a      	strgt	r2, [r3, #0]
 800195e:	4770      	bx	lr
 8001960:	ffff8001 	.word	0xffff8001
 8001964:	20002750 	.word	0x20002750
 8001968:	20000008 	.word	0x20000008

0800196c <RotaryEcncorder_GetCount>:

//-=-=-=-=-=-=-=-=-=-=-=-=-=-=-=-=-=-=-=-=-=-=-=-=-=-=-=-=-=-=-=-=-=-
//   
//   0~32767
//-=-=-=-=-=-=-=-=-=-=-=-=-=-=-=-=-=-=-=-=-=-=-=-=-=-=-=-=-=-=-=-=-=-
int32_t RotaryEcncorder_GetCount() {
 800196c:	b508      	push	{r3, lr}
	int32_t count;

	count = __HAL_TIM_GET_COUNTER(&htim2);  //value: cw:0->65535  or  ccw:0<-65535<-0
 800196e:	4b0a      	ldr	r3, [pc, #40]	; (8001998 <RotaryEcncorder_GetCount+0x2c>)
 8001970:	681b      	ldr	r3, [r3, #0]
 8001972:	6a58      	ldr	r0, [r3, #36]	; 0x24
	count -= 32767; //-32767 ~ 32767
	if(count > range_max)
 8001974:	4b09      	ldr	r3, [pc, #36]	; (800199c <RotaryEcncorder_GetCount+0x30>)
	count -= 32767; //-32767 ~ 32767
 8001976:	f5a0 40ff 	sub.w	r0, r0, #32640	; 0x7f80
	if(count > range_max)
 800197a:	681a      	ldr	r2, [r3, #0]
	count -= 32767; //-32767 ~ 32767
 800197c:	387f      	subs	r0, #127	; 0x7f
	if(count > range_max)
 800197e:	4290      	cmp	r0, r2
 8001980:	dd04      	ble.n	800198c <RotaryEcncorder_GetCount+0x20>
		RotaryEcncorder_SetCount(count);
	}
	else if(count < range_min)
	{
		count = range_min;
		RotaryEcncorder_SetCount(count);
 8001982:	4610      	mov	r0, r2
 8001984:	f7ff ffce 	bl	8001924 <RotaryEcncorder_SetCount>
 8001988:	4610      	mov	r0, r2
	}
	return count;
 800198a:	e003      	b.n	8001994 <RotaryEcncorder_GetCount+0x28>
	else if(count < range_min)
 800198c:	4b04      	ldr	r3, [pc, #16]	; (80019a0 <RotaryEcncorder_GetCount+0x34>)
 800198e:	681a      	ldr	r2, [r3, #0]
 8001990:	4290      	cmp	r0, r2
 8001992:	dbf6      	blt.n	8001982 <RotaryEcncorder_GetCount+0x16>
}
 8001994:	bd08      	pop	{r3, pc}
 8001996:	bf00      	nop
 8001998:	20004574 	.word	0x20004574
 800199c:	20000008 	.word	0x20000008
 80019a0:	20002750 	.word	0x20002750

080019a4 <RotaryEcncorder_GetState>:

//-=-=-=-=-=-=-=-=-=-=-=-=-=-=-=-=-=-=-=-=-=-=-=-=-=-=-=-=-=-=-=-=-=-
//   
//   -32767~32767
//-=-=-=-=-=-=-=-=-=-=-=-=-=-=-=-=-=-=-=-=-=-=-=-=-=-=-=-=-=-=-=-=-=-
Rotary_state RotaryEcncorder_GetState() {
 80019a4:	b508      	push	{r3, lr}
	Rotary_state rstate;
	current_count = RotaryEcncorder_GetCount();  //value range: -32767~32767
 80019a6:	f7ff ffe1 	bl	800196c <RotaryEcncorder_GetCount>
	if (current_count - last_count > 0) {
 80019aa:	4a07      	ldr	r2, [pc, #28]	; (80019c8 <RotaryEcncorder_GetState+0x24>)
	current_count = RotaryEcncorder_GetCount();  //value range: -32767~32767
 80019ac:	4601      	mov	r1, r0
	if (current_count - last_count > 0) {
 80019ae:	6813      	ldr	r3, [r2, #0]
 80019b0:	1ac3      	subs	r3, r0, r3
 80019b2:	2b00      	cmp	r3, #0
 80019b4:	dc03      	bgt.n	80019be <RotaryEcncorder_GetState+0x1a>
		rstate = state_clock_wise;
	} else if (current_count - last_count < 0) {
 80019b6:	d104      	bne.n	80019c2 <RotaryEcncorder_GetState+0x1e>
		rstate = state_counter_clock_wise;
	} else {
		rstate = state_no_changed;
 80019b8:	4618      	mov	r0, r3
	}
	last_count = current_count;
 80019ba:	6011      	str	r1, [r2, #0]
	return rstate;
}
 80019bc:	bd08      	pop	{r3, pc}
		rstate = state_clock_wise;
 80019be:	2001      	movs	r0, #1
 80019c0:	e7fb      	b.n	80019ba <RotaryEcncorder_GetState+0x16>
		rstate = state_counter_clock_wise;
 80019c2:	2002      	movs	r0, #2
 80019c4:	e7f9      	b.n	80019ba <RotaryEcncorder_GetState+0x16>
 80019c6:	bf00      	nop
 80019c8:	20002748 	.word	0x20002748

080019cc <HAL_InitTick>:
  *       implementation  in user file.
  * @param TickPriority Tick interrupt priority.
  * @retval HAL status
  */
__weak HAL_StatusTypeDef HAL_InitTick(uint32_t TickPriority)
{
 80019cc:	b538      	push	{r3, r4, r5, lr}
  /* Configure the SysTick to have interrupt in 1ms time basis*/
  if (HAL_SYSTICK_Config(SystemCoreClock / (1000U / uwTickFreq)) > 0U)
 80019ce:	4b0e      	ldr	r3, [pc, #56]	; (8001a08 <HAL_InitTick+0x3c>)
{
 80019d0:	4605      	mov	r5, r0
  if (HAL_SYSTICK_Config(SystemCoreClock / (1000U / uwTickFreq)) > 0U)
 80019d2:	7818      	ldrb	r0, [r3, #0]
 80019d4:	f44f 737a 	mov.w	r3, #1000	; 0x3e8
 80019d8:	fbb3 f3f0 	udiv	r3, r3, r0
 80019dc:	4a0b      	ldr	r2, [pc, #44]	; (8001a0c <HAL_InitTick+0x40>)
 80019de:	6810      	ldr	r0, [r2, #0]
 80019e0:	fbb0 f0f3 	udiv	r0, r0, r3
 80019e4:	f000 f892 	bl	8001b0c <HAL_SYSTICK_Config>
 80019e8:	4604      	mov	r4, r0
 80019ea:	b958      	cbnz	r0, 8001a04 <HAL_InitTick+0x38>
  {
    return HAL_ERROR;
  }

  /* Configure the SysTick IRQ priority */
  if (TickPriority < (1UL << __NVIC_PRIO_BITS))
 80019ec:	2d0f      	cmp	r5, #15
 80019ee:	d809      	bhi.n	8001a04 <HAL_InitTick+0x38>
  {
    HAL_NVIC_SetPriority(SysTick_IRQn, TickPriority, 0U);
 80019f0:	4602      	mov	r2, r0
 80019f2:	4629      	mov	r1, r5
 80019f4:	f04f 30ff 	mov.w	r0, #4294967295
 80019f8:	f000 f854 	bl	8001aa4 <HAL_NVIC_SetPriority>
    uwTickPrio = TickPriority;
 80019fc:	4b04      	ldr	r3, [pc, #16]	; (8001a10 <HAL_InitTick+0x44>)
 80019fe:	4620      	mov	r0, r4
 8001a00:	601d      	str	r5, [r3, #0]
 8001a02:	bd38      	pop	{r3, r4, r5, pc}
    return HAL_ERROR;
 8001a04:	2001      	movs	r0, #1
    return HAL_ERROR;
  }

  /* Return function status */
  return HAL_OK;
}
 8001a06:	bd38      	pop	{r3, r4, r5, pc}
 8001a08:	2000000c 	.word	0x2000000c
 8001a0c:	20000000 	.word	0x20000000
 8001a10:	20000010 	.word	0x20000010

08001a14 <HAL_Init>:
  __HAL_FLASH_PREFETCH_BUFFER_ENABLE();
 8001a14:	4a07      	ldr	r2, [pc, #28]	; (8001a34 <HAL_Init+0x20>)
{
 8001a16:	b508      	push	{r3, lr}
  __HAL_FLASH_PREFETCH_BUFFER_ENABLE();
 8001a18:	6813      	ldr	r3, [r2, #0]
  HAL_NVIC_SetPriorityGrouping(NVIC_PRIORITYGROUP_4);
 8001a1a:	2003      	movs	r0, #3
  __HAL_FLASH_PREFETCH_BUFFER_ENABLE();
 8001a1c:	f043 0310 	orr.w	r3, r3, #16
 8001a20:	6013      	str	r3, [r2, #0]
  HAL_NVIC_SetPriorityGrouping(NVIC_PRIORITYGROUP_4);
 8001a22:	f000 f82d 	bl	8001a80 <HAL_NVIC_SetPriorityGrouping>
  HAL_InitTick(TICK_INT_PRIORITY);
 8001a26:	2000      	movs	r0, #0
 8001a28:	f7ff ffd0 	bl	80019cc <HAL_InitTick>
  HAL_MspInit();
 8001a2c:	f7ff fbde 	bl	80011ec <HAL_MspInit>
}
 8001a30:	2000      	movs	r0, #0
 8001a32:	bd08      	pop	{r3, pc}
 8001a34:	40022000 	.word	0x40022000

08001a38 <HAL_IncTick>:
  *      implementations in user file.
  * @retval None
  */
__weak void HAL_IncTick(void)
{
  uwTick += uwTickFreq;
 8001a38:	4a03      	ldr	r2, [pc, #12]	; (8001a48 <HAL_IncTick+0x10>)
 8001a3a:	4b04      	ldr	r3, [pc, #16]	; (8001a4c <HAL_IncTick+0x14>)
 8001a3c:	6811      	ldr	r1, [r2, #0]
 8001a3e:	781b      	ldrb	r3, [r3, #0]
 8001a40:	440b      	add	r3, r1
 8001a42:	6013      	str	r3, [r2, #0]
 8001a44:	4770      	bx	lr
 8001a46:	bf00      	nop
 8001a48:	200045b8 	.word	0x200045b8
 8001a4c:	2000000c 	.word	0x2000000c

08001a50 <HAL_GetTick>:
  *       implementations in user file.
  * @retval tick value
  */
__weak uint32_t HAL_GetTick(void)
{
  return uwTick;
 8001a50:	4b01      	ldr	r3, [pc, #4]	; (8001a58 <HAL_GetTick+0x8>)
 8001a52:	6818      	ldr	r0, [r3, #0]
}
 8001a54:	4770      	bx	lr
 8001a56:	bf00      	nop
 8001a58:	200045b8 	.word	0x200045b8

08001a5c <HAL_Delay>:
  *       implementations in user file.
  * @param Delay specifies the delay time length, in milliseconds.
  * @retval None
  */
__weak void HAL_Delay(uint32_t Delay)
{
 8001a5c:	b538      	push	{r3, r4, r5, lr}
 8001a5e:	4604      	mov	r4, r0
  uint32_t tickstart = HAL_GetTick();
 8001a60:	f7ff fff6 	bl	8001a50 <HAL_GetTick>
 8001a64:	4605      	mov	r5, r0
  uint32_t wait = Delay;

  /* Add a freq to guarantee minimum wait */
  if (wait < HAL_MAX_DELAY)
 8001a66:	1c63      	adds	r3, r4, #1
  {
    wait += (uint32_t)(uwTickFreq);
 8001a68:	bf1e      	ittt	ne
 8001a6a:	4b04      	ldrne	r3, [pc, #16]	; (8001a7c <HAL_Delay+0x20>)
 8001a6c:	781b      	ldrbne	r3, [r3, #0]
 8001a6e:	18e4      	addne	r4, r4, r3
  }

  while ((HAL_GetTick() - tickstart) < wait)
 8001a70:	f7ff ffee 	bl	8001a50 <HAL_GetTick>
 8001a74:	1b40      	subs	r0, r0, r5
 8001a76:	4284      	cmp	r4, r0
 8001a78:	d8fa      	bhi.n	8001a70 <HAL_Delay+0x14>
  {
  }
}
 8001a7a:	bd38      	pop	{r3, r4, r5, pc}
 8001a7c:	2000000c 	.word	0x2000000c

08001a80 <HAL_NVIC_SetPriorityGrouping>:
__STATIC_INLINE void NVIC_SetPriorityGrouping(uint32_t PriorityGroup)
{
  uint32_t reg_value;
  uint32_t PriorityGroupTmp = (PriorityGroup & (uint32_t)0x07UL);             /* only values 0..7 are used          */

  reg_value  =  SCB->AIRCR;                                                   /* read old register configuration    */
 8001a80:	4a07      	ldr	r2, [pc, #28]	; (8001aa0 <HAL_NVIC_SetPriorityGrouping+0x20>)
  reg_value &= ~((uint32_t)(SCB_AIRCR_VECTKEY_Msk | SCB_AIRCR_PRIGROUP_Msk)); /* clear bits to change               */
  reg_value  =  (reg_value                                   |
                ((uint32_t)0x5FAUL << SCB_AIRCR_VECTKEY_Pos) |
                (PriorityGroupTmp << 8U)                      );              /* Insert write key and priorty group */
 8001a82:	0200      	lsls	r0, r0, #8
  reg_value  =  SCB->AIRCR;                                                   /* read old register configuration    */
 8001a84:	68d3      	ldr	r3, [r2, #12]
                (PriorityGroupTmp << 8U)                      );              /* Insert write key and priorty group */
 8001a86:	f400 60e0 	and.w	r0, r0, #1792	; 0x700
  reg_value &= ~((uint32_t)(SCB_AIRCR_VECTKEY_Msk | SCB_AIRCR_PRIGROUP_Msk)); /* clear bits to change               */
 8001a8a:	f423 63e0 	bic.w	r3, r3, #1792	; 0x700
 8001a8e:	041b      	lsls	r3, r3, #16
 8001a90:	0c1b      	lsrs	r3, r3, #16
 8001a92:	f043 63bf 	orr.w	r3, r3, #100139008	; 0x5f80000
 8001a96:	f443 3300 	orr.w	r3, r3, #131072	; 0x20000
  reg_value  =  (reg_value                                   |
 8001a9a:	4303      	orrs	r3, r0
  SCB->AIRCR =  reg_value;
 8001a9c:	60d3      	str	r3, [r2, #12]
 8001a9e:	4770      	bx	lr
 8001aa0:	e000ed00 	.word	0xe000ed00

08001aa4 <HAL_NVIC_SetPriority>:
  \details Reads the priority grouping field from the NVIC Interrupt Controller.
  \return                Priority grouping field (SCB->AIRCR [10:8] PRIGROUP field).
 */
__STATIC_INLINE uint32_t NVIC_GetPriorityGrouping(void)
{
  return ((uint32_t)((SCB->AIRCR & SCB_AIRCR_PRIGROUP_Msk) >> SCB_AIRCR_PRIGROUP_Pos));
 8001aa4:	4b17      	ldr	r3, [pc, #92]	; (8001b04 <HAL_NVIC_SetPriority+0x60>)
  *         This parameter can be a value between 0 and 15
  *         A lower priority value indicates a higher priority.          
  * @retval None
  */
void HAL_NVIC_SetPriority(IRQn_Type IRQn, uint32_t PreemptPriority, uint32_t SubPriority)
{ 
 8001aa6:	b530      	push	{r4, r5, lr}
 8001aa8:	68dc      	ldr	r4, [r3, #12]
 8001aaa:	f3c4 2402 	ubfx	r4, r4, #8, #3
{
  uint32_t PriorityGroupTmp = (PriorityGroup & (uint32_t)0x07UL);   /* only values 0..7 are used          */
  uint32_t PreemptPriorityBits;
  uint32_t SubPriorityBits;

  PreemptPriorityBits = ((7UL - PriorityGroupTmp) > (uint32_t)(__NVIC_PRIO_BITS)) ? (uint32_t)(__NVIC_PRIO_BITS) : (uint32_t)(7UL - PriorityGroupTmp);
 8001aae:	f1c4 0307 	rsb	r3, r4, #7
  SubPriorityBits     = ((PriorityGroupTmp + (uint32_t)(__NVIC_PRIO_BITS)) < (uint32_t)7UL) ? (uint32_t)0UL : (uint32_t)((PriorityGroupTmp - 7UL) + (uint32_t)(__NVIC_PRIO_BITS));
 8001ab2:	1d25      	adds	r5, r4, #4
  PreemptPriorityBits = ((7UL - PriorityGroupTmp) > (uint32_t)(__NVIC_PRIO_BITS)) ? (uint32_t)(__NVIC_PRIO_BITS) : (uint32_t)(7UL - PriorityGroupTmp);
 8001ab4:	2b04      	cmp	r3, #4
 8001ab6:	bf28      	it	cs
 8001ab8:	2304      	movcs	r3, #4
  SubPriorityBits     = ((PriorityGroupTmp + (uint32_t)(__NVIC_PRIO_BITS)) < (uint32_t)7UL) ? (uint32_t)0UL : (uint32_t)((PriorityGroupTmp - 7UL) + (uint32_t)(__NVIC_PRIO_BITS));
 8001aba:	2d06      	cmp	r5, #6

  return (
           ((PreemptPriority & (uint32_t)((1UL << (PreemptPriorityBits)) - 1UL)) << SubPriorityBits) |
 8001abc:	f04f 0501 	mov.w	r5, #1
  SubPriorityBits     = ((PriorityGroupTmp + (uint32_t)(__NVIC_PRIO_BITS)) < (uint32_t)7UL) ? (uint32_t)0UL : (uint32_t)((PriorityGroupTmp - 7UL) + (uint32_t)(__NVIC_PRIO_BITS));
 8001ac0:	bf98      	it	ls
 8001ac2:	2400      	movls	r4, #0
           ((PreemptPriority & (uint32_t)((1UL << (PreemptPriorityBits)) - 1UL)) << SubPriorityBits) |
 8001ac4:	fa05 f303 	lsl.w	r3, r5, r3
 8001ac8:	f103 33ff 	add.w	r3, r3, #4294967295
  SubPriorityBits     = ((PriorityGroupTmp + (uint32_t)(__NVIC_PRIO_BITS)) < (uint32_t)7UL) ? (uint32_t)0UL : (uint32_t)((PriorityGroupTmp - 7UL) + (uint32_t)(__NVIC_PRIO_BITS));
 8001acc:	bf88      	it	hi
 8001ace:	3c03      	subhi	r4, #3
           ((PreemptPriority & (uint32_t)((1UL << (PreemptPriorityBits)) - 1UL)) << SubPriorityBits) |
 8001ad0:	4019      	ands	r1, r3
 8001ad2:	40a1      	lsls	r1, r4
           ((SubPriority     & (uint32_t)((1UL << (SubPriorityBits    )) - 1UL)))
 8001ad4:	fa05 f404 	lsl.w	r4, r5, r4
 8001ad8:	3c01      	subs	r4, #1
 8001ada:	4022      	ands	r2, r4
  if ((int32_t)(IRQn) < 0)
 8001adc:	2800      	cmp	r0, #0
           ((PreemptPriority & (uint32_t)((1UL << (PreemptPriorityBits)) - 1UL)) << SubPriorityBits) |
 8001ade:	ea42 0201 	orr.w	r2, r2, r1
 8001ae2:	ea4f 1202 	mov.w	r2, r2, lsl #4
    NVIC->IP[((uint32_t)(int32_t)IRQn)]               = (uint8_t)((priority << (8U - __NVIC_PRIO_BITS)) & (uint32_t)0xFFUL);
 8001ae6:	bfaf      	iteee	ge
 8001ae8:	f100 4060 	addge.w	r0, r0, #3758096384	; 0xe0000000
    SCB->SHP[(((uint32_t)(int32_t)IRQn) & 0xFUL)-4UL] = (uint8_t)((priority << (8U - __NVIC_PRIO_BITS)) & (uint32_t)0xFFUL);
 8001aec:	4b06      	ldrlt	r3, [pc, #24]	; (8001b08 <HAL_NVIC_SetPriority+0x64>)
 8001aee:	f000 000f 	andlt.w	r0, r0, #15
 8001af2:	b2d2      	uxtblt	r2, r2
    NVIC->IP[((uint32_t)(int32_t)IRQn)]               = (uint8_t)((priority << (8U - __NVIC_PRIO_BITS)) & (uint32_t)0xFFUL);
 8001af4:	bfa5      	ittet	ge
 8001af6:	b2d2      	uxtbge	r2, r2
 8001af8:	f500 4061 	addge.w	r0, r0, #57600	; 0xe100
    SCB->SHP[(((uint32_t)(int32_t)IRQn) & 0xFUL)-4UL] = (uint8_t)((priority << (8U - __NVIC_PRIO_BITS)) & (uint32_t)0xFFUL);
 8001afc:	541a      	strblt	r2, [r3, r0]
    NVIC->IP[((uint32_t)(int32_t)IRQn)]               = (uint8_t)((priority << (8U - __NVIC_PRIO_BITS)) & (uint32_t)0xFFUL);
 8001afe:	f880 2300 	strbge.w	r2, [r0, #768]	; 0x300
 8001b02:	bd30      	pop	{r4, r5, pc}
 8001b04:	e000ed00 	.word	0xe000ed00
 8001b08:	e000ed14 	.word	0xe000ed14

08001b0c <HAL_SYSTICK_Config>:
           function <b>SysTick_Config</b> is not included. In this case, the file <b><i>device</i>.h</b>
           must contain a vendor-specific implementation of this function.
 */
__STATIC_INLINE uint32_t SysTick_Config(uint32_t ticks)
{
  if ((ticks - 1UL) > SysTick_LOAD_RELOAD_Msk)
 8001b0c:	3801      	subs	r0, #1
 8001b0e:	f1b0 7f80 	cmp.w	r0, #16777216	; 0x1000000
 8001b12:	d20a      	bcs.n	8001b2a <HAL_SYSTICK_Config+0x1e>
    SCB->SHP[(((uint32_t)(int32_t)IRQn) & 0xFUL)-4UL] = (uint8_t)((priority << (8U - __NVIC_PRIO_BITS)) & (uint32_t)0xFFUL);
 8001b14:	21f0      	movs	r1, #240	; 0xf0
  {
    return (1UL);                                                   /* Reload value impossible */
  }

  SysTick->LOAD  = (uint32_t)(ticks - 1UL);                         /* set reload register */
 8001b16:	4b06      	ldr	r3, [pc, #24]	; (8001b30 <HAL_SYSTICK_Config+0x24>)
    SCB->SHP[(((uint32_t)(int32_t)IRQn) & 0xFUL)-4UL] = (uint8_t)((priority << (8U - __NVIC_PRIO_BITS)) & (uint32_t)0xFFUL);
 8001b18:	4a06      	ldr	r2, [pc, #24]	; (8001b34 <HAL_SYSTICK_Config+0x28>)
  SysTick->LOAD  = (uint32_t)(ticks - 1UL);                         /* set reload register */
 8001b1a:	6058      	str	r0, [r3, #4]
    SCB->SHP[(((uint32_t)(int32_t)IRQn) & 0xFUL)-4UL] = (uint8_t)((priority << (8U - __NVIC_PRIO_BITS)) & (uint32_t)0xFFUL);
 8001b1c:	f882 1023 	strb.w	r1, [r2, #35]	; 0x23
  NVIC_SetPriority (SysTick_IRQn, (1UL << __NVIC_PRIO_BITS) - 1UL); /* set Priority for Systick Interrupt */
  SysTick->VAL   = 0UL;                                             /* Load the SysTick Counter Value */
 8001b20:	2000      	movs	r0, #0
  SysTick->CTRL  = SysTick_CTRL_CLKSOURCE_Msk |
 8001b22:	2207      	movs	r2, #7
  SysTick->VAL   = 0UL;                                             /* Load the SysTick Counter Value */
 8001b24:	6098      	str	r0, [r3, #8]
  SysTick->CTRL  = SysTick_CTRL_CLKSOURCE_Msk |
 8001b26:	601a      	str	r2, [r3, #0]
 8001b28:	4770      	bx	lr
    return (1UL);                                                   /* Reload value impossible */
 8001b2a:	2001      	movs	r0, #1
  *                  - 1  Function failed.
  */
uint32_t HAL_SYSTICK_Config(uint32_t TicksNumb)
{
   return SysTick_Config(TicksNumb);
}
 8001b2c:	4770      	bx	lr
 8001b2e:	bf00      	nop
 8001b30:	e000e010 	.word	0xe000e010
 8001b34:	e000ed00 	.word	0xe000ed00

08001b38 <HAL_SYSTICK_CLKSourceConfig>:
  *             @arg SYSTICK_CLKSOURCE_HCLK_DIV8: AHB clock divided by 8 selected as SysTick clock source.
  *             @arg SYSTICK_CLKSOURCE_HCLK: AHB clock selected as SysTick clock source.
  * @retval None
  */
void HAL_SYSTICK_CLKSourceConfig(uint32_t CLKSource)
{
 8001b38:	4b04      	ldr	r3, [pc, #16]	; (8001b4c <HAL_SYSTICK_CLKSourceConfig+0x14>)
  /* Check the parameters */
  assert_param(IS_SYSTICK_CLK_SOURCE(CLKSource));
  if (CLKSource == SYSTICK_CLKSOURCE_HCLK)
 8001b3a:	2804      	cmp	r0, #4
  {
    SysTick->CTRL |= SYSTICK_CLKSOURCE_HCLK;
 8001b3c:	681a      	ldr	r2, [r3, #0]
 8001b3e:	bf0c      	ite	eq
 8001b40:	f042 0204 	orreq.w	r2, r2, #4
  }
  else
  {
    SysTick->CTRL &= ~SYSTICK_CLKSOURCE_HCLK;
 8001b44:	f022 0204 	bicne.w	r2, r2, #4
 8001b48:	601a      	str	r2, [r3, #0]
 8001b4a:	4770      	bx	lr
 8001b4c:	e000e010 	.word	0xe000e010

08001b50 <HAL_SYSTICK_Callback>:
/**
  * @brief  SYSTICK callback.
  * @retval None
  */
__weak void HAL_SYSTICK_Callback(void)
{
 8001b50:	4770      	bx	lr

08001b52 <HAL_SYSTICK_IRQHandler>:
{
 8001b52:	b508      	push	{r3, lr}
  HAL_SYSTICK_Callback();
 8001b54:	f7ff fffc 	bl	8001b50 <HAL_SYSTICK_Callback>
 8001b58:	bd08      	pop	{r3, pc}
	...

08001b5c <HAL_GPIO_Init>:
  * @param  GPIO_Init: pointer to a GPIO_InitTypeDef structure that contains
  *         the configuration information for the specified GPIO peripheral.
  * @retval None
  */
void HAL_GPIO_Init(GPIO_TypeDef  *GPIOx, GPIO_InitTypeDef *GPIO_Init)
{
 8001b5c:	e92d 4ff7 	stmdb	sp!, {r0, r1, r2, r4, r5, r6, r7, r8, r9, sl, fp, lr}
  uint32_t position;
  uint32_t ioposition = 0x00U;
  uint32_t iocurrent = 0x00U;
  uint32_t temp = 0x00U;
  uint32_t config = 0x00U;
 8001b60:	2200      	movs	r2, #0
  assert_param(IS_GPIO_ALL_INSTANCE(GPIOx));
  assert_param(IS_GPIO_PIN(GPIO_Init->Pin));
  assert_param(IS_GPIO_MODE(GPIO_Init->Mode));

  /* Configure the port pins */
  for (position = 0U; position < GPIO_NUMBER; position++)
 8001b62:	4616      	mov	r6, r2
      /*--------------------- EXTI Mode Configuration ------------------------*/
      /* Configure the External Interrupt or event for the current IO */
      if ((GPIO_Init->Mode & EXTI_MODE) == EXTI_MODE)
      {
        /* Enable AFIO Clock */
        __HAL_RCC_AFIO_CLK_ENABLE();
 8001b64:	4f6c      	ldr	r7, [pc, #432]	; (8001d18 <HAL_GPIO_Init+0x1bc>)
 8001b66:	4b6d      	ldr	r3, [pc, #436]	; (8001d1c <HAL_GPIO_Init+0x1c0>)
        temp = AFIO->EXTICR[position >> 2U];
        CLEAR_BIT(temp, (0x0FU) << (4U * (position & 0x03U)));
        SET_BIT(temp, (GPIO_GET_INDEX(GPIOx)) << (4U * (position & 0x03U)));
 8001b68:	f8df e1b8 	ldr.w	lr, [pc, #440]	; 8001d24 <HAL_GPIO_Init+0x1c8>
      switch (GPIO_Init->Mode)
 8001b6c:	f8df c1b8 	ldr.w	ip, [pc, #440]	; 8001d28 <HAL_GPIO_Init+0x1cc>
    ioposition = (0x01U << position);
 8001b70:	f04f 0801 	mov.w	r8, #1
    iocurrent = (uint32_t)(GPIO_Init->Pin) & ioposition;
 8001b74:	680c      	ldr	r4, [r1, #0]
    ioposition = (0x01U << position);
 8001b76:	fa08 f806 	lsl.w	r8, r8, r6
    iocurrent = (uint32_t)(GPIO_Init->Pin) & ioposition;
 8001b7a:	ea08 0404 	and.w	r4, r8, r4
    if (iocurrent == ioposition)
 8001b7e:	45a0      	cmp	r8, r4
 8001b80:	f040 8085 	bne.w	8001c8e <HAL_GPIO_Init+0x132>
      switch (GPIO_Init->Mode)
 8001b84:	684d      	ldr	r5, [r1, #4]
 8001b86:	2d12      	cmp	r5, #18
 8001b88:	f000 80b7 	beq.w	8001cfa <HAL_GPIO_Init+0x19e>
 8001b8c:	f200 808d 	bhi.w	8001caa <HAL_GPIO_Init+0x14e>
 8001b90:	2d02      	cmp	r5, #2
 8001b92:	f000 80af 	beq.w	8001cf4 <HAL_GPIO_Init+0x198>
 8001b96:	f200 8081 	bhi.w	8001c9c <HAL_GPIO_Init+0x140>
 8001b9a:	2d00      	cmp	r5, #0
 8001b9c:	f000 8091 	beq.w	8001cc2 <HAL_GPIO_Init+0x166>
 8001ba0:	2d01      	cmp	r5, #1
 8001ba2:	f000 80a5 	beq.w	8001cf0 <HAL_GPIO_Init+0x194>
      MODIFY_REG((*configregister), ((GPIO_CRL_MODE0 | GPIO_CRL_CNF0) << registeroffset), (config << registeroffset));
 8001ba6:	f04f 090f 	mov.w	r9, #15
      configregister = (iocurrent < GPIO_PIN_8) ? &GPIOx->CRL     : &GPIOx->CRH;
 8001baa:	2cff      	cmp	r4, #255	; 0xff
 8001bac:	bf93      	iteet	ls
 8001bae:	4682      	movls	sl, r0
 8001bb0:	f106 4580 	addhi.w	r5, r6, #1073741824	; 0x40000000
 8001bb4:	3d08      	subhi	r5, #8
 8001bb6:	f8d0 b000 	ldrls.w	fp, [r0]
 8001bba:	bf92      	itee	ls
 8001bbc:	00b5      	lslls	r5, r6, #2
 8001bbe:	f8d0 b004 	ldrhi.w	fp, [r0, #4]
 8001bc2:	00ad      	lslhi	r5, r5, #2
      MODIFY_REG((*configregister), ((GPIO_CRL_MODE0 | GPIO_CRL_CNF0) << registeroffset), (config << registeroffset));
 8001bc4:	fa09 f805 	lsl.w	r8, r9, r5
 8001bc8:	ea2b 0808 	bic.w	r8, fp, r8
 8001bcc:	fa02 f505 	lsl.w	r5, r2, r5
      configregister = (iocurrent < GPIO_PIN_8) ? &GPIOx->CRL     : &GPIOx->CRH;
 8001bd0:	bf88      	it	hi
 8001bd2:	f100 0a04 	addhi.w	sl, r0, #4
      MODIFY_REG((*configregister), ((GPIO_CRL_MODE0 | GPIO_CRL_CNF0) << registeroffset), (config << registeroffset));
 8001bd6:	ea48 0505 	orr.w	r5, r8, r5
 8001bda:	f8ca 5000 	str.w	r5, [sl]
      if ((GPIO_Init->Mode & EXTI_MODE) == EXTI_MODE)
 8001bde:	f8d1 a004 	ldr.w	sl, [r1, #4]
 8001be2:	f01a 5f80 	tst.w	sl, #268435456	; 0x10000000
 8001be6:	d052      	beq.n	8001c8e <HAL_GPIO_Init+0x132>
        __HAL_RCC_AFIO_CLK_ENABLE();
 8001be8:	69bd      	ldr	r5, [r7, #24]
 8001bea:	f026 0803 	bic.w	r8, r6, #3
 8001bee:	f045 0501 	orr.w	r5, r5, #1
 8001bf2:	61bd      	str	r5, [r7, #24]
 8001bf4:	69bd      	ldr	r5, [r7, #24]
 8001bf6:	f108 4880 	add.w	r8, r8, #1073741824	; 0x40000000
 8001bfa:	f005 0501 	and.w	r5, r5, #1
 8001bfe:	9501      	str	r5, [sp, #4]
 8001c00:	f508 3880 	add.w	r8, r8, #65536	; 0x10000
        CLEAR_BIT(temp, (0x0FU) << (4U * (position & 0x03U)));
 8001c04:	f006 0b03 	and.w	fp, r6, #3
        __HAL_RCC_AFIO_CLK_ENABLE();
 8001c08:	9d01      	ldr	r5, [sp, #4]
        CLEAR_BIT(temp, (0x0FU) << (4U * (position & 0x03U)));
 8001c0a:	ea4f 0b8b 	mov.w	fp, fp, lsl #2
        temp = AFIO->EXTICR[position >> 2U];
 8001c0e:	f8d8 5008 	ldr.w	r5, [r8, #8]
        CLEAR_BIT(temp, (0x0FU) << (4U * (position & 0x03U)));
 8001c12:	fa09 f90b 	lsl.w	r9, r9, fp
 8001c16:	ea25 0909 	bic.w	r9, r5, r9
        SET_BIT(temp, (GPIO_GET_INDEX(GPIOx)) << (4U * (position & 0x03U)));
 8001c1a:	4d41      	ldr	r5, [pc, #260]	; (8001d20 <HAL_GPIO_Init+0x1c4>)
 8001c1c:	42a8      	cmp	r0, r5
 8001c1e:	d071      	beq.n	8001d04 <HAL_GPIO_Init+0x1a8>
 8001c20:	f505 6580 	add.w	r5, r5, #1024	; 0x400
 8001c24:	42a8      	cmp	r0, r5
 8001c26:	d06f      	beq.n	8001d08 <HAL_GPIO_Init+0x1ac>
 8001c28:	f505 6580 	add.w	r5, r5, #1024	; 0x400
 8001c2c:	42a8      	cmp	r0, r5
 8001c2e:	d06d      	beq.n	8001d0c <HAL_GPIO_Init+0x1b0>
 8001c30:	f505 6580 	add.w	r5, r5, #1024	; 0x400
 8001c34:	42a8      	cmp	r0, r5
 8001c36:	d06b      	beq.n	8001d10 <HAL_GPIO_Init+0x1b4>
 8001c38:	f505 6580 	add.w	r5, r5, #1024	; 0x400
 8001c3c:	42a8      	cmp	r0, r5
 8001c3e:	d069      	beq.n	8001d14 <HAL_GPIO_Init+0x1b8>
 8001c40:	4570      	cmp	r0, lr
 8001c42:	bf0c      	ite	eq
 8001c44:	2505      	moveq	r5, #5
 8001c46:	2506      	movne	r5, #6
 8001c48:	fa05 f50b 	lsl.w	r5, r5, fp
 8001c4c:	ea45 0509 	orr.w	r5, r5, r9
        AFIO->EXTICR[position >> 2U] = temp;
 8001c50:	f8c8 5008 	str.w	r5, [r8, #8]


        /* Configure the interrupt mask */
        if ((GPIO_Init->Mode & GPIO_MODE_IT) == GPIO_MODE_IT)
        {
          SET_BIT(EXTI->IMR, iocurrent);
 8001c54:	681d      	ldr	r5, [r3, #0]
        if ((GPIO_Init->Mode & GPIO_MODE_IT) == GPIO_MODE_IT)
 8001c56:	f41a 3f80 	tst.w	sl, #65536	; 0x10000
          SET_BIT(EXTI->IMR, iocurrent);
 8001c5a:	bf14      	ite	ne
 8001c5c:	4325      	orrne	r5, r4
        }
        else
        {
          CLEAR_BIT(EXTI->IMR, iocurrent);
 8001c5e:	43a5      	biceq	r5, r4
 8001c60:	601d      	str	r5, [r3, #0]
        }

        /* Configure the event mask */
        if ((GPIO_Init->Mode & GPIO_MODE_EVT) == GPIO_MODE_EVT)
        {
          SET_BIT(EXTI->EMR, iocurrent);
 8001c62:	685d      	ldr	r5, [r3, #4]
        if ((GPIO_Init->Mode & GPIO_MODE_EVT) == GPIO_MODE_EVT)
 8001c64:	f41a 3f00 	tst.w	sl, #131072	; 0x20000
          SET_BIT(EXTI->EMR, iocurrent);
 8001c68:	bf14      	ite	ne
 8001c6a:	4325      	orrne	r5, r4
        }
        else
        {
          CLEAR_BIT(EXTI->EMR, iocurrent);
 8001c6c:	43a5      	biceq	r5, r4
 8001c6e:	605d      	str	r5, [r3, #4]
        }

        /* Enable or disable the rising trigger */
        if ((GPIO_Init->Mode & RISING_EDGE) == RISING_EDGE)
        {
          SET_BIT(EXTI->RTSR, iocurrent);
 8001c70:	689d      	ldr	r5, [r3, #8]
        if ((GPIO_Init->Mode & RISING_EDGE) == RISING_EDGE)
 8001c72:	f41a 1f80 	tst.w	sl, #1048576	; 0x100000
          SET_BIT(EXTI->RTSR, iocurrent);
 8001c76:	bf14      	ite	ne
 8001c78:	4325      	orrne	r5, r4
        }
        else
        {
          CLEAR_BIT(EXTI->RTSR, iocurrent);
 8001c7a:	43a5      	biceq	r5, r4
 8001c7c:	609d      	str	r5, [r3, #8]
        }

        /* Enable or disable the falling trigger */
        if ((GPIO_Init->Mode & FALLING_EDGE) == FALLING_EDGE)
        {
          SET_BIT(EXTI->FTSR, iocurrent);
 8001c7e:	68dd      	ldr	r5, [r3, #12]
        if ((GPIO_Init->Mode & FALLING_EDGE) == FALLING_EDGE)
 8001c80:	f41a 1f00 	tst.w	sl, #2097152	; 0x200000
          SET_BIT(EXTI->FTSR, iocurrent);
 8001c84:	bf14      	ite	ne
 8001c86:	432c      	orrne	r4, r5
        }
        else
        {
          CLEAR_BIT(EXTI->FTSR, iocurrent);
 8001c88:	ea25 0404 	biceq.w	r4, r5, r4
 8001c8c:	60dc      	str	r4, [r3, #12]
  for (position = 0U; position < GPIO_NUMBER; position++)
 8001c8e:	3601      	adds	r6, #1
 8001c90:	2e10      	cmp	r6, #16
 8001c92:	f47f af6d 	bne.w	8001b70 <HAL_GPIO_Init+0x14>
        }
      }
    }
  }
}
 8001c96:	b003      	add	sp, #12
 8001c98:	e8bd 8ff0 	ldmia.w	sp!, {r4, r5, r6, r7, r8, r9, sl, fp, pc}
      switch (GPIO_Init->Mode)
 8001c9c:	2d03      	cmp	r5, #3
 8001c9e:	d025      	beq.n	8001cec <HAL_GPIO_Init+0x190>
 8001ca0:	2d11      	cmp	r5, #17
 8001ca2:	d180      	bne.n	8001ba6 <HAL_GPIO_Init+0x4a>
          config = GPIO_Init->Speed + GPIO_CR_CNF_GP_OUTPUT_OD;
 8001ca4:	68ca      	ldr	r2, [r1, #12]
 8001ca6:	3204      	adds	r2, #4
          break;
 8001ca8:	e77d      	b.n	8001ba6 <HAL_GPIO_Init+0x4a>
      switch (GPIO_Init->Mode)
 8001caa:	4565      	cmp	r5, ip
 8001cac:	d009      	beq.n	8001cc2 <HAL_GPIO_Init+0x166>
 8001cae:	d812      	bhi.n	8001cd6 <HAL_GPIO_Init+0x17a>
 8001cb0:	f8df 9078 	ldr.w	r9, [pc, #120]	; 8001d2c <HAL_GPIO_Init+0x1d0>
 8001cb4:	454d      	cmp	r5, r9
 8001cb6:	d004      	beq.n	8001cc2 <HAL_GPIO_Init+0x166>
 8001cb8:	f509 3980 	add.w	r9, r9, #65536	; 0x10000
 8001cbc:	454d      	cmp	r5, r9
 8001cbe:	f47f af72 	bne.w	8001ba6 <HAL_GPIO_Init+0x4a>
          if (GPIO_Init->Pull == GPIO_NOPULL)
 8001cc2:	688a      	ldr	r2, [r1, #8]
 8001cc4:	b1e2      	cbz	r2, 8001d00 <HAL_GPIO_Init+0x1a4>
          else if (GPIO_Init->Pull == GPIO_PULLUP)
 8001cc6:	2a01      	cmp	r2, #1
            GPIOx->BSRR = ioposition;
 8001cc8:	bf0c      	ite	eq
 8001cca:	f8c0 8010 	streq.w	r8, [r0, #16]
            GPIOx->BRR = ioposition;
 8001cce:	f8c0 8014 	strne.w	r8, [r0, #20]
            config = GPIO_CR_MODE_INPUT + GPIO_CR_CNF_INPUT_PU_PD;
 8001cd2:	2208      	movs	r2, #8
 8001cd4:	e767      	b.n	8001ba6 <HAL_GPIO_Init+0x4a>
      switch (GPIO_Init->Mode)
 8001cd6:	f8df 9058 	ldr.w	r9, [pc, #88]	; 8001d30 <HAL_GPIO_Init+0x1d4>
 8001cda:	454d      	cmp	r5, r9
 8001cdc:	d0f1      	beq.n	8001cc2 <HAL_GPIO_Init+0x166>
 8001cde:	f509 3980 	add.w	r9, r9, #65536	; 0x10000
 8001ce2:	454d      	cmp	r5, r9
 8001ce4:	d0ed      	beq.n	8001cc2 <HAL_GPIO_Init+0x166>
 8001ce6:	f5a9 1980 	sub.w	r9, r9, #1048576	; 0x100000
 8001cea:	e7e7      	b.n	8001cbc <HAL_GPIO_Init+0x160>
          config = GPIO_CR_MODE_INPUT + GPIO_CR_CNF_ANALOG;
 8001cec:	2200      	movs	r2, #0
 8001cee:	e75a      	b.n	8001ba6 <HAL_GPIO_Init+0x4a>
          config = GPIO_Init->Speed + GPIO_CR_CNF_GP_OUTPUT_PP;
 8001cf0:	68ca      	ldr	r2, [r1, #12]
          break;
 8001cf2:	e758      	b.n	8001ba6 <HAL_GPIO_Init+0x4a>
          config = GPIO_Init->Speed + GPIO_CR_CNF_AF_OUTPUT_PP;
 8001cf4:	68ca      	ldr	r2, [r1, #12]
 8001cf6:	3208      	adds	r2, #8
          break;
 8001cf8:	e755      	b.n	8001ba6 <HAL_GPIO_Init+0x4a>
          config = GPIO_Init->Speed + GPIO_CR_CNF_AF_OUTPUT_OD;
 8001cfa:	68ca      	ldr	r2, [r1, #12]
 8001cfc:	320c      	adds	r2, #12
          break;
 8001cfe:	e752      	b.n	8001ba6 <HAL_GPIO_Init+0x4a>
            config = GPIO_CR_MODE_INPUT + GPIO_CR_CNF_INPUT_FLOATING;
 8001d00:	2204      	movs	r2, #4
 8001d02:	e750      	b.n	8001ba6 <HAL_GPIO_Init+0x4a>
        SET_BIT(temp, (GPIO_GET_INDEX(GPIOx)) << (4U * (position & 0x03U)));
 8001d04:	2500      	movs	r5, #0
 8001d06:	e79f      	b.n	8001c48 <HAL_GPIO_Init+0xec>
 8001d08:	2501      	movs	r5, #1
 8001d0a:	e79d      	b.n	8001c48 <HAL_GPIO_Init+0xec>
 8001d0c:	2502      	movs	r5, #2
 8001d0e:	e79b      	b.n	8001c48 <HAL_GPIO_Init+0xec>
 8001d10:	2503      	movs	r5, #3
 8001d12:	e799      	b.n	8001c48 <HAL_GPIO_Init+0xec>
 8001d14:	2504      	movs	r5, #4
 8001d16:	e797      	b.n	8001c48 <HAL_GPIO_Init+0xec>
 8001d18:	40021000 	.word	0x40021000
 8001d1c:	40010400 	.word	0x40010400
 8001d20:	40010800 	.word	0x40010800
 8001d24:	40011c00 	.word	0x40011c00
 8001d28:	10210000 	.word	0x10210000
 8001d2c:	10110000 	.word	0x10110000
 8001d30:	10310000 	.word	0x10310000

08001d34 <HAL_GPIO_ReadPin>:
  GPIO_PinState bitstatus;

  /* Check the parameters */
  assert_param(IS_GPIO_PIN(GPIO_Pin));

  if ((GPIOx->IDR & GPIO_Pin) != (uint32_t)GPIO_PIN_RESET)
 8001d34:	6883      	ldr	r3, [r0, #8]
 8001d36:	4219      	tst	r1, r3
  else
  {
    bitstatus = GPIO_PIN_RESET;
  }
  return bitstatus;
}
 8001d38:	bf14      	ite	ne
 8001d3a:	2001      	movne	r0, #1
 8001d3c:	2000      	moveq	r0, #0
 8001d3e:	4770      	bx	lr

08001d40 <HAL_GPIO_WritePin>:
{
  /* Check the parameters */
  assert_param(IS_GPIO_PIN(GPIO_Pin));
  assert_param(IS_GPIO_PIN_ACTION(PinState));

  if (PinState != GPIO_PIN_RESET)
 8001d40:	b10a      	cbz	r2, 8001d46 <HAL_GPIO_WritePin+0x6>
  {
    GPIOx->BSRR = GPIO_Pin;
  }
  else
  {
    GPIOx->BSRR = (uint32_t)GPIO_Pin << 16U;
 8001d42:	6101      	str	r1, [r0, #16]
 8001d44:	4770      	bx	lr
 8001d46:	0409      	lsls	r1, r1, #16
 8001d48:	e7fb      	b.n	8001d42 <HAL_GPIO_WritePin+0x2>

08001d4a <HAL_GPIO_TogglePin>:
void HAL_GPIO_TogglePin(GPIO_TypeDef *GPIOx, uint16_t GPIO_Pin)
{
  /* Check the parameters */
  assert_param(IS_GPIO_PIN(GPIO_Pin));

  GPIOx->ODR ^= GPIO_Pin;
 8001d4a:	68c3      	ldr	r3, [r0, #12]
 8001d4c:	4059      	eors	r1, r3
 8001d4e:	60c1      	str	r1, [r0, #12]
 8001d50:	4770      	bx	lr
	...

08001d54 <HAL_PWR_EnableBkUpAccess>:
  * @retval None
  */
void HAL_PWR_EnableBkUpAccess(void)
{
  /* Enable access to RTC and backup registers */
  *(__IO uint32_t *) CR_DBP_BB = (uint32_t)ENABLE;
 8001d54:	2201      	movs	r2, #1
 8001d56:	4b01      	ldr	r3, [pc, #4]	; (8001d5c <HAL_PWR_EnableBkUpAccess+0x8>)
 8001d58:	601a      	str	r2, [r3, #0]
 8001d5a:	4770      	bx	lr
 8001d5c:	420e0020 	.word	0x420e0020

08001d60 <HAL_RCC_OscConfig>:
  /* Check the parameters */
  assert_param(RCC_OscInitStruct != NULL);
  assert_param(IS_RCC_OSCILLATORTYPE(RCC_OscInitStruct->OscillatorType));
  
  /*------------------------------- HSE Configuration ------------------------*/ 
  if(((RCC_OscInitStruct->OscillatorType) & RCC_OSCILLATORTYPE_HSE) == RCC_OSCILLATORTYPE_HSE)
 8001d60:	6803      	ldr	r3, [r0, #0]
{
 8001d62:	e92d 41f3 	stmdb	sp!, {r0, r1, r4, r5, r6, r7, r8, lr}
  if(((RCC_OscInitStruct->OscillatorType) & RCC_OSCILLATORTYPE_HSE) == RCC_OSCILLATORTYPE_HSE)
 8001d66:	07db      	lsls	r3, r3, #31
{
 8001d68:	4605      	mov	r5, r0
  if(((RCC_OscInitStruct->OscillatorType) & RCC_OSCILLATORTYPE_HSE) == RCC_OSCILLATORTYPE_HSE)
 8001d6a:	d410      	bmi.n	8001d8e <HAL_RCC_OscConfig+0x2e>
        }
      }
    }
  }
  /*----------------------------- HSI Configuration --------------------------*/ 
  if(((RCC_OscInitStruct->OscillatorType) & RCC_OSCILLATORTYPE_HSI) == RCC_OSCILLATORTYPE_HSI)
 8001d6c:	682b      	ldr	r3, [r5, #0]
 8001d6e:	079f      	lsls	r7, r3, #30
 8001d70:	d45e      	bmi.n	8001e30 <HAL_RCC_OscConfig+0xd0>
        }
      }
    }
  }
  /*------------------------------ LSI Configuration -------------------------*/ 
  if(((RCC_OscInitStruct->OscillatorType) & RCC_OSCILLATORTYPE_LSI) == RCC_OSCILLATORTYPE_LSI)
 8001d72:	682b      	ldr	r3, [r5, #0]
 8001d74:	0719      	lsls	r1, r3, #28
 8001d76:	f100 8095 	bmi.w	8001ea4 <HAL_RCC_OscConfig+0x144>
        }
      }
    }
  }
  /*------------------------------ LSE Configuration -------------------------*/ 
  if(((RCC_OscInitStruct->OscillatorType) & RCC_OSCILLATORTYPE_LSE) == RCC_OSCILLATORTYPE_LSE)
 8001d7a:	682b      	ldr	r3, [r5, #0]
 8001d7c:	075a      	lsls	r2, r3, #29
 8001d7e:	f100 80bf 	bmi.w	8001f00 <HAL_RCC_OscConfig+0x1a0>

#endif /* RCC_CR_PLL2ON */
  /*-------------------------------- PLL Configuration -----------------------*/
  /* Check the parameters */
  assert_param(IS_RCC_PLL(RCC_OscInitStruct->PLL.PLLState));
  if ((RCC_OscInitStruct->PLL.PLLState) != RCC_PLL_NONE)
 8001d82:	69ea      	ldr	r2, [r5, #28]
 8001d84:	2a00      	cmp	r2, #0
 8001d86:	f040 812d 	bne.w	8001fe4 <HAL_RCC_OscConfig+0x284>
    {
      return HAL_ERROR;
    }
  }
  
  return HAL_OK;
 8001d8a:	2000      	movs	r0, #0
 8001d8c:	e014      	b.n	8001db8 <HAL_RCC_OscConfig+0x58>
    if((__HAL_RCC_GET_SYSCLK_SOURCE() == RCC_SYSCLKSOURCE_STATUS_HSE) 
 8001d8e:	4c90      	ldr	r4, [pc, #576]	; (8001fd0 <HAL_RCC_OscConfig+0x270>)
 8001d90:	6863      	ldr	r3, [r4, #4]
 8001d92:	f003 030c 	and.w	r3, r3, #12
 8001d96:	2b04      	cmp	r3, #4
 8001d98:	d007      	beq.n	8001daa <HAL_RCC_OscConfig+0x4a>
       || ((__HAL_RCC_GET_SYSCLK_SOURCE() == RCC_SYSCLKSOURCE_STATUS_PLLCLK) && (__HAL_RCC_GET_PLL_OSCSOURCE() == RCC_PLLSOURCE_HSE)))
 8001d9a:	6863      	ldr	r3, [r4, #4]
 8001d9c:	f003 030c 	and.w	r3, r3, #12
 8001da0:	2b08      	cmp	r3, #8
 8001da2:	d10c      	bne.n	8001dbe <HAL_RCC_OscConfig+0x5e>
 8001da4:	6863      	ldr	r3, [r4, #4]
 8001da6:	03de      	lsls	r6, r3, #15
 8001da8:	d509      	bpl.n	8001dbe <HAL_RCC_OscConfig+0x5e>
      if((__HAL_RCC_GET_FLAG(RCC_FLAG_HSERDY) != RESET) && (RCC_OscInitStruct->HSEState == RCC_HSE_OFF))
 8001daa:	6823      	ldr	r3, [r4, #0]
 8001dac:	039c      	lsls	r4, r3, #14
 8001dae:	d5dd      	bpl.n	8001d6c <HAL_RCC_OscConfig+0xc>
 8001db0:	686b      	ldr	r3, [r5, #4]
 8001db2:	2b00      	cmp	r3, #0
 8001db4:	d1da      	bne.n	8001d6c <HAL_RCC_OscConfig+0xc>
        return HAL_ERROR;
 8001db6:	2001      	movs	r0, #1
}
 8001db8:	b002      	add	sp, #8
 8001dba:	e8bd 81f0 	ldmia.w	sp!, {r4, r5, r6, r7, r8, pc}
      __HAL_RCC_HSE_CONFIG(RCC_OscInitStruct->HSEState);
 8001dbe:	686b      	ldr	r3, [r5, #4]
 8001dc0:	f5b3 3f80 	cmp.w	r3, #65536	; 0x10000
 8001dc4:	d110      	bne.n	8001de8 <HAL_RCC_OscConfig+0x88>
 8001dc6:	6823      	ldr	r3, [r4, #0]
 8001dc8:	f443 3380 	orr.w	r3, r3, #65536	; 0x10000
 8001dcc:	6023      	str	r3, [r4, #0]
        tickstart = HAL_GetTick();
 8001dce:	f7ff fe3f 	bl	8001a50 <HAL_GetTick>
 8001dd2:	4606      	mov	r6, r0
        while(__HAL_RCC_GET_FLAG(RCC_FLAG_HSERDY) == RESET)
 8001dd4:	6823      	ldr	r3, [r4, #0]
 8001dd6:	0398      	lsls	r0, r3, #14
 8001dd8:	d4c8      	bmi.n	8001d6c <HAL_RCC_OscConfig+0xc>
          if((HAL_GetTick() - tickstart ) > HSE_TIMEOUT_VALUE)
 8001dda:	f7ff fe39 	bl	8001a50 <HAL_GetTick>
 8001dde:	1b80      	subs	r0, r0, r6
 8001de0:	2864      	cmp	r0, #100	; 0x64
 8001de2:	d9f7      	bls.n	8001dd4 <HAL_RCC_OscConfig+0x74>
            return HAL_TIMEOUT;
 8001de4:	2003      	movs	r0, #3
 8001de6:	e7e7      	b.n	8001db8 <HAL_RCC_OscConfig+0x58>
      __HAL_RCC_HSE_CONFIG(RCC_OscInitStruct->HSEState);
 8001de8:	b99b      	cbnz	r3, 8001e12 <HAL_RCC_OscConfig+0xb2>
 8001dea:	6823      	ldr	r3, [r4, #0]
 8001dec:	f423 3380 	bic.w	r3, r3, #65536	; 0x10000
 8001df0:	6023      	str	r3, [r4, #0]
 8001df2:	6823      	ldr	r3, [r4, #0]
 8001df4:	f423 2380 	bic.w	r3, r3, #262144	; 0x40000
 8001df8:	6023      	str	r3, [r4, #0]
        tickstart = HAL_GetTick();
 8001dfa:	f7ff fe29 	bl	8001a50 <HAL_GetTick>
 8001dfe:	4606      	mov	r6, r0
        while(__HAL_RCC_GET_FLAG(RCC_FLAG_HSERDY) != RESET)
 8001e00:	6823      	ldr	r3, [r4, #0]
 8001e02:	0399      	lsls	r1, r3, #14
 8001e04:	d5b2      	bpl.n	8001d6c <HAL_RCC_OscConfig+0xc>
           if((HAL_GetTick() - tickstart ) > HSE_TIMEOUT_VALUE)
 8001e06:	f7ff fe23 	bl	8001a50 <HAL_GetTick>
 8001e0a:	1b80      	subs	r0, r0, r6
 8001e0c:	2864      	cmp	r0, #100	; 0x64
 8001e0e:	d9f7      	bls.n	8001e00 <HAL_RCC_OscConfig+0xa0>
 8001e10:	e7e8      	b.n	8001de4 <HAL_RCC_OscConfig+0x84>
      __HAL_RCC_HSE_CONFIG(RCC_OscInitStruct->HSEState);
 8001e12:	f5b3 2fa0 	cmp.w	r3, #327680	; 0x50000
 8001e16:	6823      	ldr	r3, [r4, #0]
 8001e18:	d103      	bne.n	8001e22 <HAL_RCC_OscConfig+0xc2>
 8001e1a:	f443 2380 	orr.w	r3, r3, #262144	; 0x40000
 8001e1e:	6023      	str	r3, [r4, #0]
 8001e20:	e7d1      	b.n	8001dc6 <HAL_RCC_OscConfig+0x66>
 8001e22:	f423 3380 	bic.w	r3, r3, #65536	; 0x10000
 8001e26:	6023      	str	r3, [r4, #0]
 8001e28:	6823      	ldr	r3, [r4, #0]
 8001e2a:	f423 2380 	bic.w	r3, r3, #262144	; 0x40000
 8001e2e:	e7cd      	b.n	8001dcc <HAL_RCC_OscConfig+0x6c>
    if((__HAL_RCC_GET_SYSCLK_SOURCE() == RCC_SYSCLKSOURCE_STATUS_HSI) 
 8001e30:	4c67      	ldr	r4, [pc, #412]	; (8001fd0 <HAL_RCC_OscConfig+0x270>)
 8001e32:	6863      	ldr	r3, [r4, #4]
 8001e34:	f013 0f0c 	tst.w	r3, #12
 8001e38:	d007      	beq.n	8001e4a <HAL_RCC_OscConfig+0xea>
       || ((__HAL_RCC_GET_SYSCLK_SOURCE() == RCC_SYSCLKSOURCE_STATUS_PLLCLK) && (__HAL_RCC_GET_PLL_OSCSOURCE() == RCC_PLLSOURCE_HSI_DIV2)))
 8001e3a:	6863      	ldr	r3, [r4, #4]
 8001e3c:	f003 030c 	and.w	r3, r3, #12
 8001e40:	2b08      	cmp	r3, #8
 8001e42:	d110      	bne.n	8001e66 <HAL_RCC_OscConfig+0x106>
 8001e44:	6863      	ldr	r3, [r4, #4]
 8001e46:	03da      	lsls	r2, r3, #15
 8001e48:	d40d      	bmi.n	8001e66 <HAL_RCC_OscConfig+0x106>
      if((__HAL_RCC_GET_FLAG(RCC_FLAG_HSIRDY) != RESET) && (RCC_OscInitStruct->HSIState != RCC_HSI_ON))
 8001e4a:	6823      	ldr	r3, [r4, #0]
 8001e4c:	079b      	lsls	r3, r3, #30
 8001e4e:	d502      	bpl.n	8001e56 <HAL_RCC_OscConfig+0xf6>
 8001e50:	692b      	ldr	r3, [r5, #16]
 8001e52:	2b01      	cmp	r3, #1
 8001e54:	d1af      	bne.n	8001db6 <HAL_RCC_OscConfig+0x56>
        __HAL_RCC_HSI_CALIBRATIONVALUE_ADJUST(RCC_OscInitStruct->HSICalibrationValue);
 8001e56:	6823      	ldr	r3, [r4, #0]
 8001e58:	696a      	ldr	r2, [r5, #20]
 8001e5a:	f023 03f8 	bic.w	r3, r3, #248	; 0xf8
 8001e5e:	ea43 03c2 	orr.w	r3, r3, r2, lsl #3
 8001e62:	6023      	str	r3, [r4, #0]
 8001e64:	e785      	b.n	8001d72 <HAL_RCC_OscConfig+0x12>
      if(RCC_OscInitStruct->HSIState != RCC_HSI_OFF)
 8001e66:	692a      	ldr	r2, [r5, #16]
 8001e68:	4b5a      	ldr	r3, [pc, #360]	; (8001fd4 <HAL_RCC_OscConfig+0x274>)
 8001e6a:	b16a      	cbz	r2, 8001e88 <HAL_RCC_OscConfig+0x128>
        __HAL_RCC_HSI_ENABLE();
 8001e6c:	2201      	movs	r2, #1
 8001e6e:	601a      	str	r2, [r3, #0]
        tickstart = HAL_GetTick();
 8001e70:	f7ff fdee 	bl	8001a50 <HAL_GetTick>
 8001e74:	4606      	mov	r6, r0
        while(__HAL_RCC_GET_FLAG(RCC_FLAG_HSIRDY) == RESET)
 8001e76:	6823      	ldr	r3, [r4, #0]
 8001e78:	079f      	lsls	r7, r3, #30
 8001e7a:	d4ec      	bmi.n	8001e56 <HAL_RCC_OscConfig+0xf6>
          if((HAL_GetTick() - tickstart ) > HSI_TIMEOUT_VALUE)
 8001e7c:	f7ff fde8 	bl	8001a50 <HAL_GetTick>
 8001e80:	1b80      	subs	r0, r0, r6
 8001e82:	2802      	cmp	r0, #2
 8001e84:	d9f7      	bls.n	8001e76 <HAL_RCC_OscConfig+0x116>
 8001e86:	e7ad      	b.n	8001de4 <HAL_RCC_OscConfig+0x84>
        __HAL_RCC_HSI_DISABLE();
 8001e88:	601a      	str	r2, [r3, #0]
        tickstart = HAL_GetTick();
 8001e8a:	f7ff fde1 	bl	8001a50 <HAL_GetTick>
 8001e8e:	4606      	mov	r6, r0
        while(__HAL_RCC_GET_FLAG(RCC_FLAG_HSIRDY) != RESET)
 8001e90:	6823      	ldr	r3, [r4, #0]
 8001e92:	0798      	lsls	r0, r3, #30
 8001e94:	f57f af6d 	bpl.w	8001d72 <HAL_RCC_OscConfig+0x12>
          if((HAL_GetTick() - tickstart ) > HSI_TIMEOUT_VALUE)
 8001e98:	f7ff fdda 	bl	8001a50 <HAL_GetTick>
 8001e9c:	1b80      	subs	r0, r0, r6
 8001e9e:	2802      	cmp	r0, #2
 8001ea0:	d9f6      	bls.n	8001e90 <HAL_RCC_OscConfig+0x130>
 8001ea2:	e79f      	b.n	8001de4 <HAL_RCC_OscConfig+0x84>
    if(RCC_OscInitStruct->LSIState != RCC_LSI_OFF)
 8001ea4:	69aa      	ldr	r2, [r5, #24]
 8001ea6:	4c4a      	ldr	r4, [pc, #296]	; (8001fd0 <HAL_RCC_OscConfig+0x270>)
 8001ea8:	4b4b      	ldr	r3, [pc, #300]	; (8001fd8 <HAL_RCC_OscConfig+0x278>)
 8001eaa:	b1da      	cbz	r2, 8001ee4 <HAL_RCC_OscConfig+0x184>
      __HAL_RCC_LSI_ENABLE();
 8001eac:	2201      	movs	r2, #1
 8001eae:	601a      	str	r2, [r3, #0]
      tickstart = HAL_GetTick();
 8001eb0:	f7ff fdce 	bl	8001a50 <HAL_GetTick>
 8001eb4:	4606      	mov	r6, r0
      while(__HAL_RCC_GET_FLAG(RCC_FLAG_LSIRDY) == RESET)
 8001eb6:	6a63      	ldr	r3, [r4, #36]	; 0x24
 8001eb8:	079b      	lsls	r3, r3, #30
 8001eba:	d50d      	bpl.n	8001ed8 <HAL_RCC_OscConfig+0x178>
  * @param  mdelay: specifies the delay time length, in milliseconds.
  * @retval None
  */
static void RCC_Delay(uint32_t mdelay)
{
  __IO uint32_t Delay = mdelay * (SystemCoreClock / 8U / 1000U);
 8001ebc:	f44f 52fa 	mov.w	r2, #8000	; 0x1f40
 8001ec0:	4b46      	ldr	r3, [pc, #280]	; (8001fdc <HAL_RCC_OscConfig+0x27c>)
 8001ec2:	681b      	ldr	r3, [r3, #0]
 8001ec4:	fbb3 f3f2 	udiv	r3, r3, r2
 8001ec8:	9301      	str	r3, [sp, #4]
  \brief   No Operation
  \details No Operation does nothing. This instruction can be used for code alignment purposes.
 */
__attribute__((always_inline)) __STATIC_INLINE void __NOP(void)
{
  __ASM volatile ("nop");
 8001eca:	bf00      	nop
  do 
  {
    __NOP();
  } 
  while (Delay --);
 8001ecc:	9b01      	ldr	r3, [sp, #4]
 8001ece:	1e5a      	subs	r2, r3, #1
 8001ed0:	9201      	str	r2, [sp, #4]
 8001ed2:	2b00      	cmp	r3, #0
 8001ed4:	d1f9      	bne.n	8001eca <HAL_RCC_OscConfig+0x16a>
 8001ed6:	e750      	b.n	8001d7a <HAL_RCC_OscConfig+0x1a>
        if((HAL_GetTick() - tickstart ) > LSI_TIMEOUT_VALUE)
 8001ed8:	f7ff fdba 	bl	8001a50 <HAL_GetTick>
 8001edc:	1b80      	subs	r0, r0, r6
 8001ede:	2802      	cmp	r0, #2
 8001ee0:	d9e9      	bls.n	8001eb6 <HAL_RCC_OscConfig+0x156>
 8001ee2:	e77f      	b.n	8001de4 <HAL_RCC_OscConfig+0x84>
      __HAL_RCC_LSI_DISABLE();
 8001ee4:	601a      	str	r2, [r3, #0]
      tickstart = HAL_GetTick();
 8001ee6:	f7ff fdb3 	bl	8001a50 <HAL_GetTick>
 8001eea:	4606      	mov	r6, r0
      while(__HAL_RCC_GET_FLAG(RCC_FLAG_LSIRDY) != RESET)
 8001eec:	6a63      	ldr	r3, [r4, #36]	; 0x24
 8001eee:	079f      	lsls	r7, r3, #30
 8001ef0:	f57f af43 	bpl.w	8001d7a <HAL_RCC_OscConfig+0x1a>
        if((HAL_GetTick() - tickstart ) > LSI_TIMEOUT_VALUE)
 8001ef4:	f7ff fdac 	bl	8001a50 <HAL_GetTick>
 8001ef8:	1b80      	subs	r0, r0, r6
 8001efa:	2802      	cmp	r0, #2
 8001efc:	d9f6      	bls.n	8001eec <HAL_RCC_OscConfig+0x18c>
 8001efe:	e771      	b.n	8001de4 <HAL_RCC_OscConfig+0x84>
    if(__HAL_RCC_PWR_IS_CLK_DISABLED())
 8001f00:	4c33      	ldr	r4, [pc, #204]	; (8001fd0 <HAL_RCC_OscConfig+0x270>)
 8001f02:	69e3      	ldr	r3, [r4, #28]
 8001f04:	00d8      	lsls	r0, r3, #3
 8001f06:	d424      	bmi.n	8001f52 <HAL_RCC_OscConfig+0x1f2>
      pwrclkchanged = SET;
 8001f08:	2701      	movs	r7, #1
      __HAL_RCC_PWR_CLK_ENABLE();
 8001f0a:	69e3      	ldr	r3, [r4, #28]
 8001f0c:	f043 5380 	orr.w	r3, r3, #268435456	; 0x10000000
 8001f10:	61e3      	str	r3, [r4, #28]
 8001f12:	69e3      	ldr	r3, [r4, #28]
 8001f14:	f003 5380 	and.w	r3, r3, #268435456	; 0x10000000
 8001f18:	9300      	str	r3, [sp, #0]
 8001f1a:	9b00      	ldr	r3, [sp, #0]
    if(HAL_IS_BIT_CLR(PWR->CR, PWR_CR_DBP))
 8001f1c:	4e30      	ldr	r6, [pc, #192]	; (8001fe0 <HAL_RCC_OscConfig+0x280>)
 8001f1e:	6833      	ldr	r3, [r6, #0]
 8001f20:	05d9      	lsls	r1, r3, #23
 8001f22:	d518      	bpl.n	8001f56 <HAL_RCC_OscConfig+0x1f6>
    __HAL_RCC_LSE_CONFIG(RCC_OscInitStruct->LSEState);
 8001f24:	68eb      	ldr	r3, [r5, #12]
 8001f26:	2b01      	cmp	r3, #1
 8001f28:	d126      	bne.n	8001f78 <HAL_RCC_OscConfig+0x218>
 8001f2a:	6a23      	ldr	r3, [r4, #32]
 8001f2c:	f043 0301 	orr.w	r3, r3, #1
 8001f30:	6223      	str	r3, [r4, #32]
      tickstart = HAL_GetTick();
 8001f32:	f7ff fd8d 	bl	8001a50 <HAL_GetTick>
        if((HAL_GetTick() - tickstart ) > RCC_LSE_TIMEOUT_VALUE)
 8001f36:	f241 3688 	movw	r6, #5000	; 0x1388
      tickstart = HAL_GetTick();
 8001f3a:	4680      	mov	r8, r0
      while(__HAL_RCC_GET_FLAG(RCC_FLAG_LSERDY) == RESET)
 8001f3c:	6a23      	ldr	r3, [r4, #32]
 8001f3e:	079b      	lsls	r3, r3, #30
 8001f40:	d53f      	bpl.n	8001fc2 <HAL_RCC_OscConfig+0x262>
    if(pwrclkchanged == SET)
 8001f42:	2f00      	cmp	r7, #0
 8001f44:	f43f af1d 	beq.w	8001d82 <HAL_RCC_OscConfig+0x22>
      __HAL_RCC_PWR_CLK_DISABLE();
 8001f48:	69e3      	ldr	r3, [r4, #28]
 8001f4a:	f023 5380 	bic.w	r3, r3, #268435456	; 0x10000000
 8001f4e:	61e3      	str	r3, [r4, #28]
 8001f50:	e717      	b.n	8001d82 <HAL_RCC_OscConfig+0x22>
    FlagStatus       pwrclkchanged = RESET;
 8001f52:	2700      	movs	r7, #0
 8001f54:	e7e2      	b.n	8001f1c <HAL_RCC_OscConfig+0x1bc>
      SET_BIT(PWR->CR, PWR_CR_DBP);
 8001f56:	6833      	ldr	r3, [r6, #0]
 8001f58:	f443 7380 	orr.w	r3, r3, #256	; 0x100
 8001f5c:	6033      	str	r3, [r6, #0]
      tickstart = HAL_GetTick();
 8001f5e:	f7ff fd77 	bl	8001a50 <HAL_GetTick>
 8001f62:	4680      	mov	r8, r0
      while(HAL_IS_BIT_CLR(PWR->CR, PWR_CR_DBP))
 8001f64:	6833      	ldr	r3, [r6, #0]
 8001f66:	05da      	lsls	r2, r3, #23
 8001f68:	d4dc      	bmi.n	8001f24 <HAL_RCC_OscConfig+0x1c4>
        if((HAL_GetTick() - tickstart) > RCC_DBP_TIMEOUT_VALUE)
 8001f6a:	f7ff fd71 	bl	8001a50 <HAL_GetTick>
 8001f6e:	eba0 0008 	sub.w	r0, r0, r8
 8001f72:	2864      	cmp	r0, #100	; 0x64
 8001f74:	d9f6      	bls.n	8001f64 <HAL_RCC_OscConfig+0x204>
 8001f76:	e735      	b.n	8001de4 <HAL_RCC_OscConfig+0x84>
    __HAL_RCC_LSE_CONFIG(RCC_OscInitStruct->LSEState);
 8001f78:	b9ab      	cbnz	r3, 8001fa6 <HAL_RCC_OscConfig+0x246>
 8001f7a:	6a23      	ldr	r3, [r4, #32]
        if((HAL_GetTick() - tickstart ) > RCC_LSE_TIMEOUT_VALUE)
 8001f7c:	f241 3888 	movw	r8, #5000	; 0x1388
    __HAL_RCC_LSE_CONFIG(RCC_OscInitStruct->LSEState);
 8001f80:	f023 0301 	bic.w	r3, r3, #1
 8001f84:	6223      	str	r3, [r4, #32]
 8001f86:	6a23      	ldr	r3, [r4, #32]
 8001f88:	f023 0304 	bic.w	r3, r3, #4
 8001f8c:	6223      	str	r3, [r4, #32]
      tickstart = HAL_GetTick();
 8001f8e:	f7ff fd5f 	bl	8001a50 <HAL_GetTick>
 8001f92:	4606      	mov	r6, r0
      while(__HAL_RCC_GET_FLAG(RCC_FLAG_LSERDY) != RESET)
 8001f94:	6a23      	ldr	r3, [r4, #32]
 8001f96:	0798      	lsls	r0, r3, #30
 8001f98:	d5d3      	bpl.n	8001f42 <HAL_RCC_OscConfig+0x1e2>
        if((HAL_GetTick() - tickstart ) > RCC_LSE_TIMEOUT_VALUE)
 8001f9a:	f7ff fd59 	bl	8001a50 <HAL_GetTick>
 8001f9e:	1b80      	subs	r0, r0, r6
 8001fa0:	4540      	cmp	r0, r8
 8001fa2:	d9f7      	bls.n	8001f94 <HAL_RCC_OscConfig+0x234>
 8001fa4:	e71e      	b.n	8001de4 <HAL_RCC_OscConfig+0x84>
    __HAL_RCC_LSE_CONFIG(RCC_OscInitStruct->LSEState);
 8001fa6:	2b05      	cmp	r3, #5
 8001fa8:	6a23      	ldr	r3, [r4, #32]
 8001faa:	d103      	bne.n	8001fb4 <HAL_RCC_OscConfig+0x254>
 8001fac:	f043 0304 	orr.w	r3, r3, #4
 8001fb0:	6223      	str	r3, [r4, #32]
 8001fb2:	e7ba      	b.n	8001f2a <HAL_RCC_OscConfig+0x1ca>
 8001fb4:	f023 0301 	bic.w	r3, r3, #1
 8001fb8:	6223      	str	r3, [r4, #32]
 8001fba:	6a23      	ldr	r3, [r4, #32]
 8001fbc:	f023 0304 	bic.w	r3, r3, #4
 8001fc0:	e7b6      	b.n	8001f30 <HAL_RCC_OscConfig+0x1d0>
        if((HAL_GetTick() - tickstart ) > RCC_LSE_TIMEOUT_VALUE)
 8001fc2:	f7ff fd45 	bl	8001a50 <HAL_GetTick>
 8001fc6:	eba0 0008 	sub.w	r0, r0, r8
 8001fca:	42b0      	cmp	r0, r6
 8001fcc:	d9b6      	bls.n	8001f3c <HAL_RCC_OscConfig+0x1dc>
 8001fce:	e709      	b.n	8001de4 <HAL_RCC_OscConfig+0x84>
 8001fd0:	40021000 	.word	0x40021000
 8001fd4:	42420000 	.word	0x42420000
 8001fd8:	42420480 	.word	0x42420480
 8001fdc:	20000000 	.word	0x20000000
 8001fe0:	40007000 	.word	0x40007000
    if(__HAL_RCC_GET_SYSCLK_SOURCE() != RCC_SYSCLKSOURCE_STATUS_PLLCLK)
 8001fe4:	4c22      	ldr	r4, [pc, #136]	; (8002070 <HAL_RCC_OscConfig+0x310>)
 8001fe6:	6863      	ldr	r3, [r4, #4]
 8001fe8:	f003 030c 	and.w	r3, r3, #12
 8001fec:	2b08      	cmp	r3, #8
 8001fee:	f43f aee2 	beq.w	8001db6 <HAL_RCC_OscConfig+0x56>
 8001ff2:	2300      	movs	r3, #0
 8001ff4:	4e1f      	ldr	r6, [pc, #124]	; (8002074 <HAL_RCC_OscConfig+0x314>)
      if((RCC_OscInitStruct->PLL.PLLState) == RCC_PLL_ON)
 8001ff6:	2a02      	cmp	r2, #2
        __HAL_RCC_PLL_DISABLE();
 8001ff8:	6033      	str	r3, [r6, #0]
      if((RCC_OscInitStruct->PLL.PLLState) == RCC_PLL_ON)
 8001ffa:	d12b      	bne.n	8002054 <HAL_RCC_OscConfig+0x2f4>
        tickstart = HAL_GetTick();
 8001ffc:	f7ff fd28 	bl	8001a50 <HAL_GetTick>
 8002000:	4607      	mov	r7, r0
        while(__HAL_RCC_GET_FLAG(RCC_FLAG_PLLRDY)  != RESET)
 8002002:	6823      	ldr	r3, [r4, #0]
 8002004:	0199      	lsls	r1, r3, #6
 8002006:	d41f      	bmi.n	8002048 <HAL_RCC_OscConfig+0x2e8>
        if(RCC_OscInitStruct->PLL.PLLSource == RCC_PLLSOURCE_HSE)
 8002008:	6a2b      	ldr	r3, [r5, #32]
 800200a:	f5b3 3f80 	cmp.w	r3, #65536	; 0x10000
 800200e:	d105      	bne.n	800201c <HAL_RCC_OscConfig+0x2bc>
          __HAL_RCC_HSE_PREDIV_CONFIG(RCC_OscInitStruct->HSEPredivValue);
 8002010:	6862      	ldr	r2, [r4, #4]
 8002012:	68a9      	ldr	r1, [r5, #8]
 8002014:	f422 3200 	bic.w	r2, r2, #131072	; 0x20000
 8002018:	430a      	orrs	r2, r1
 800201a:	6062      	str	r2, [r4, #4]
        __HAL_RCC_PLL_CONFIG(RCC_OscInitStruct->PLL.PLLSource,
 800201c:	6a69      	ldr	r1, [r5, #36]	; 0x24
 800201e:	6862      	ldr	r2, [r4, #4]
 8002020:	430b      	orrs	r3, r1
 8002022:	f422 1274 	bic.w	r2, r2, #3997696	; 0x3d0000
 8002026:	4313      	orrs	r3, r2
 8002028:	6063      	str	r3, [r4, #4]
        __HAL_RCC_PLL_ENABLE();
 800202a:	2301      	movs	r3, #1
 800202c:	6033      	str	r3, [r6, #0]
        tickstart = HAL_GetTick();
 800202e:	f7ff fd0f 	bl	8001a50 <HAL_GetTick>
 8002032:	4605      	mov	r5, r0
        while(__HAL_RCC_GET_FLAG(RCC_FLAG_PLLRDY)  == RESET)
 8002034:	6823      	ldr	r3, [r4, #0]
 8002036:	019a      	lsls	r2, r3, #6
 8002038:	f53f aea7 	bmi.w	8001d8a <HAL_RCC_OscConfig+0x2a>
          if((HAL_GetTick() - tickstart ) > PLL_TIMEOUT_VALUE)
 800203c:	f7ff fd08 	bl	8001a50 <HAL_GetTick>
 8002040:	1b40      	subs	r0, r0, r5
 8002042:	2802      	cmp	r0, #2
 8002044:	d9f6      	bls.n	8002034 <HAL_RCC_OscConfig+0x2d4>
 8002046:	e6cd      	b.n	8001de4 <HAL_RCC_OscConfig+0x84>
          if((HAL_GetTick() - tickstart ) > PLL_TIMEOUT_VALUE)
 8002048:	f7ff fd02 	bl	8001a50 <HAL_GetTick>
 800204c:	1bc0      	subs	r0, r0, r7
 800204e:	2802      	cmp	r0, #2
 8002050:	d9d7      	bls.n	8002002 <HAL_RCC_OscConfig+0x2a2>
 8002052:	e6c7      	b.n	8001de4 <HAL_RCC_OscConfig+0x84>
        tickstart = HAL_GetTick();
 8002054:	f7ff fcfc 	bl	8001a50 <HAL_GetTick>
 8002058:	4605      	mov	r5, r0
        while(__HAL_RCC_GET_FLAG(RCC_FLAG_PLLRDY)  != RESET)
 800205a:	6823      	ldr	r3, [r4, #0]
 800205c:	019b      	lsls	r3, r3, #6
 800205e:	f57f ae94 	bpl.w	8001d8a <HAL_RCC_OscConfig+0x2a>
          if((HAL_GetTick() - tickstart ) > PLL_TIMEOUT_VALUE)
 8002062:	f7ff fcf5 	bl	8001a50 <HAL_GetTick>
 8002066:	1b40      	subs	r0, r0, r5
 8002068:	2802      	cmp	r0, #2
 800206a:	d9f6      	bls.n	800205a <HAL_RCC_OscConfig+0x2fa>
 800206c:	e6ba      	b.n	8001de4 <HAL_RCC_OscConfig+0x84>
 800206e:	bf00      	nop
 8002070:	40021000 	.word	0x40021000
 8002074:	42420060 	.word	0x42420060

08002078 <HAL_RCC_GetSysClockFreq>:
{
 8002078:	b530      	push	{r4, r5, lr}
  const uint8_t aPLLMULFactorTable[16] = {2, 3, 4, 5, 6, 7, 8, 9, 10, 11, 12, 13, 14, 15, 16, 16};
 800207a:	4b19      	ldr	r3, [pc, #100]	; (80020e0 <HAL_RCC_GetSysClockFreq+0x68>)
{
 800207c:	b087      	sub	sp, #28
  const uint8_t aPLLMULFactorTable[16] = {2, 3, 4, 5, 6, 7, 8, 9, 10, 11, 12, 13, 14, 15, 16, 16};
 800207e:	ac02      	add	r4, sp, #8
 8002080:	f103 0510 	add.w	r5, r3, #16
 8002084:	4622      	mov	r2, r4
 8002086:	6818      	ldr	r0, [r3, #0]
 8002088:	6859      	ldr	r1, [r3, #4]
 800208a:	3308      	adds	r3, #8
 800208c:	c203      	stmia	r2!, {r0, r1}
 800208e:	42ab      	cmp	r3, r5
 8002090:	4614      	mov	r4, r2
 8002092:	d1f7      	bne.n	8002084 <HAL_RCC_GetSysClockFreq+0xc>
  const uint8_t aPredivFactorTable[2] = {1, 2};
 8002094:	2301      	movs	r3, #1
 8002096:	f88d 3004 	strb.w	r3, [sp, #4]
 800209a:	2302      	movs	r3, #2
  tmpreg = RCC->CFGR;
 800209c:	4911      	ldr	r1, [pc, #68]	; (80020e4 <HAL_RCC_GetSysClockFreq+0x6c>)
  const uint8_t aPredivFactorTable[2] = {1, 2};
 800209e:	f88d 3005 	strb.w	r3, [sp, #5]
  tmpreg = RCC->CFGR;
 80020a2:	684b      	ldr	r3, [r1, #4]
  switch (tmpreg & RCC_CFGR_SWS)
 80020a4:	f003 020c 	and.w	r2, r3, #12
 80020a8:	2a08      	cmp	r2, #8
 80020aa:	d117      	bne.n	80020dc <HAL_RCC_GetSysClockFreq+0x64>
      pllmul = aPLLMULFactorTable[(uint32_t)(tmpreg & RCC_CFGR_PLLMULL) >> RCC_CFGR_PLLMULL_Pos];
 80020ac:	f3c3 4283 	ubfx	r2, r3, #18, #4
 80020b0:	a806      	add	r0, sp, #24
 80020b2:	4402      	add	r2, r0
      if ((tmpreg & RCC_CFGR_PLLSRC) != RCC_PLLSOURCE_HSI_DIV2)
 80020b4:	03db      	lsls	r3, r3, #15
      pllmul = aPLLMULFactorTable[(uint32_t)(tmpreg & RCC_CFGR_PLLMULL) >> RCC_CFGR_PLLMULL_Pos];
 80020b6:	f812 2c10 	ldrb.w	r2, [r2, #-16]
      if ((tmpreg & RCC_CFGR_PLLSRC) != RCC_PLLSOURCE_HSI_DIV2)
 80020ba:	d50c      	bpl.n	80020d6 <HAL_RCC_GetSysClockFreq+0x5e>
        prediv = aPredivFactorTable[(uint32_t)(RCC->CFGR & RCC_CFGR_PLLXTPRE) >> RCC_CFGR_PLLXTPRE_Pos];
 80020bc:	684b      	ldr	r3, [r1, #4]
        pllclk = (uint32_t)((HSE_VALUE  * pllmul) / prediv);
 80020be:	480a      	ldr	r0, [pc, #40]	; (80020e8 <HAL_RCC_GetSysClockFreq+0x70>)
        prediv = aPredivFactorTable[(uint32_t)(RCC->CFGR & RCC_CFGR_PLLXTPRE) >> RCC_CFGR_PLLXTPRE_Pos];
 80020c0:	f3c3 4340 	ubfx	r3, r3, #17, #1
        pllclk = (uint32_t)((HSE_VALUE  * pllmul) / prediv);
 80020c4:	4350      	muls	r0, r2
        prediv = aPredivFactorTable[(uint32_t)(RCC->CFGR & RCC_CFGR_PLLXTPRE) >> RCC_CFGR_PLLXTPRE_Pos];
 80020c6:	aa06      	add	r2, sp, #24
 80020c8:	4413      	add	r3, r2
 80020ca:	f813 3c14 	ldrb.w	r3, [r3, #-20]
        pllclk = (uint32_t)((HSE_VALUE  * pllmul) / prediv);
 80020ce:	fbb0 f0f3 	udiv	r0, r0, r3
}
 80020d2:	b007      	add	sp, #28
 80020d4:	bd30      	pop	{r4, r5, pc}
        pllclk = (uint32_t)((HSI_VALUE >> 1) * pllmul);
 80020d6:	4805      	ldr	r0, [pc, #20]	; (80020ec <HAL_RCC_GetSysClockFreq+0x74>)
 80020d8:	4350      	muls	r0, r2
 80020da:	e7fa      	b.n	80020d2 <HAL_RCC_GetSysClockFreq+0x5a>
      sysclockfreq = HSE_VALUE;
 80020dc:	4802      	ldr	r0, [pc, #8]	; (80020e8 <HAL_RCC_GetSysClockFreq+0x70>)
  return sysclockfreq;
 80020de:	e7f8      	b.n	80020d2 <HAL_RCC_GetSysClockFreq+0x5a>
 80020e0:	08008060 	.word	0x08008060
 80020e4:	40021000 	.word	0x40021000
 80020e8:	007a1200 	.word	0x007a1200
 80020ec:	003d0900 	.word	0x003d0900

080020f0 <HAL_RCC_ClockConfig>:
  if(FLatency > (FLASH->ACR & FLASH_ACR_LATENCY))
 80020f0:	4a4d      	ldr	r2, [pc, #308]	; (8002228 <HAL_RCC_ClockConfig+0x138>)
{
 80020f2:	e92d 41f0 	stmdb	sp!, {r4, r5, r6, r7, r8, lr}
  if(FLatency > (FLASH->ACR & FLASH_ACR_LATENCY))
 80020f6:	6813      	ldr	r3, [r2, #0]
{
 80020f8:	4605      	mov	r5, r0
  if(FLatency > (FLASH->ACR & FLASH_ACR_LATENCY))
 80020fa:	f003 0307 	and.w	r3, r3, #7
 80020fe:	428b      	cmp	r3, r1
{
 8002100:	460e      	mov	r6, r1
  if(FLatency > (FLASH->ACR & FLASH_ACR_LATENCY))
 8002102:	d328      	bcc.n	8002156 <HAL_RCC_ClockConfig+0x66>
  if(((RCC_ClkInitStruct->ClockType) & RCC_CLOCKTYPE_HCLK) == RCC_CLOCKTYPE_HCLK)
 8002104:	682a      	ldr	r2, [r5, #0]
 8002106:	0791      	lsls	r1, r2, #30
 8002108:	d432      	bmi.n	8002170 <HAL_RCC_ClockConfig+0x80>
  if(((RCC_ClkInitStruct->ClockType) & RCC_CLOCKTYPE_SYSCLK) == RCC_CLOCKTYPE_SYSCLK)
 800210a:	07d2      	lsls	r2, r2, #31
 800210c:	d438      	bmi.n	8002180 <HAL_RCC_ClockConfig+0x90>
  if(FLatency < (FLASH->ACR & FLASH_ACR_LATENCY))
 800210e:	4a46      	ldr	r2, [pc, #280]	; (8002228 <HAL_RCC_ClockConfig+0x138>)
 8002110:	6813      	ldr	r3, [r2, #0]
 8002112:	f003 0307 	and.w	r3, r3, #7
 8002116:	429e      	cmp	r6, r3
 8002118:	d373      	bcc.n	8002202 <HAL_RCC_ClockConfig+0x112>
  if(((RCC_ClkInitStruct->ClockType) & RCC_CLOCKTYPE_PCLK1) == RCC_CLOCKTYPE_PCLK1)
 800211a:	682a      	ldr	r2, [r5, #0]
 800211c:	4c43      	ldr	r4, [pc, #268]	; (800222c <HAL_RCC_ClockConfig+0x13c>)
 800211e:	f012 0f04 	tst.w	r2, #4
 8002122:	d179      	bne.n	8002218 <HAL_RCC_ClockConfig+0x128>
  if(((RCC_ClkInitStruct->ClockType) & RCC_CLOCKTYPE_PCLK2) == RCC_CLOCKTYPE_PCLK2)
 8002124:	0713      	lsls	r3, r2, #28
 8002126:	d506      	bpl.n	8002136 <HAL_RCC_ClockConfig+0x46>
    MODIFY_REG(RCC->CFGR, RCC_CFGR_PPRE2, ((RCC_ClkInitStruct->APB2CLKDivider) << 3));
 8002128:	6863      	ldr	r3, [r4, #4]
 800212a:	692a      	ldr	r2, [r5, #16]
 800212c:	f423 5360 	bic.w	r3, r3, #14336	; 0x3800
 8002130:	ea43 03c2 	orr.w	r3, r3, r2, lsl #3
 8002134:	6063      	str	r3, [r4, #4]
  SystemCoreClock = HAL_RCC_GetSysClockFreq() >> AHBPrescTable[(RCC->CFGR & RCC_CFGR_HPRE)>> RCC_CFGR_HPRE_Pos];
 8002136:	f7ff ff9f 	bl	8002078 <HAL_RCC_GetSysClockFreq>
 800213a:	6863      	ldr	r3, [r4, #4]
 800213c:	4a3c      	ldr	r2, [pc, #240]	; (8002230 <HAL_RCC_ClockConfig+0x140>)
 800213e:	f3c3 1303 	ubfx	r3, r3, #4, #4
 8002142:	5cd3      	ldrb	r3, [r2, r3]
 8002144:	40d8      	lsrs	r0, r3
 8002146:	4b3b      	ldr	r3, [pc, #236]	; (8002234 <HAL_RCC_ClockConfig+0x144>)
 8002148:	6018      	str	r0, [r3, #0]
  HAL_InitTick (TICK_INT_PRIORITY);
 800214a:	2000      	movs	r0, #0
 800214c:	f7ff fc3e 	bl	80019cc <HAL_InitTick>
  return HAL_OK;
 8002150:	2000      	movs	r0, #0
}
 8002152:	e8bd 81f0 	ldmia.w	sp!, {r4, r5, r6, r7, r8, pc}
    __HAL_FLASH_SET_LATENCY(FLatency);
 8002156:	6813      	ldr	r3, [r2, #0]
 8002158:	f023 0307 	bic.w	r3, r3, #7
 800215c:	430b      	orrs	r3, r1
 800215e:	6013      	str	r3, [r2, #0]
    if((FLASH->ACR & FLASH_ACR_LATENCY) != FLatency)
 8002160:	6813      	ldr	r3, [r2, #0]
 8002162:	f003 0307 	and.w	r3, r3, #7
 8002166:	4299      	cmp	r1, r3
 8002168:	d0cc      	beq.n	8002104 <HAL_RCC_ClockConfig+0x14>
      return HAL_ERROR;
 800216a:	2001      	movs	r0, #1
 800216c:	e8bd 81f0 	ldmia.w	sp!, {r4, r5, r6, r7, r8, pc}
    MODIFY_REG(RCC->CFGR, RCC_CFGR_HPRE, RCC_ClkInitStruct->AHBCLKDivider);
 8002170:	492e      	ldr	r1, [pc, #184]	; (800222c <HAL_RCC_ClockConfig+0x13c>)
 8002172:	68a8      	ldr	r0, [r5, #8]
 8002174:	684b      	ldr	r3, [r1, #4]
 8002176:	f023 03f0 	bic.w	r3, r3, #240	; 0xf0
 800217a:	4303      	orrs	r3, r0
 800217c:	604b      	str	r3, [r1, #4]
 800217e:	e7c4      	b.n	800210a <HAL_RCC_ClockConfig+0x1a>
    if(RCC_ClkInitStruct->SYSCLKSource == RCC_SYSCLKSOURCE_HSE)
 8002180:	686a      	ldr	r2, [r5, #4]
 8002182:	4c2a      	ldr	r4, [pc, #168]	; (800222c <HAL_RCC_ClockConfig+0x13c>)
 8002184:	2a01      	cmp	r2, #1
      if(__HAL_RCC_GET_FLAG(RCC_FLAG_HSERDY) == RESET)
 8002186:	6823      	ldr	r3, [r4, #0]
    if(RCC_ClkInitStruct->SYSCLKSource == RCC_SYSCLKSOURCE_HSE)
 8002188:	d11c      	bne.n	80021c4 <HAL_RCC_ClockConfig+0xd4>
      if(__HAL_RCC_GET_FLAG(RCC_FLAG_HSERDY) == RESET)
 800218a:	f413 3f00 	tst.w	r3, #131072	; 0x20000
      if(__HAL_RCC_GET_FLAG(RCC_FLAG_HSIRDY) == RESET)
 800218e:	d0ec      	beq.n	800216a <HAL_RCC_ClockConfig+0x7a>
    __HAL_RCC_SYSCLK_CONFIG(RCC_ClkInitStruct->SYSCLKSource);
 8002190:	6863      	ldr	r3, [r4, #4]
        if((HAL_GetTick() - tickstart ) > CLOCKSWITCH_TIMEOUT_VALUE)
 8002192:	f241 3888 	movw	r8, #5000	; 0x1388
    __HAL_RCC_SYSCLK_CONFIG(RCC_ClkInitStruct->SYSCLKSource);
 8002196:	f023 0303 	bic.w	r3, r3, #3
 800219a:	4313      	orrs	r3, r2
 800219c:	6063      	str	r3, [r4, #4]
    tickstart = HAL_GetTick();
 800219e:	f7ff fc57 	bl	8001a50 <HAL_GetTick>
    if(RCC_ClkInitStruct->SYSCLKSource == RCC_SYSCLKSOURCE_HSE)
 80021a2:	686b      	ldr	r3, [r5, #4]
    tickstart = HAL_GetTick();
 80021a4:	4607      	mov	r7, r0
    if(RCC_ClkInitStruct->SYSCLKSource == RCC_SYSCLKSOURCE_HSE)
 80021a6:	2b01      	cmp	r3, #1
 80021a8:	d114      	bne.n	80021d4 <HAL_RCC_ClockConfig+0xe4>
      while (__HAL_RCC_GET_SYSCLK_SOURCE() != RCC_SYSCLKSOURCE_STATUS_HSE)
 80021aa:	6863      	ldr	r3, [r4, #4]
 80021ac:	f003 030c 	and.w	r3, r3, #12
 80021b0:	2b04      	cmp	r3, #4
 80021b2:	d0ac      	beq.n	800210e <HAL_RCC_ClockConfig+0x1e>
        if((HAL_GetTick() - tickstart ) > CLOCKSWITCH_TIMEOUT_VALUE)
 80021b4:	f7ff fc4c 	bl	8001a50 <HAL_GetTick>
 80021b8:	1bc0      	subs	r0, r0, r7
 80021ba:	4540      	cmp	r0, r8
 80021bc:	d9f5      	bls.n	80021aa <HAL_RCC_ClockConfig+0xba>
          return HAL_TIMEOUT;
 80021be:	2003      	movs	r0, #3
 80021c0:	e8bd 81f0 	ldmia.w	sp!, {r4, r5, r6, r7, r8, pc}
    else if(RCC_ClkInitStruct->SYSCLKSource == RCC_SYSCLKSOURCE_PLLCLK)
 80021c4:	2a02      	cmp	r2, #2
 80021c6:	d102      	bne.n	80021ce <HAL_RCC_ClockConfig+0xde>
      if(__HAL_RCC_GET_FLAG(RCC_FLAG_PLLRDY) == RESET)
 80021c8:	f013 7f00 	tst.w	r3, #33554432	; 0x2000000
 80021cc:	e7df      	b.n	800218e <HAL_RCC_ClockConfig+0x9e>
      if(__HAL_RCC_GET_FLAG(RCC_FLAG_HSIRDY) == RESET)
 80021ce:	f013 0f02 	tst.w	r3, #2
 80021d2:	e7dc      	b.n	800218e <HAL_RCC_ClockConfig+0x9e>
    else if(RCC_ClkInitStruct->SYSCLKSource == RCC_SYSCLKSOURCE_PLLCLK)
 80021d4:	2b02      	cmp	r3, #2
 80021d6:	d10f      	bne.n	80021f8 <HAL_RCC_ClockConfig+0x108>
      while (__HAL_RCC_GET_SYSCLK_SOURCE() != RCC_SYSCLKSOURCE_STATUS_PLLCLK)
 80021d8:	6863      	ldr	r3, [r4, #4]
 80021da:	f003 030c 	and.w	r3, r3, #12
 80021de:	2b08      	cmp	r3, #8
 80021e0:	d095      	beq.n	800210e <HAL_RCC_ClockConfig+0x1e>
        if((HAL_GetTick() - tickstart ) > CLOCKSWITCH_TIMEOUT_VALUE)
 80021e2:	f7ff fc35 	bl	8001a50 <HAL_GetTick>
 80021e6:	1bc0      	subs	r0, r0, r7
 80021e8:	4540      	cmp	r0, r8
 80021ea:	d9f5      	bls.n	80021d8 <HAL_RCC_ClockConfig+0xe8>
 80021ec:	e7e7      	b.n	80021be <HAL_RCC_ClockConfig+0xce>
        if((HAL_GetTick() - tickstart ) > CLOCKSWITCH_TIMEOUT_VALUE)
 80021ee:	f7ff fc2f 	bl	8001a50 <HAL_GetTick>
 80021f2:	1bc0      	subs	r0, r0, r7
 80021f4:	4540      	cmp	r0, r8
 80021f6:	d8e2      	bhi.n	80021be <HAL_RCC_ClockConfig+0xce>
      while (__HAL_RCC_GET_SYSCLK_SOURCE() != RCC_SYSCLKSOURCE_STATUS_HSI)
 80021f8:	6863      	ldr	r3, [r4, #4]
 80021fa:	f013 0f0c 	tst.w	r3, #12
 80021fe:	d1f6      	bne.n	80021ee <HAL_RCC_ClockConfig+0xfe>
 8002200:	e785      	b.n	800210e <HAL_RCC_ClockConfig+0x1e>
    __HAL_FLASH_SET_LATENCY(FLatency);
 8002202:	6813      	ldr	r3, [r2, #0]
 8002204:	f023 0307 	bic.w	r3, r3, #7
 8002208:	4333      	orrs	r3, r6
 800220a:	6013      	str	r3, [r2, #0]
    if((FLASH->ACR & FLASH_ACR_LATENCY) != FLatency)
 800220c:	6813      	ldr	r3, [r2, #0]
 800220e:	f003 0307 	and.w	r3, r3, #7
 8002212:	429e      	cmp	r6, r3
 8002214:	d1a9      	bne.n	800216a <HAL_RCC_ClockConfig+0x7a>
 8002216:	e780      	b.n	800211a <HAL_RCC_ClockConfig+0x2a>
    MODIFY_REG(RCC->CFGR, RCC_CFGR_PPRE1, RCC_ClkInitStruct->APB1CLKDivider);
 8002218:	6863      	ldr	r3, [r4, #4]
 800221a:	68e9      	ldr	r1, [r5, #12]
 800221c:	f423 63e0 	bic.w	r3, r3, #1792	; 0x700
 8002220:	430b      	orrs	r3, r1
 8002222:	6063      	str	r3, [r4, #4]
 8002224:	e77e      	b.n	8002124 <HAL_RCC_ClockConfig+0x34>
 8002226:	bf00      	nop
 8002228:	40022000 	.word	0x40022000
 800222c:	40021000 	.word	0x40021000
 8002230:	080080ab 	.word	0x080080ab
 8002234:	20000000 	.word	0x20000000

08002238 <HAL_RCC_GetHCLKFreq>:
}
 8002238:	4b01      	ldr	r3, [pc, #4]	; (8002240 <HAL_RCC_GetHCLKFreq+0x8>)
 800223a:	6818      	ldr	r0, [r3, #0]
 800223c:	4770      	bx	lr
 800223e:	bf00      	nop
 8002240:	20000000 	.word	0x20000000

08002244 <HAL_RCC_GetPCLK2Freq>:
  return (HAL_RCC_GetHCLKFreq()>> APBPrescTable[(RCC->CFGR & RCC_CFGR_PPRE2) >> RCC_CFGR_PPRE2_Pos]);
 8002244:	4b04      	ldr	r3, [pc, #16]	; (8002258 <HAL_RCC_GetPCLK2Freq+0x14>)
 8002246:	4a05      	ldr	r2, [pc, #20]	; (800225c <HAL_RCC_GetPCLK2Freq+0x18>)
 8002248:	685b      	ldr	r3, [r3, #4]
 800224a:	f3c3 23c2 	ubfx	r3, r3, #11, #3
 800224e:	5cd3      	ldrb	r3, [r2, r3]
 8002250:	4a03      	ldr	r2, [pc, #12]	; (8002260 <HAL_RCC_GetPCLK2Freq+0x1c>)
 8002252:	6810      	ldr	r0, [r2, #0]
} 
 8002254:	40d8      	lsrs	r0, r3
 8002256:	4770      	bx	lr
 8002258:	40021000 	.word	0x40021000
 800225c:	080080bb 	.word	0x080080bb
 8002260:	20000000 	.word	0x20000000

08002264 <HAL_RCCEx_PeriphCLKConfig>:

  /* Check the parameters */
  assert_param(IS_RCC_PERIPHCLOCK(PeriphClkInit->PeriphClockSelection));
  
  /*------------------------------- RTC/LCD Configuration ------------------------*/ 
  if ((((PeriphClkInit->PeriphClockSelection) & RCC_PERIPHCLK_RTC) == RCC_PERIPHCLK_RTC))
 8002264:	6803      	ldr	r3, [r0, #0]
{
 8002266:	e92d 41f3 	stmdb	sp!, {r0, r1, r4, r5, r6, r7, r8, lr}
  if ((((PeriphClkInit->PeriphClockSelection) & RCC_PERIPHCLK_RTC) == RCC_PERIPHCLK_RTC))
 800226a:	07d9      	lsls	r1, r3, #31
{
 800226c:	4605      	mov	r5, r0
  if ((((PeriphClkInit->PeriphClockSelection) & RCC_PERIPHCLK_RTC) == RCC_PERIPHCLK_RTC))
 800226e:	d520      	bpl.n	80022b2 <HAL_RCCEx_PeriphCLKConfig+0x4e>
    FlagStatus       pwrclkchanged = RESET;

    /* As soon as function is called to change RTC clock source, activation of the 
       power domain is done. */
    /* Requires to enable write access to Backup Domain of necessary */
    if(__HAL_RCC_PWR_IS_CLK_DISABLED())
 8002270:	4c35      	ldr	r4, [pc, #212]	; (8002348 <HAL_RCCEx_PeriphCLKConfig+0xe4>)
 8002272:	69e3      	ldr	r3, [r4, #28]
 8002274:	00da      	lsls	r2, r3, #3
 8002276:	d432      	bmi.n	80022de <HAL_RCCEx_PeriphCLKConfig+0x7a>
    {
    __HAL_RCC_PWR_CLK_ENABLE();
      pwrclkchanged = SET;
 8002278:	2701      	movs	r7, #1
    __HAL_RCC_PWR_CLK_ENABLE();
 800227a:	69e3      	ldr	r3, [r4, #28]
 800227c:	f043 5380 	orr.w	r3, r3, #268435456	; 0x10000000
 8002280:	61e3      	str	r3, [r4, #28]
 8002282:	69e3      	ldr	r3, [r4, #28]
 8002284:	f003 5380 	and.w	r3, r3, #268435456	; 0x10000000
 8002288:	9301      	str	r3, [sp, #4]
 800228a:	9b01      	ldr	r3, [sp, #4]
    }
    
    if(HAL_IS_BIT_CLR(PWR->CR, PWR_CR_DBP))
 800228c:	4e2f      	ldr	r6, [pc, #188]	; (800234c <HAL_RCCEx_PeriphCLKConfig+0xe8>)
 800228e:	6833      	ldr	r3, [r6, #0]
 8002290:	05db      	lsls	r3, r3, #23
 8002292:	d526      	bpl.n	80022e2 <HAL_RCCEx_PeriphCLKConfig+0x7e>
        }
      }
    }
      
    /* Reset the Backup domain only if the RTC Clock source selection is modified from reset value */ 
    temp_reg = (RCC->BDCR & RCC_BDCR_RTCSEL);
 8002294:	6a23      	ldr	r3, [r4, #32]
    if((temp_reg != 0x00000000U) && (temp_reg != (PeriphClkInit->RTCClockSelection & RCC_BDCR_RTCSEL)))
 8002296:	f413 7340 	ands.w	r3, r3, #768	; 0x300
 800229a:	d136      	bne.n	800230a <HAL_RCCEx_PeriphCLKConfig+0xa6>
            return HAL_TIMEOUT;
          }      
        }  
      }
    }
    __HAL_RCC_RTC_CONFIG(PeriphClkInit->RTCClockSelection); 
 800229c:	6a23      	ldr	r3, [r4, #32]
 800229e:	686a      	ldr	r2, [r5, #4]
 80022a0:	f423 7340 	bic.w	r3, r3, #768	; 0x300
 80022a4:	4313      	orrs	r3, r2
 80022a6:	6223      	str	r3, [r4, #32]

    /* Require to disable power clock if necessary */
    if(pwrclkchanged == SET)
 80022a8:	b11f      	cbz	r7, 80022b2 <HAL_RCCEx_PeriphCLKConfig+0x4e>
    {
      __HAL_RCC_PWR_CLK_DISABLE();
 80022aa:	69e3      	ldr	r3, [r4, #28]
 80022ac:	f023 5380 	bic.w	r3, r3, #268435456	; 0x10000000
 80022b0:	61e3      	str	r3, [r4, #28]
    }
  }

  /*------------------------------ ADC clock Configuration ------------------*/ 
  if(((PeriphClkInit->PeriphClockSelection) & RCC_PERIPHCLK_ADC) == RCC_PERIPHCLK_ADC)
 80022b2:	6828      	ldr	r0, [r5, #0]
 80022b4:	0783      	lsls	r3, r0, #30
 80022b6:	d506      	bpl.n	80022c6 <HAL_RCCEx_PeriphCLKConfig+0x62>
  {
    /* Check the parameters */
    assert_param(IS_RCC_ADCPLLCLK_DIV(PeriphClkInit->AdcClockSelection));
    
    /* Configure the ADC clock source */
    __HAL_RCC_ADC_CONFIG(PeriphClkInit->AdcClockSelection);
 80022b8:	4a23      	ldr	r2, [pc, #140]	; (8002348 <HAL_RCCEx_PeriphCLKConfig+0xe4>)
 80022ba:	68a9      	ldr	r1, [r5, #8]
 80022bc:	6853      	ldr	r3, [r2, #4]
 80022be:	f423 4340 	bic.w	r3, r3, #49152	; 0xc000
 80022c2:	430b      	orrs	r3, r1
 80022c4:	6053      	str	r3, [r2, #4]

#if defined(STM32F102x6) || defined(STM32F102xB) || defined(STM32F103x6)\
 || defined(STM32F103xB) || defined(STM32F103xE) || defined(STM32F103xG)\
 || defined(STM32F105xC) || defined(STM32F107xC)
  /*------------------------------ USB clock Configuration ------------------*/ 
  if(((PeriphClkInit->PeriphClockSelection) & RCC_PERIPHCLK_USB) == RCC_PERIPHCLK_USB)
 80022c6:	f010 0010 	ands.w	r0, r0, #16
 80022ca:	d01b      	beq.n	8002304 <HAL_RCCEx_PeriphCLKConfig+0xa0>
  {
    /* Check the parameters */
    assert_param(IS_RCC_USBPLLCLK_DIV(PeriphClkInit->UsbClockSelection));
    
    /* Configure the USB clock source */
    __HAL_RCC_USB_CONFIG(PeriphClkInit->UsbClockSelection);
 80022cc:	4a1e      	ldr	r2, [pc, #120]	; (8002348 <HAL_RCCEx_PeriphCLKConfig+0xe4>)
 80022ce:	6969      	ldr	r1, [r5, #20]
 80022d0:	6853      	ldr	r3, [r2, #4]
  }
#endif /* STM32F102x6 || STM32F102xB || STM32F103x6 || STM32F103xB || STM32F103xE || STM32F103xG || STM32F105xC || STM32F107xC */

  return HAL_OK;
 80022d2:	2000      	movs	r0, #0
    __HAL_RCC_USB_CONFIG(PeriphClkInit->UsbClockSelection);
 80022d4:	f423 0380 	bic.w	r3, r3, #4194304	; 0x400000
 80022d8:	430b      	orrs	r3, r1
 80022da:	6053      	str	r3, [r2, #4]
 80022dc:	e012      	b.n	8002304 <HAL_RCCEx_PeriphCLKConfig+0xa0>
    FlagStatus       pwrclkchanged = RESET;
 80022de:	2700      	movs	r7, #0
 80022e0:	e7d4      	b.n	800228c <HAL_RCCEx_PeriphCLKConfig+0x28>
      SET_BIT(PWR->CR, PWR_CR_DBP);
 80022e2:	6833      	ldr	r3, [r6, #0]
 80022e4:	f443 7380 	orr.w	r3, r3, #256	; 0x100
 80022e8:	6033      	str	r3, [r6, #0]
      tickstart = HAL_GetTick();
 80022ea:	f7ff fbb1 	bl	8001a50 <HAL_GetTick>
 80022ee:	4680      	mov	r8, r0
      while(HAL_IS_BIT_CLR(PWR->CR, PWR_CR_DBP))
 80022f0:	6833      	ldr	r3, [r6, #0]
 80022f2:	05d8      	lsls	r0, r3, #23
 80022f4:	d4ce      	bmi.n	8002294 <HAL_RCCEx_PeriphCLKConfig+0x30>
        if((HAL_GetTick() - tickstart) > RCC_DBP_TIMEOUT_VALUE)
 80022f6:	f7ff fbab 	bl	8001a50 <HAL_GetTick>
 80022fa:	eba0 0008 	sub.w	r0, r0, r8
 80022fe:	2864      	cmp	r0, #100	; 0x64
 8002300:	d9f6      	bls.n	80022f0 <HAL_RCCEx_PeriphCLKConfig+0x8c>
          return HAL_TIMEOUT;
 8002302:	2003      	movs	r0, #3
}
 8002304:	b002      	add	sp, #8
 8002306:	e8bd 81f0 	ldmia.w	sp!, {r4, r5, r6, r7, r8, pc}
    if((temp_reg != 0x00000000U) && (temp_reg != (PeriphClkInit->RTCClockSelection & RCC_BDCR_RTCSEL)))
 800230a:	686a      	ldr	r2, [r5, #4]
 800230c:	f402 7240 	and.w	r2, r2, #768	; 0x300
 8002310:	4293      	cmp	r3, r2
 8002312:	d0c3      	beq.n	800229c <HAL_RCCEx_PeriphCLKConfig+0x38>
      __HAL_RCC_BACKUPRESET_FORCE();
 8002314:	2001      	movs	r0, #1
 8002316:	4a0e      	ldr	r2, [pc, #56]	; (8002350 <HAL_RCCEx_PeriphCLKConfig+0xec>)
      temp_reg = (RCC->BDCR & ~(RCC_BDCR_RTCSEL));
 8002318:	6a23      	ldr	r3, [r4, #32]
      __HAL_RCC_BACKUPRESET_FORCE();
 800231a:	6010      	str	r0, [r2, #0]
      __HAL_RCC_BACKUPRESET_RELEASE();
 800231c:	2000      	movs	r0, #0
      temp_reg = (RCC->BDCR & ~(RCC_BDCR_RTCSEL));
 800231e:	f423 7140 	bic.w	r1, r3, #768	; 0x300
      __HAL_RCC_BACKUPRESET_RELEASE();
 8002322:	6010      	str	r0, [r2, #0]
      RCC->BDCR = temp_reg;
 8002324:	6221      	str	r1, [r4, #32]
      if (HAL_IS_BIT_SET(temp_reg, RCC_BDCR_LSEON))
 8002326:	07d9      	lsls	r1, r3, #31
 8002328:	d5b8      	bpl.n	800229c <HAL_RCCEx_PeriphCLKConfig+0x38>
        tickstart = HAL_GetTick();
 800232a:	f7ff fb91 	bl	8001a50 <HAL_GetTick>
          if((HAL_GetTick() - tickstart) > RCC_LSE_TIMEOUT_VALUE)
 800232e:	f241 3888 	movw	r8, #5000	; 0x1388
        tickstart = HAL_GetTick();
 8002332:	4606      	mov	r6, r0
        while(__HAL_RCC_GET_FLAG(RCC_FLAG_LSERDY) == RESET)
 8002334:	6a23      	ldr	r3, [r4, #32]
 8002336:	079a      	lsls	r2, r3, #30
 8002338:	d4b0      	bmi.n	800229c <HAL_RCCEx_PeriphCLKConfig+0x38>
          if((HAL_GetTick() - tickstart) > RCC_LSE_TIMEOUT_VALUE)
 800233a:	f7ff fb89 	bl	8001a50 <HAL_GetTick>
 800233e:	1b80      	subs	r0, r0, r6
 8002340:	4540      	cmp	r0, r8
 8002342:	d9f7      	bls.n	8002334 <HAL_RCCEx_PeriphCLKConfig+0xd0>
 8002344:	e7dd      	b.n	8002302 <HAL_RCCEx_PeriphCLKConfig+0x9e>
 8002346:	bf00      	nop
 8002348:	40021000 	.word	0x40021000
 800234c:	40007000 	.word	0x40007000
 8002350:	42420440 	.word	0x42420440

08002354 <HAL_RCCEx_GetPeriphCLKFreq>:
  *            @arg @ref RCC_PERIPHCLK_USB  USB peripheral clock
  @endif
  * @retval Frequency in Hz (0: means that no available frequency for the peripheral)
  */
uint32_t HAL_RCCEx_GetPeriphCLKFreq(uint32_t PeriphClk)
{
 8002354:	4602      	mov	r2, r0
 8002356:	b570      	push	{r4, r5, r6, lr}
  uint32_t prediv1 = 0U, pllclk = 0U, pllmul = 0U;
  uint32_t pll2mul = 0U, pll3mul = 0U, prediv2 = 0U;
#endif /* STM32F105xC || STM32F107xC */
#if defined(STM32F102x6) || defined(STM32F102xB) || defined(STM32F103x6) || \
    defined(STM32F103xB) || defined(STM32F103xE) || defined(STM32F103xG)
  const uint8_t aPLLMULFactorTable[16] = {2, 3, 4, 5, 6, 7, 8, 9, 10, 11, 12, 13, 14, 15, 16, 16};
 8002358:	4b3b      	ldr	r3, [pc, #236]	; (8002448 <HAL_RCCEx_GetPeriphCLKFreq+0xf4>)
{
 800235a:	b086      	sub	sp, #24
  const uint8_t aPLLMULFactorTable[16] = {2, 3, 4, 5, 6, 7, 8, 9, 10, 11, 12, 13, 14, 15, 16, 16};
 800235c:	ad02      	add	r5, sp, #8
 800235e:	f103 0610 	add.w	r6, r3, #16
 8002362:	462c      	mov	r4, r5
 8002364:	6818      	ldr	r0, [r3, #0]
 8002366:	6859      	ldr	r1, [r3, #4]
 8002368:	3308      	adds	r3, #8
 800236a:	c403      	stmia	r4!, {r0, r1}
 800236c:	42b3      	cmp	r3, r6
 800236e:	4625      	mov	r5, r4
 8002370:	d1f7      	bne.n	8002362 <HAL_RCCEx_GetPeriphCLKFreq+0xe>
  const uint8_t aPredivFactorTable[2] = {1, 2};
 8002372:	2301      	movs	r3, #1
 8002374:	f88d 3004 	strb.w	r3, [sp, #4]
 8002378:	2302      	movs	r3, #2
  uint32_t temp_reg = 0U, frequency = 0U;

  /* Check the parameters */
  assert_param(IS_RCC_PERIPHCLOCK(PeriphClk));
  
  switch (PeriphClk)
 800237a:	1e50      	subs	r0, r2, #1
  const uint8_t aPredivFactorTable[2] = {1, 2};
 800237c:	f88d 3005 	strb.w	r3, [sp, #5]
  switch (PeriphClk)
 8002380:	280f      	cmp	r0, #15
 8002382:	d85e      	bhi.n	8002442 <HAL_RCCEx_GetPeriphCLKFreq+0xee>
 8002384:	e8df f000 	tbb	[pc, r0]
 8002388:	2d5d5132 	.word	0x2d5d5132
 800238c:	2d5d5d5d 	.word	0x2d5d5d5d
 8002390:	5d5d5d5d 	.word	0x5d5d5d5d
 8002394:	085d5d5d 	.word	0x085d5d5d
 || defined(STM32F103xB) || defined(STM32F103xE) || defined(STM32F103xG)\
 || defined(STM32F105xC) || defined(STM32F107xC)
  case RCC_PERIPHCLK_USB:  
    {
      /* Get RCC configuration ------------------------------------------------------*/
      temp_reg = RCC->CFGR;
 8002398:	4b2c      	ldr	r3, [pc, #176]	; (800244c <HAL_RCCEx_GetPeriphCLKFreq+0xf8>)
 800239a:	6859      	ldr	r1, [r3, #4]
  
      /* Check if PLL is enabled */
      if (HAL_IS_BIT_SET(RCC->CR,RCC_CR_PLLON))
 800239c:	6818      	ldr	r0, [r3, #0]
 800239e:	f010 7080 	ands.w	r0, r0, #16777216	; 0x1000000
 80023a2:	d037      	beq.n	8002414 <HAL_RCCEx_GetPeriphCLKFreq+0xc0>
      {
        pllmul = aPLLMULFactorTable[(uint32_t)(temp_reg & RCC_CFGR_PLLMULL) >> RCC_CFGR_PLLMULL_Pos];
 80023a4:	f3c1 4283 	ubfx	r2, r1, #18, #4
 80023a8:	a806      	add	r0, sp, #24
 80023aa:	4402      	add	r2, r0
 80023ac:	f812 0c10 	ldrb.w	r0, [r2, #-16]
        if ((temp_reg & RCC_CFGR_PLLSRC) != RCC_PLLSOURCE_HSI_DIV2)
 80023b0:	03ca      	lsls	r2, r1, #15
        {
#if defined(STM32F105xC) || defined(STM32F107xC) || defined(STM32F100xB)\
 || defined(STM32F100xE)
          prediv1 = aPredivFactorTable[(uint32_t)(RCC->CFGR2 & RCC_CFGR2_PREDIV1) >> RCC_CFGR2_PREDIV1_Pos];
#else
          prediv1 = aPredivFactorTable[(uint32_t)(RCC->CFGR & RCC_CFGR_PLLXTPRE) >> RCC_CFGR_PLLXTPRE_Pos];
 80023b2:	bf41      	itttt	mi
 80023b4:	685a      	ldrmi	r2, [r3, #4]
 80023b6:	a906      	addmi	r1, sp, #24
 80023b8:	f3c2 4240 	ubfxmi	r2, r2, #17, #1
 80023bc:	1852      	addmi	r2, r2, r1
 80023be:	bf44      	itt	mi
 80023c0:	f812 1c14 	ldrbmi.w	r1, [r2, #-20]
          }
#else
          if ((temp_reg & RCC_CFGR_PLLSRC) != RCC_PLLSOURCE_HSI_DIV2)
          {
            /* HSE used as PLL clock source : PLLCLK = HSE/PREDIV1 * PLLMUL */
            pllclk = (uint32_t)((HSE_VALUE / prediv1) * pllmul);
 80023c4:	4a22      	ldrmi	r2, [pc, #136]	; (8002450 <HAL_RCCEx_GetPeriphCLKFreq+0xfc>)
          /* Prescaler of 3 selected for USB */ 
          frequency = (2 * pllclk) / 3;
        }
#else
        /* USBCLK = PLLCLK / USB prescaler */
        if (__HAL_RCC_GET_USB_SOURCE() == RCC_USBCLKSOURCE_PLL)
 80023c6:	685b      	ldr	r3, [r3, #4]
            pllclk = (uint32_t)((HSE_VALUE / prediv1) * pllmul);
 80023c8:	bf4c      	ite	mi
 80023ca:	fbb2 f2f1 	udivmi	r2, r2, r1
          pllclk = (uint32_t)((HSI_VALUE >> 1) * pllmul);
 80023ce:	4a21      	ldrpl	r2, [pc, #132]	; (8002454 <HAL_RCCEx_GetPeriphCLKFreq+0x100>)
        if (__HAL_RCC_GET_USB_SOURCE() == RCC_USBCLKSOURCE_PLL)
 80023d0:	025b      	lsls	r3, r3, #9
          pllclk = (uint32_t)((HSI_VALUE >> 1) * pllmul);
 80023d2:	fb02 f000 	mul.w	r0, r2, r0
        if (__HAL_RCC_GET_USB_SOURCE() == RCC_USBCLKSOURCE_PLL)
 80023d6:	d41d      	bmi.n	8002414 <HAL_RCCEx_GetPeriphCLKFreq+0xc0>
          frequency = pllclk;
        }
        else
        {
          /* Prescaler of 1.5 selected for USB */ 
          frequency = (pllclk * 2) / 3;
 80023d8:	2303      	movs	r3, #3
 80023da:	0040      	lsls	r0, r0, #1
      }
      break;
    }
  case RCC_PERIPHCLK_ADC:  
    {
      frequency = HAL_RCC_GetPCLK2Freq() / (((__HAL_RCC_GET_ADC_SOURCE() >> RCC_CFGR_ADCPRE_Pos) + 1) * 2);
 80023dc:	fbb0 f0f3 	udiv	r0, r0, r3
      break;
 80023e0:	e018      	b.n	8002414 <HAL_RCCEx_GetPeriphCLKFreq+0xc0>
    {
      break;
    }
  }
  return(frequency);
}
 80023e2:	b006      	add	sp, #24
 80023e4:	e8bd 4070 	ldmia.w	sp!, {r4, r5, r6, lr}
      frequency = HAL_RCC_GetSysClockFreq();
 80023e8:	f7ff be46 	b.w	8002078 <HAL_RCC_GetSysClockFreq>
      if (((temp_reg & RCC_BDCR_RTCSEL) == RCC_RTCCLKSOURCE_LSE) && (HAL_IS_BIT_SET(temp_reg, RCC_BDCR_LSERDY)))
 80023ec:	f240 3102 	movw	r1, #770	; 0x302
      temp_reg = RCC->BDCR;
 80023f0:	4a16      	ldr	r2, [pc, #88]	; (800244c <HAL_RCCEx_GetPeriphCLKFreq+0xf8>)
 80023f2:	6a13      	ldr	r3, [r2, #32]
      if (((temp_reg & RCC_BDCR_RTCSEL) == RCC_RTCCLKSOURCE_LSE) && (HAL_IS_BIT_SET(temp_reg, RCC_BDCR_LSERDY)))
 80023f4:	4019      	ands	r1, r3
 80023f6:	f5b1 7f81 	cmp.w	r1, #258	; 0x102
 80023fa:	d01f      	beq.n	800243c <HAL_RCCEx_GetPeriphCLKFreq+0xe8>
      else if (((temp_reg & RCC_BDCR_RTCSEL) == RCC_RTCCLKSOURCE_LSI) && (HAL_IS_BIT_SET(RCC->CSR, RCC_CSR_LSIRDY)))
 80023fc:	f403 7340 	and.w	r3, r3, #768	; 0x300
 8002400:	f5b3 7f00 	cmp.w	r3, #512	; 0x200
 8002404:	d108      	bne.n	8002418 <HAL_RCCEx_GetPeriphCLKFreq+0xc4>
        frequency = LSI_VALUE;
 8002406:	f649 4040 	movw	r0, #40000	; 0x9c40
      else if (((temp_reg & RCC_BDCR_RTCSEL) == RCC_RTCCLKSOURCE_LSI) && (HAL_IS_BIT_SET(RCC->CSR, RCC_CSR_LSIRDY)))
 800240a:	6a53      	ldr	r3, [r2, #36]	; 0x24
        frequency = LSI_VALUE;
 800240c:	f013 0f02 	tst.w	r3, #2
        frequency = HSE_VALUE / 128U;
 8002410:	bf08      	it	eq
 8002412:	2000      	moveq	r0, #0
}
 8002414:	b006      	add	sp, #24
 8002416:	bd70      	pop	{r4, r5, r6, pc}
      else if (((temp_reg & RCC_BDCR_RTCSEL) == RCC_RTCCLKSOURCE_HSE_DIV128) && (HAL_IS_BIT_SET(RCC->CR, RCC_CR_HSERDY)))
 8002418:	f5b3 7f40 	cmp.w	r3, #768	; 0x300
 800241c:	d111      	bne.n	8002442 <HAL_RCCEx_GetPeriphCLKFreq+0xee>
 800241e:	6813      	ldr	r3, [r2, #0]
        frequency = HSE_VALUE / 128U;
 8002420:	f24f 4024 	movw	r0, #62500	; 0xf424
 8002424:	f413 3f00 	tst.w	r3, #131072	; 0x20000
 8002428:	e7f2      	b.n	8002410 <HAL_RCCEx_GetPeriphCLKFreq+0xbc>
      frequency = HAL_RCC_GetPCLK2Freq() / (((__HAL_RCC_GET_ADC_SOURCE() >> RCC_CFGR_ADCPRE_Pos) + 1) * 2);
 800242a:	f7ff ff0b 	bl	8002244 <HAL_RCC_GetPCLK2Freq>
 800242e:	4b07      	ldr	r3, [pc, #28]	; (800244c <HAL_RCCEx_GetPeriphCLKFreq+0xf8>)
 8002430:	685b      	ldr	r3, [r3, #4]
 8002432:	f3c3 3381 	ubfx	r3, r3, #14, #2
 8002436:	3301      	adds	r3, #1
 8002438:	005b      	lsls	r3, r3, #1
 800243a:	e7cf      	b.n	80023dc <HAL_RCCEx_GetPeriphCLKFreq+0x88>
        frequency = LSE_VALUE;
 800243c:	f44f 4000 	mov.w	r0, #32768	; 0x8000
 8002440:	e7e8      	b.n	8002414 <HAL_RCCEx_GetPeriphCLKFreq+0xc0>
        frequency = 0U;
 8002442:	2000      	movs	r0, #0
 8002444:	e7e6      	b.n	8002414 <HAL_RCCEx_GetPeriphCLKFreq+0xc0>
 8002446:	bf00      	nop
 8002448:	08008070 	.word	0x08008070
 800244c:	40021000 	.word	0x40021000
 8002450:	007a1200 	.word	0x007a1200
 8002454:	003d0900 	.word	0x003d0900

08002458 <RTC_ReadTimeCounter>:
static uint32_t RTC_ReadTimeCounter(RTC_HandleTypeDef* hrtc)
{
  uint16_t high1 = 0U, high2 = 0U, low = 0U;
  uint32_t timecounter = 0U;

  high1 = READ_REG(hrtc->Instance->CNTH & RTC_CNTH_RTC_CNT);
 8002458:	6803      	ldr	r3, [r0, #0]
{
 800245a:	b530      	push	{r4, r5, lr}
  high1 = READ_REG(hrtc->Instance->CNTH & RTC_CNTH_RTC_CNT);
 800245c:	699a      	ldr	r2, [r3, #24]
  low   = READ_REG(hrtc->Instance->CNTL & RTC_CNTL_RTC_CNT);
 800245e:	69d8      	ldr	r0, [r3, #28]
  high2 = READ_REG(hrtc->Instance->CNTH & RTC_CNTH_RTC_CNT);
 8002460:	6999      	ldr	r1, [r3, #24]

  if (high1 != high2)
 8002462:	b295      	uxth	r5, r2
 8002464:	b28c      	uxth	r4, r1
 8002466:	42a5      	cmp	r5, r4
  { /* In this case the counter roll over during reading of CNTL and CNTH registers, 
       read again CNTL register then return the counter value */
    timecounter = (((uint32_t) high2 << 16U) | READ_REG(hrtc->Instance->CNTL & RTC_CNTL_RTC_CNT));
 8002468:	bf1d      	ittte	ne
 800246a:	69d8      	ldrne	r0, [r3, #28]
 800246c:	b280      	uxthne	r0, r0
 800246e:	ea40 4001 	orrne.w	r0, r0, r1, lsl #16
  }
  else
  { /* No counter roll over during reading of CNTL and CNTH registers, counter 
       value is equal to first value of CNTL and CNTH */
    timecounter = (((uint32_t) high1 << 16U) | low);
 8002472:	b280      	uxtheq	r0, r0
 8002474:	bf08      	it	eq
 8002476:	ea40 4002 	orreq.w	r0, r0, r2, lsl #16
  }

  return timecounter;
}
 800247a:	bd30      	pop	{r4, r5, pc}

0800247c <RTC_ReadAlarmCounter>:
  */
static uint32_t RTC_ReadAlarmCounter(RTC_HandleTypeDef* hrtc)
{
  uint16_t high1 = 0U, low = 0U;

  high1 = READ_REG(hrtc->Instance->ALRH & RTC_CNTH_RTC_CNT);
 800247c:	6803      	ldr	r3, [r0, #0]
 800247e:	6a18      	ldr	r0, [r3, #32]
  low   = READ_REG(hrtc->Instance->ALRL & RTC_CNTL_RTC_CNT);
 8002480:	6a5b      	ldr	r3, [r3, #36]	; 0x24

  return (((uint32_t) high1 << 16U) | low);
 8002482:	b29b      	uxth	r3, r3
}
 8002484:	ea43 4000 	orr.w	r0, r3, r0, lsl #16
 8002488:	4770      	bx	lr

0800248a <RTC_ByteToBcd2>:
  * @param  Value: Byte to be converted
  * @retval Converted byte
  */
static uint8_t RTC_ByteToBcd2(uint8_t Value)
{
  uint32_t bcdhigh = 0U;
 800248a:	2300      	movs	r3, #0
  
  while(Value >= 10U)
 800248c:	2809      	cmp	r0, #9
 800248e:	d803      	bhi.n	8002498 <RTC_ByteToBcd2+0xe>
  {
    bcdhigh++;
    Value -= 10U;
  }
  
  return  ((uint8_t)(bcdhigh << 4U) | Value);
 8002490:	ea40 1003 	orr.w	r0, r0, r3, lsl #4
}
 8002494:	b2c0      	uxtb	r0, r0
 8002496:	4770      	bx	lr
    Value -= 10U;
 8002498:	380a      	subs	r0, #10
    bcdhigh++;
 800249a:	3301      	adds	r3, #1
    Value -= 10U;
 800249c:	b2c0      	uxtb	r0, r0
 800249e:	e7f5      	b.n	800248c <RTC_ByteToBcd2+0x2>

080024a0 <RTC_Bcd2ToByte>:
  */
static uint8_t RTC_Bcd2ToByte(uint8_t Value)
{
  uint32_t tmp = 0U;
  tmp = ((uint8_t)(Value & (uint8_t)0xF0) >> (uint8_t)0x4) * 10U;
  return (tmp + (Value & (uint8_t)0x0F));
 80024a0:	220a      	movs	r2, #10
  tmp = ((uint8_t)(Value & (uint8_t)0xF0) >> (uint8_t)0x4) * 10U;
 80024a2:	0903      	lsrs	r3, r0, #4
  return (tmp + (Value & (uint8_t)0x0F));
 80024a4:	f000 000f 	and.w	r0, r0, #15
 80024a8:	fb02 0003 	mla	r0, r2, r3, r0
}
 80024ac:	b2c0      	uxtb	r0, r0
 80024ae:	4770      	bx	lr

080024b0 <RTC_WeekDayNum>:
{
  uint32_t year = 0U, weekday = 0U;

  year = 2000U + nYear;
  
  if(nMonth < 3U)
 80024b0:	2902      	cmp	r1, #2
{
 80024b2:	b570      	push	{r4, r5, r6, lr}
 80024b4:	f04f 0317 	mov.w	r3, #23
  year = 2000U + nYear;
 80024b8:	f500 65fa 	add.w	r5, r0, #2000	; 0x7d0
 80024bc:	f04f 0609 	mov.w	r6, #9
  if(nMonth < 3U)
 80024c0:	d81a      	bhi.n	80024f8 <RTC_WeekDayNum+0x48>
  {
    /*D = { [(23 x month)/9] + day + 4 + year + [(year-1)/4] - [(year-1)/100] + [(year-1)/400] } mod 7*/
    weekday = (((23U * nMonth)/9U) + nDay + 4U + year + ((year-1U)/4U) - ((year-1U)/100U) + ((year-1U)/400U)) % 7U;
 80024c2:	434b      	muls	r3, r1
 80024c4:	f200 74cf 	addw	r4, r0, #1999	; 0x7cf
 80024c8:	fbb3 f0f6 	udiv	r0, r3, r6
 80024cc:	f44f 73c8 	mov.w	r3, #400	; 0x190
 80024d0:	fbb4 f3f3 	udiv	r3, r4, r3
 80024d4:	3204      	adds	r2, #4
 80024d6:	442a      	add	r2, r5
 80024d8:	4410      	add	r0, r2
 80024da:	eb00 0094 	add.w	r0, r0, r4, lsr #2
 80024de:	4418      	add	r0, r3
 80024e0:	2364      	movs	r3, #100	; 0x64
 80024e2:	fbb4 f4f3 	udiv	r4, r4, r3
 80024e6:	1b00      	subs	r0, r0, r4
  }
  else
  {
    /*D = { [(23 x month)/9] + day + 4 + year + [year/4] - [year/100] + [year/400] - 2 } mod 7*/
    weekday = (((23U * nMonth)/9U) + nDay + 4U + year + (year/4U) - (year/100U) + (year/400U) - 2U ) % 7U; 
 80024e8:	2307      	movs	r3, #7
 80024ea:	fbb0 f3f3 	udiv	r3, r0, r3
 80024ee:	ebc3 03c3 	rsb	r3, r3, r3, lsl #3
 80024f2:	1ac0      	subs	r0, r0, r3
  }

  return (uint8_t)weekday;
}
 80024f4:	b2c0      	uxtb	r0, r0
 80024f6:	bd70      	pop	{r4, r5, r6, pc}
    weekday = (((23U * nMonth)/9U) + nDay + 4U + year + (year/4U) - (year/100U) + (year/400U) - 2U ) % 7U; 
 80024f8:	fb03 f001 	mul.w	r0, r3, r1
 80024fc:	fbb0 f0f6 	udiv	r0, r0, r6
 8002500:	3202      	adds	r2, #2
 8002502:	442a      	add	r2, r5
 8002504:	f44f 73c8 	mov.w	r3, #400	; 0x190
 8002508:	4410      	add	r0, r2
 800250a:	2264      	movs	r2, #100	; 0x64
 800250c:	fbb5 f3f3 	udiv	r3, r5, r3
 8002510:	fbb5 f2f2 	udiv	r2, r5, r2
 8002514:	eb00 0095 	add.w	r0, r0, r5, lsr #2
 8002518:	4418      	add	r0, r3
 800251a:	1a80      	subs	r0, r0, r2
 800251c:	e7e4      	b.n	80024e8 <RTC_WeekDayNum+0x38>

0800251e <RTC_EnterInitMode>:
{
 800251e:	b538      	push	{r3, r4, r5, lr}
 8002520:	4604      	mov	r4, r0
  tickstart = HAL_GetTick();
 8002522:	f7ff fa95 	bl	8001a50 <HAL_GetTick>
 8002526:	4605      	mov	r5, r0
  while((hrtc->Instance->CRL & RTC_CRL_RTOFF) == (uint32_t)RESET)
 8002528:	6823      	ldr	r3, [r4, #0]
 800252a:	685a      	ldr	r2, [r3, #4]
 800252c:	0692      	lsls	r2, r2, #26
 800252e:	d505      	bpl.n	800253c <RTC_EnterInitMode+0x1e>
  __HAL_RTC_WRITEPROTECTION_DISABLE(hrtc);
 8002530:	685a      	ldr	r2, [r3, #4]
  return HAL_OK;  
 8002532:	2000      	movs	r0, #0
  __HAL_RTC_WRITEPROTECTION_DISABLE(hrtc);
 8002534:	f042 0210 	orr.w	r2, r2, #16
 8002538:	605a      	str	r2, [r3, #4]
  return HAL_OK;  
 800253a:	bd38      	pop	{r3, r4, r5, pc}
    if((HAL_GetTick() - tickstart) >  RTC_TIMEOUT_VALUE)
 800253c:	f7ff fa88 	bl	8001a50 <HAL_GetTick>
 8002540:	1b40      	subs	r0, r0, r5
 8002542:	f5b0 7f7a 	cmp.w	r0, #1000	; 0x3e8
 8002546:	d9ef      	bls.n	8002528 <RTC_EnterInitMode+0xa>
      return HAL_TIMEOUT;
 8002548:	2003      	movs	r0, #3
}
 800254a:	bd38      	pop	{r3, r4, r5, pc}

0800254c <RTC_ExitInitMode>:
  __HAL_RTC_WRITEPROTECTION_ENABLE(hrtc);
 800254c:	6802      	ldr	r2, [r0, #0]
{
 800254e:	b538      	push	{r3, r4, r5, lr}
  __HAL_RTC_WRITEPROTECTION_ENABLE(hrtc);
 8002550:	6853      	ldr	r3, [r2, #4]
{
 8002552:	4604      	mov	r4, r0
  __HAL_RTC_WRITEPROTECTION_ENABLE(hrtc);
 8002554:	f023 0310 	bic.w	r3, r3, #16
 8002558:	6053      	str	r3, [r2, #4]
  tickstart = HAL_GetTick();
 800255a:	f7ff fa79 	bl	8001a50 <HAL_GetTick>
 800255e:	4605      	mov	r5, r0
  while((hrtc->Instance->CRL & RTC_CRL_RTOFF) == (uint32_t)RESET)
 8002560:	6823      	ldr	r3, [r4, #0]
 8002562:	685b      	ldr	r3, [r3, #4]
 8002564:	069b      	lsls	r3, r3, #26
 8002566:	d501      	bpl.n	800256c <RTC_ExitInitMode+0x20>
  return HAL_OK;  
 8002568:	2000      	movs	r0, #0
 800256a:	bd38      	pop	{r3, r4, r5, pc}
    if((HAL_GetTick() - tickstart) >  RTC_TIMEOUT_VALUE)
 800256c:	f7ff fa70 	bl	8001a50 <HAL_GetTick>
 8002570:	1b40      	subs	r0, r0, r5
 8002572:	f5b0 7f7a 	cmp.w	r0, #1000	; 0x3e8
 8002576:	d9f3      	bls.n	8002560 <RTC_ExitInitMode+0x14>
      return HAL_TIMEOUT;
 8002578:	2003      	movs	r0, #3
}
 800257a:	bd38      	pop	{r3, r4, r5, pc}

0800257c <RTC_WriteTimeCounter>:
{
 800257c:	b538      	push	{r3, r4, r5, lr}
 800257e:	4605      	mov	r5, r0
 8002580:	460c      	mov	r4, r1
  if(RTC_EnterInitMode(hrtc) != HAL_OK)
 8002582:	f7ff ffcc 	bl	800251e <RTC_EnterInitMode>
 8002586:	b958      	cbnz	r0, 80025a0 <RTC_WriteTimeCounter+0x24>
    WRITE_REG(hrtc->Instance->CNTH, (TimeCounter >> 16U));
 8002588:	682b      	ldr	r3, [r5, #0]
 800258a:	0c22      	lsrs	r2, r4, #16
    WRITE_REG(hrtc->Instance->CNTL, (TimeCounter & RTC_CNTL_RTC_CNT));
 800258c:	b2a4      	uxth	r4, r4
    WRITE_REG(hrtc->Instance->CNTH, (TimeCounter >> 16U));
 800258e:	619a      	str	r2, [r3, #24]
    if(RTC_ExitInitMode(hrtc) != HAL_OK)
 8002590:	4628      	mov	r0, r5
    WRITE_REG(hrtc->Instance->CNTL, (TimeCounter & RTC_CNTL_RTC_CNT));
 8002592:	61dc      	str	r4, [r3, #28]
    if(RTC_ExitInitMode(hrtc) != HAL_OK)
 8002594:	f7ff ffda 	bl	800254c <RTC_ExitInitMode>
    status = HAL_ERROR;
 8002598:	3000      	adds	r0, #0
 800259a:	bf18      	it	ne
 800259c:	2001      	movne	r0, #1
 800259e:	bd38      	pop	{r3, r4, r5, pc}
 80025a0:	2001      	movs	r0, #1
}
 80025a2:	bd38      	pop	{r3, r4, r5, pc}

080025a4 <RTC_WriteAlarmCounter>:
{
 80025a4:	b538      	push	{r3, r4, r5, lr}
 80025a6:	4605      	mov	r5, r0
 80025a8:	460c      	mov	r4, r1
  if(RTC_EnterInitMode(hrtc) != HAL_OK)
 80025aa:	f7ff ffb8 	bl	800251e <RTC_EnterInitMode>
 80025ae:	b958      	cbnz	r0, 80025c8 <RTC_WriteAlarmCounter+0x24>
    WRITE_REG(hrtc->Instance->ALRH, (AlarmCounter >> 16U));
 80025b0:	682b      	ldr	r3, [r5, #0]
 80025b2:	0c22      	lsrs	r2, r4, #16
    WRITE_REG(hrtc->Instance->ALRL, (AlarmCounter & RTC_ALRL_RTC_ALR));
 80025b4:	b2a4      	uxth	r4, r4
    WRITE_REG(hrtc->Instance->ALRH, (AlarmCounter >> 16U));
 80025b6:	621a      	str	r2, [r3, #32]
    if(RTC_ExitInitMode(hrtc) != HAL_OK)
 80025b8:	4628      	mov	r0, r5
    WRITE_REG(hrtc->Instance->ALRL, (AlarmCounter & RTC_ALRL_RTC_ALR));
 80025ba:	625c      	str	r4, [r3, #36]	; 0x24
    if(RTC_ExitInitMode(hrtc) != HAL_OK)
 80025bc:	f7ff ffc6 	bl	800254c <RTC_ExitInitMode>
    status = HAL_ERROR;
 80025c0:	3000      	adds	r0, #0
 80025c2:	bf18      	it	ne
 80025c4:	2001      	movne	r0, #1
 80025c6:	bd38      	pop	{r3, r4, r5, pc}
 80025c8:	2001      	movs	r0, #1
}
 80025ca:	bd38      	pop	{r3, r4, r5, pc}

080025cc <HAL_RTC_SetTime>:
{
 80025cc:	b570      	push	{r4, r5, r6, lr}
  if((hrtc == NULL) || (sTime == NULL))
 80025ce:	4604      	mov	r4, r0
 80025d0:	b1e0      	cbz	r0, 800260c <HAL_RTC_SetTime+0x40>
 80025d2:	b1d9      	cbz	r1, 800260c <HAL_RTC_SetTime+0x40>
  __HAL_LOCK(hrtc);
 80025d4:	7c03      	ldrb	r3, [r0, #16]
 80025d6:	2602      	movs	r6, #2
 80025d8:	2b01      	cmp	r3, #1
 80025da:	d046      	beq.n	800266a <HAL_RTC_SetTime+0x9e>
 80025dc:	2301      	movs	r3, #1
  hrtc->State = HAL_RTC_STATE_BUSY;
 80025de:	7446      	strb	r6, [r0, #17]
  __HAL_LOCK(hrtc);
 80025e0:	7403      	strb	r3, [r0, #16]
 80025e2:	7808      	ldrb	r0, [r1, #0]
 80025e4:	784e      	ldrb	r6, [r1, #1]
 80025e6:	7889      	ldrb	r1, [r1, #2]
  if(Format == RTC_FORMAT_BIN)
 80025e8:	b992      	cbnz	r2, 8002610 <HAL_RTC_SetTime+0x44>
                        ((uint32_t)sTime->Minutes * 60U) + \
 80025ea:	253c      	movs	r5, #60	; 0x3c
    counter_time = (uint32_t)(((uint32_t)sTime->Hours * 3600U) + \
 80025ec:	f44f 6361 	mov.w	r3, #3600	; 0xe10
                        ((uint32_t)sTime->Minutes * 60U) + \
 80025f0:	4375      	muls	r5, r6
    counter_time = (uint32_t)(((uint32_t)sTime->Hours * 3600U) + \
 80025f2:	fb03 5000 	mla	r0, r3, r0, r5
 80025f6:	1845      	adds	r5, r0, r1
  if (RTC_WriteTimeCounter(hrtc, counter_time) != HAL_OK)
 80025f8:	4629      	mov	r1, r5
 80025fa:	4620      	mov	r0, r4
 80025fc:	f7ff ffbe 	bl	800257c <RTC_WriteTimeCounter>
 8002600:	4606      	mov	r6, r0
 8002602:	b1b0      	cbz	r0, 8002632 <HAL_RTC_SetTime+0x66>
    hrtc->State = HAL_RTC_STATE_ERROR;
 8002604:	2304      	movs	r3, #4
 8002606:	7463      	strb	r3, [r4, #17]
    __HAL_UNLOCK(hrtc);
 8002608:	2300      	movs	r3, #0
 800260a:	7423      	strb	r3, [r4, #16]
     return HAL_ERROR;
 800260c:	2601      	movs	r6, #1
 800260e:	e02c      	b.n	800266a <HAL_RTC_SetTime+0x9e>
    counter_time = (((uint32_t)(RTC_Bcd2ToByte(sTime->Hours)) * 3600U) + \
 8002610:	f7ff ff46 	bl	80024a0 <RTC_Bcd2ToByte>
 8002614:	4605      	mov	r5, r0
              ((uint32_t)(RTC_Bcd2ToByte(sTime->Minutes)) * 60U) + \
 8002616:	4630      	mov	r0, r6
 8002618:	f7ff ff42 	bl	80024a0 <RTC_Bcd2ToByte>
 800261c:	233c      	movs	r3, #60	; 0x3c
 800261e:	4358      	muls	r0, r3
    counter_time = (((uint32_t)(RTC_Bcd2ToByte(sTime->Hours)) * 3600U) + \
 8002620:	f44f 6361 	mov.w	r3, #3600	; 0xe10
 8002624:	fb03 0505 	mla	r5, r3, r5, r0
              ((uint32_t)(RTC_Bcd2ToByte(sTime->Seconds))));   
 8002628:	4608      	mov	r0, r1
 800262a:	f7ff ff39 	bl	80024a0 <RTC_Bcd2ToByte>
    counter_time = (((uint32_t)(RTC_Bcd2ToByte(sTime->Hours)) * 3600U) + \
 800262e:	4405      	add	r5, r0
 8002630:	e7e2      	b.n	80025f8 <HAL_RTC_SetTime+0x2c>
    CLEAR_BIT(hrtc->Instance->CRL, (RTC_FLAG_SEC | RTC_FLAG_OW));
 8002632:	6822      	ldr	r2, [r4, #0]
    counter_alarm = RTC_ReadAlarmCounter(hrtc);
 8002634:	4620      	mov	r0, r4
    CLEAR_BIT(hrtc->Instance->CRL, (RTC_FLAG_SEC | RTC_FLAG_OW));
 8002636:	6853      	ldr	r3, [r2, #4]
 8002638:	f023 0305 	bic.w	r3, r3, #5
 800263c:	6053      	str	r3, [r2, #4]
    counter_alarm = RTC_ReadAlarmCounter(hrtc);
 800263e:	f7ff ff1d 	bl	800247c <RTC_ReadAlarmCounter>
    if (counter_alarm != RTC_ALARM_RESETVALUE)
 8002642:	1c43      	adds	r3, r0, #1
 8002644:	d00d      	beq.n	8002662 <HAL_RTC_SetTime+0x96>
      if(counter_alarm < counter_time)
 8002646:	4285      	cmp	r5, r0
 8002648:	d90b      	bls.n	8002662 <HAL_RTC_SetTime+0x96>
        if (RTC_WriteAlarmCounter(hrtc, counter_alarm) != HAL_OK)
 800264a:	f500 31a8 	add.w	r1, r0, #86016	; 0x15000
 800264e:	f501 71c0 	add.w	r1, r1, #384	; 0x180
 8002652:	4620      	mov	r0, r4
 8002654:	f7ff ffa6 	bl	80025a4 <RTC_WriteAlarmCounter>
 8002658:	b118      	cbz	r0, 8002662 <HAL_RTC_SetTime+0x96>
          hrtc->State = HAL_RTC_STATE_ERROR;
 800265a:	2304      	movs	r3, #4
          __HAL_UNLOCK(hrtc);
 800265c:	7426      	strb	r6, [r4, #16]
          hrtc->State = HAL_RTC_STATE_ERROR;
 800265e:	7463      	strb	r3, [r4, #17]
 8002660:	e7d4      	b.n	800260c <HAL_RTC_SetTime+0x40>
    hrtc->State = HAL_RTC_STATE_READY;
 8002662:	2301      	movs	r3, #1
 8002664:	7463      	strb	r3, [r4, #17]
   __HAL_UNLOCK(hrtc); 
 8002666:	2300      	movs	r3, #0
 8002668:	7423      	strb	r3, [r4, #16]
}
 800266a:	4630      	mov	r0, r6
 800266c:	bd70      	pop	{r4, r5, r6, pc}
	...

08002670 <HAL_RTC_GetTime>:
{
 8002670:	e92d 43f8 	stmdb	sp!, {r3, r4, r5, r6, r7, r8, r9, lr}
 8002674:	460d      	mov	r5, r1
 8002676:	4690      	mov	r8, r2
  if((hrtc == NULL) || (sTime == NULL))
 8002678:	4604      	mov	r4, r0
 800267a:	b910      	cbnz	r0, 8002682 <HAL_RTC_GetTime+0x12>
     return HAL_ERROR;
 800267c:	2001      	movs	r0, #1
 800267e:	e8bd 83f8 	ldmia.w	sp!, {r3, r4, r5, r6, r7, r8, r9, pc}
  if((hrtc == NULL) || (sTime == NULL))
 8002682:	2900      	cmp	r1, #0
 8002684:	d0fa      	beq.n	800267c <HAL_RTC_GetTime+0xc>
  if (__HAL_RTC_OVERFLOW_GET_FLAG(hrtc, RTC_FLAG_OW))
 8002686:	6803      	ldr	r3, [r0, #0]
 8002688:	685b      	ldr	r3, [r3, #4]
 800268a:	075e      	lsls	r6, r3, #29
 800268c:	d4f6      	bmi.n	800267c <HAL_RTC_GetTime+0xc>
  counter_time = RTC_ReadTimeCounter(hrtc);
 800268e:	f7ff fee3 	bl	8002458 <RTC_ReadTimeCounter>
  hours = counter_time / 3600U;
 8002692:	f44f 6261 	mov.w	r2, #3600	; 0xe10
 8002696:	fbb0 f3f2 	udiv	r3, r0, r2
  counter_time = RTC_ReadTimeCounter(hrtc);
 800269a:	4607      	mov	r7, r0
  sTime->Minutes  = (uint8_t)((counter_time % 3600U) / 60U);
 800269c:	fb02 0213 	mls	r2, r2, r3, r0
 80026a0:	203c      	movs	r0, #60	; 0x3c
 80026a2:	fbb2 f1f0 	udiv	r1, r2, r0
  sTime->Seconds  = (uint8_t)((counter_time % 3600U) % 60U);
 80026a6:	fb00 2211 	mls	r2, r0, r1, r2
  if (hours >= 24U)
 80026aa:	2b17      	cmp	r3, #23
  sTime->Minutes  = (uint8_t)((counter_time % 3600U) / 60U);
 80026ac:	7069      	strb	r1, [r5, #1]
  sTime->Seconds  = (uint8_t)((counter_time % 3600U) % 60U);
 80026ae:	70aa      	strb	r2, [r5, #2]
  if (hours >= 24U)
 80026b0:	f240 8085 	bls.w	80027be <HAL_RTC_GetTime+0x14e>
    sTime->Hours = (hours % 24U);    
 80026b4:	2118      	movs	r1, #24
 80026b6:	fbb3 f2f1 	udiv	r2, r3, r1
 80026ba:	fb01 3312 	mls	r3, r1, r2, r3
    counter_alarm = RTC_ReadAlarmCounter(hrtc);
 80026be:	4620      	mov	r0, r4
    sTime->Hours = (hours % 24U);    
 80026c0:	702b      	strb	r3, [r5, #0]
    counter_alarm = RTC_ReadAlarmCounter(hrtc);
 80026c2:	f7ff fedb 	bl	800247c <RTC_ReadAlarmCounter>
    if ((counter_alarm != RTC_ALARM_RESETVALUE) && (counter_alarm > counter_time))
 80026c6:	1c41      	adds	r1, r0, #1
    counter_alarm = RTC_ReadAlarmCounter(hrtc);
 80026c8:	4606      	mov	r6, r0
    if ((counter_alarm != RTC_ALARM_RESETVALUE) && (counter_alarm > counter_time))
 80026ca:	d004      	beq.n	80026d6 <HAL_RTC_GetTime+0x66>
 80026cc:	4287      	cmp	r7, r0
      counter_alarm = RTC_ALARM_RESETVALUE;
 80026ce:	bf2c      	ite	cs
 80026d0:	f04f 36ff 	movcs.w	r6, #4294967295
      counter_alarm -= counter_time;
 80026d4:	1bc6      	subcc	r6, r0, r7
 80026d6:	4b40      	ldr	r3, [pc, #256]	; (80027d8 <HAL_RTC_GetTime+0x168>)
    if (RTC_WriteTimeCounter(hrtc, counter_time) != HAL_OK)
 80026d8:	4620      	mov	r0, r4
 80026da:	fbb7 f9f3 	udiv	r9, r7, r3
 80026de:	fb03 7919 	mls	r9, r3, r9, r7
 80026e2:	4649      	mov	r1, r9
 80026e4:	f7ff ff4a 	bl	800257c <RTC_WriteTimeCounter>
 80026e8:	2800      	cmp	r0, #0
 80026ea:	d1c7      	bne.n	800267c <HAL_RTC_GetTime+0xc>
    if (counter_alarm != RTC_ALARM_RESETVALUE)
 80026ec:	1c72      	adds	r2, r6, #1
 80026ee:	d02f      	beq.n	8002750 <HAL_RTC_GetTime+0xe0>
      if (RTC_WriteAlarmCounter(hrtc, counter_alarm) != HAL_OK)
 80026f0:	eb09 0106 	add.w	r1, r9, r6
      if (RTC_WriteAlarmCounter(hrtc, counter_alarm) != HAL_OK)
 80026f4:	4620      	mov	r0, r4
 80026f6:	f7ff ff55 	bl	80025a4 <RTC_WriteAlarmCounter>
 80026fa:	2800      	cmp	r0, #0
 80026fc:	d1be      	bne.n	800267c <HAL_RTC_GetTime+0xc>
    days_elapsed = (hours / 24U);
 80026fe:	4b36      	ldr	r3, [pc, #216]	; (80027d8 <HAL_RTC_GetTime+0x168>)
  for (loop = 0U; loop < DayElapsed; loop++)
 8002700:	2600      	movs	r6, #0
    days_elapsed = (hours / 24U);
 8002702:	fbb7 f7f3 	udiv	r7, r7, r3
  if((nYear % 100U) != 0U) 
 8002706:	f04f 0e64 	mov.w	lr, #100	; 0x64
  if((nYear % 400U) == 0U)
 800270a:	f44f 7cc8 	mov.w	ip, #400	; 0x190
    if((month == 1U) || (month == 3U) || (month == 5U) || (month == 7U) || \
 800270e:	f240 29d5 	movw	r9, #725	; 0x2d5
  year = hrtc->DateToUpdate.Year;
 8002712:	7be0      	ldrb	r0, [r4, #15]
  month = hrtc->DateToUpdate.Month;
 8002714:	7b61      	ldrb	r1, [r4, #13]
  day = hrtc->DateToUpdate.Date;
 8002716:	7ba2      	ldrb	r2, [r4, #14]
  for (loop = 0U; loop < DayElapsed; loop++)
 8002718:	42b7      	cmp	r7, r6
 800271a:	d11b      	bne.n	8002754 <HAL_RTC_GetTime+0xe4>
  hrtc->DateToUpdate.Month = month;
 800271c:	b2c9      	uxtb	r1, r1
  hrtc->DateToUpdate.Date = day;
 800271e:	b2d2      	uxtb	r2, r2
  hrtc->DateToUpdate.Year = year;
 8002720:	73e0      	strb	r0, [r4, #15]
  hrtc->DateToUpdate.Month = month;
 8002722:	7361      	strb	r1, [r4, #13]
  hrtc->DateToUpdate.Date = day;
 8002724:	73a2      	strb	r2, [r4, #14]
  hrtc->DateToUpdate.WeekDay = RTC_WeekDayNum(year, month, day);
 8002726:	f7ff fec3 	bl	80024b0 <RTC_WeekDayNum>
 800272a:	7320      	strb	r0, [r4, #12]
  if(Format != RTC_FORMAT_BIN)
 800272c:	f1b8 0f00 	cmp.w	r8, #0
 8002730:	d00b      	beq.n	800274a <HAL_RTC_GetTime+0xda>
    sTime->Hours    = (uint8_t)RTC_ByteToBcd2(sTime->Hours);
 8002732:	7828      	ldrb	r0, [r5, #0]
 8002734:	f7ff fea9 	bl	800248a <RTC_ByteToBcd2>
 8002738:	7028      	strb	r0, [r5, #0]
    sTime->Minutes  = (uint8_t)RTC_ByteToBcd2(sTime->Minutes);
 800273a:	7868      	ldrb	r0, [r5, #1]
 800273c:	f7ff fea5 	bl	800248a <RTC_ByteToBcd2>
 8002740:	7068      	strb	r0, [r5, #1]
    sTime->Seconds  = (uint8_t)RTC_ByteToBcd2(sTime->Seconds);  
 8002742:	78a8      	ldrb	r0, [r5, #2]
 8002744:	f7ff fea1 	bl	800248a <RTC_ByteToBcd2>
 8002748:	70a8      	strb	r0, [r5, #2]
  return HAL_OK;
 800274a:	2000      	movs	r0, #0
 800274c:	e8bd 83f8 	ldmia.w	sp!, {r3, r4, r5, r6, r7, r8, r9, pc}
      if (RTC_WriteAlarmCounter(hrtc, counter_alarm) != HAL_OK)
 8002750:	4631      	mov	r1, r6
 8002752:	e7cf      	b.n	80026f4 <HAL_RTC_GetTime+0x84>
    if((month == 1U) || (month == 3U) || (month == 5U) || (month == 7U) || \
 8002754:	1e4b      	subs	r3, r1, #1
 8002756:	2b09      	cmp	r3, #9
 8002758:	d835      	bhi.n	80027c6 <HAL_RTC_GetTime+0x156>
 800275a:	fa29 f303 	lsr.w	r3, r9, r3
 800275e:	07db      	lsls	r3, r3, #31
 8002760:	d42f      	bmi.n	80027c2 <HAL_RTC_GetTime+0x152>
    else if((month == 4U) || (month == 6U) || (month == 9U) || (month == 11U))
 8002762:	f021 0302 	bic.w	r3, r1, #2
 8002766:	2b04      	cmp	r3, #4
 8002768:	d001      	beq.n	800276e <HAL_RTC_GetTime+0xfe>
 800276a:	2b09      	cmp	r3, #9
 800276c:	d104      	bne.n	8002778 <HAL_RTC_GetTime+0x108>
      if(day < 30U)
 800276e:	2a1d      	cmp	r2, #29
      if(day < 31U)
 8002770:	d906      	bls.n	8002780 <HAL_RTC_GetTime+0x110>
        month++;
 8002772:	3101      	adds	r1, #1
        day = 1U;
 8002774:	2201      	movs	r2, #1
 8002776:	e02d      	b.n	80027d4 <HAL_RTC_GetTime+0x164>
    else if(month == 2U)
 8002778:	2902      	cmp	r1, #2
 800277a:	d12b      	bne.n	80027d4 <HAL_RTC_GetTime+0x164>
      if(day < 28U)
 800277c:	2a1b      	cmp	r2, #27
 800277e:	d801      	bhi.n	8002784 <HAL_RTC_GetTime+0x114>
        day++;
 8002780:	3201      	adds	r2, #1
 8002782:	e027      	b.n	80027d4 <HAL_RTC_GetTime+0x164>
      else if(day == 28U)
 8002784:	2a1c      	cmp	r2, #28
 8002786:	d113      	bne.n	80027b0 <HAL_RTC_GetTime+0x140>
        if(RTC_IsLeapYear(year))
 8002788:	b282      	uxth	r2, r0
  if((nYear % 4U) != 0U) 
 800278a:	0793      	lsls	r3, r2, #30
 800278c:	d112      	bne.n	80027b4 <HAL_RTC_GetTime+0x144>
  if((nYear % 100U) != 0U) 
 800278e:	fbb2 f3fe 	udiv	r3, r2, lr
 8002792:	fb0e 2313 	mls	r3, lr, r3, r2
 8002796:	b29b      	uxth	r3, r3
 8002798:	b97b      	cbnz	r3, 80027ba <HAL_RTC_GetTime+0x14a>
  if((nYear % 400U) == 0U)
 800279a:	fbb2 f3fc 	udiv	r3, r2, ip
 800279e:	fb0c 2313 	mls	r3, ip, r3, r2
 80027a2:	b29b      	uxth	r3, r3
          day++;
 80027a4:	2b00      	cmp	r3, #0
 80027a6:	bf16      	itet	ne
 80027a8:	2201      	movne	r2, #1
 80027aa:	221d      	moveq	r2, #29
 80027ac:	2103      	movne	r1, #3
 80027ae:	e011      	b.n	80027d4 <HAL_RTC_GetTime+0x164>
      else if(day == 29U)
 80027b0:	2a1d      	cmp	r2, #29
 80027b2:	d10f      	bne.n	80027d4 <HAL_RTC_GetTime+0x164>
          day = 1U;
 80027b4:	2201      	movs	r2, #1
          month++;
 80027b6:	2103      	movs	r1, #3
 80027b8:	e00c      	b.n	80027d4 <HAL_RTC_GetTime+0x164>
          day++;
 80027ba:	221d      	movs	r2, #29
 80027bc:	e00a      	b.n	80027d4 <HAL_RTC_GetTime+0x164>
    sTime->Hours = hours;    
 80027be:	702b      	strb	r3, [r5, #0]
 80027c0:	e7b4      	b.n	800272c <HAL_RTC_GetTime+0xbc>
      if(day < 31U)
 80027c2:	2a1e      	cmp	r2, #30
 80027c4:	e7d4      	b.n	8002770 <HAL_RTC_GetTime+0x100>
       (month == 8U) || (month == 10U) || (month == 12U))
 80027c6:	290c      	cmp	r1, #12
 80027c8:	d1cb      	bne.n	8002762 <HAL_RTC_GetTime+0xf2>
      if(day < 31U)
 80027ca:	2a1e      	cmp	r2, #30
 80027cc:	d9d8      	bls.n	8002780 <HAL_RTC_GetTime+0x110>
          day = 1U;
 80027ce:	2201      	movs	r2, #1
          month = 1U;
 80027d0:	4611      	mov	r1, r2
          year++;
 80027d2:	3001      	adds	r0, #1
  for (loop = 0U; loop < DayElapsed; loop++)
 80027d4:	3601      	adds	r6, #1
 80027d6:	e79f      	b.n	8002718 <HAL_RTC_GetTime+0xa8>
 80027d8:	00015180 	.word	0x00015180

080027dc <HAL_RTC_SetDate>:
{
 80027dc:	b570      	push	{r4, r5, r6, lr}
 80027de:	460d      	mov	r5, r1
  if((hrtc == NULL) || (sDate == NULL))
 80027e0:	4604      	mov	r4, r0
 80027e2:	b358      	cbz	r0, 800283c <HAL_RTC_SetDate+0x60>
 80027e4:	b351      	cbz	r1, 800283c <HAL_RTC_SetDate+0x60>
 __HAL_LOCK(hrtc);
 80027e6:	7c03      	ldrb	r3, [r0, #16]
 80027e8:	2002      	movs	r0, #2
 80027ea:	2b01      	cmp	r3, #1
 80027ec:	d027      	beq.n	800283e <HAL_RTC_SetDate+0x62>
 80027ee:	2301      	movs	r3, #1
  hrtc->State = HAL_RTC_STATE_BUSY; 
 80027f0:	7460      	strb	r0, [r4, #17]
 __HAL_LOCK(hrtc);
 80027f2:	7423      	strb	r3, [r4, #16]
 80027f4:	78c8      	ldrb	r0, [r1, #3]
  if(Format == RTC_FORMAT_BIN)
 80027f6:	bb1a      	cbnz	r2, 8002840 <HAL_RTC_SetDate+0x64>
    hrtc->DateToUpdate.Year  = sDate->Year;
 80027f8:	73e0      	strb	r0, [r4, #15]
    hrtc->DateToUpdate.Month = sDate->Month;
 80027fa:	784b      	ldrb	r3, [r1, #1]
 80027fc:	7363      	strb	r3, [r4, #13]
    hrtc->DateToUpdate.Date  = sDate->Date;
 80027fe:	788b      	ldrb	r3, [r1, #2]
 8002800:	73a3      	strb	r3, [r4, #14]
  hrtc->DateToUpdate.WeekDay = RTC_WeekDayNum(hrtc->DateToUpdate.Year, hrtc->DateToUpdate.Month, hrtc->DateToUpdate.Date);
 8002802:	7ba2      	ldrb	r2, [r4, #14]
 8002804:	7b61      	ldrb	r1, [r4, #13]
 8002806:	7be0      	ldrb	r0, [r4, #15]
 8002808:	f7ff fe52 	bl	80024b0 <RTC_WeekDayNum>
 800280c:	7320      	strb	r0, [r4, #12]
  sDate->WeekDay = hrtc->DateToUpdate.WeekDay;
 800280e:	7028      	strb	r0, [r5, #0]
  counter_time = RTC_ReadTimeCounter(hrtc);
 8002810:	4620      	mov	r0, r4
 8002812:	f7ff fe21 	bl	8002458 <RTC_ReadTimeCounter>
  if (hours > 24U)
 8002816:	4b1c      	ldr	r3, [pc, #112]	; (8002888 <HAL_RTC_SetDate+0xac>)
 8002818:	4298      	cmp	r0, r3
 800281a:	d930      	bls.n	800287e <HAL_RTC_SetDate+0xa2>
 800281c:	f6a3 630f 	subw	r3, r3, #3599	; 0xe0f
 8002820:	fbb0 f5f3 	udiv	r5, r0, r3
 8002824:	fb03 0515 	mls	r5, r3, r5, r0
    if (RTC_WriteTimeCounter(hrtc, counter_time) != HAL_OK)
 8002828:	4620      	mov	r0, r4
 800282a:	4629      	mov	r1, r5
 800282c:	f7ff fea6 	bl	800257c <RTC_WriteTimeCounter>
 8002830:	4606      	mov	r6, r0
 8002832:	b188      	cbz	r0, 8002858 <HAL_RTC_SetDate+0x7c>
      hrtc->State = HAL_RTC_STATE_ERROR;
 8002834:	2304      	movs	r3, #4
 8002836:	7463      	strb	r3, [r4, #17]
      __HAL_UNLOCK(hrtc);
 8002838:	2300      	movs	r3, #0
 800283a:	7423      	strb	r3, [r4, #16]
     return HAL_ERROR;
 800283c:	2001      	movs	r0, #1
}
 800283e:	bd70      	pop	{r4, r5, r6, pc}
    hrtc->DateToUpdate.Year  = RTC_Bcd2ToByte(sDate->Year);
 8002840:	f7ff fe2e 	bl	80024a0 <RTC_Bcd2ToByte>
 8002844:	73e0      	strb	r0, [r4, #15]
    hrtc->DateToUpdate.Month = RTC_Bcd2ToByte(sDate->Month);
 8002846:	7848      	ldrb	r0, [r1, #1]
 8002848:	f7ff fe2a 	bl	80024a0 <RTC_Bcd2ToByte>
 800284c:	7360      	strb	r0, [r4, #13]
    hrtc->DateToUpdate.Date  = RTC_Bcd2ToByte(sDate->Date);
 800284e:	7888      	ldrb	r0, [r1, #2]
 8002850:	f7ff fe26 	bl	80024a0 <RTC_Bcd2ToByte>
 8002854:	73a0      	strb	r0, [r4, #14]
 8002856:	e7d4      	b.n	8002802 <HAL_RTC_SetDate+0x26>
    counter_alarm = RTC_ReadAlarmCounter(hrtc);
 8002858:	4620      	mov	r0, r4
 800285a:	f7ff fe0f 	bl	800247c <RTC_ReadAlarmCounter>
    if (counter_alarm != RTC_ALARM_RESETVALUE)
 800285e:	1c43      	adds	r3, r0, #1
 8002860:	d00d      	beq.n	800287e <HAL_RTC_SetDate+0xa2>
      if(counter_alarm < counter_time)
 8002862:	4285      	cmp	r5, r0
 8002864:	d90b      	bls.n	800287e <HAL_RTC_SetDate+0xa2>
        if (RTC_WriteAlarmCounter(hrtc, counter_alarm) != HAL_OK)
 8002866:	f500 31a8 	add.w	r1, r0, #86016	; 0x15000
 800286a:	f501 71c0 	add.w	r1, r1, #384	; 0x180
 800286e:	4620      	mov	r0, r4
 8002870:	f7ff fe98 	bl	80025a4 <RTC_WriteAlarmCounter>
 8002874:	b118      	cbz	r0, 800287e <HAL_RTC_SetDate+0xa2>
          hrtc->State = HAL_RTC_STATE_ERROR;
 8002876:	2304      	movs	r3, #4
          __HAL_UNLOCK(hrtc);
 8002878:	7426      	strb	r6, [r4, #16]
          hrtc->State = HAL_RTC_STATE_ERROR;
 800287a:	7463      	strb	r3, [r4, #17]
 800287c:	e7de      	b.n	800283c <HAL_RTC_SetDate+0x60>
  hrtc->State = HAL_RTC_STATE_READY ;
 800287e:	2301      	movs	r3, #1
  __HAL_UNLOCK(hrtc);
 8002880:	2000      	movs	r0, #0
  hrtc->State = HAL_RTC_STATE_READY ;
 8002882:	7463      	strb	r3, [r4, #17]
  __HAL_UNLOCK(hrtc);
 8002884:	7420      	strb	r0, [r4, #16]
  return HAL_OK;    
 8002886:	bd70      	pop	{r4, r5, r6, pc}
 8002888:	00015f8f 	.word	0x00015f8f

0800288c <HAL_RTC_GetDate>:
{
 800288c:	b5f7      	push	{r0, r1, r2, r4, r5, r6, r7, lr}
 800288e:	4617      	mov	r7, r2
  RTC_TimeTypeDef stime = {0U};
 8002890:	2200      	movs	r2, #0
{
 8002892:	460c      	mov	r4, r1
  RTC_TimeTypeDef stime = {0U};
 8002894:	f8ad 2004 	strh.w	r2, [sp, #4]
 8002898:	f88d 2006 	strb.w	r2, [sp, #6]
  if((hrtc == NULL) || (sDate == NULL))
 800289c:	4605      	mov	r5, r0
 800289e:	b918      	cbnz	r0, 80028a8 <HAL_RTC_GetDate+0x1c>
     return HAL_ERROR;
 80028a0:	2201      	movs	r2, #1
}
 80028a2:	4610      	mov	r0, r2
 80028a4:	b003      	add	sp, #12
 80028a6:	bdf0      	pop	{r4, r5, r6, r7, pc}
  if((hrtc == NULL) || (sDate == NULL))
 80028a8:	2900      	cmp	r1, #0
 80028aa:	d0f9      	beq.n	80028a0 <HAL_RTC_GetDate+0x14>
  if (HAL_RTC_GetTime(hrtc, &stime, RTC_FORMAT_BIN) != HAL_OK)
 80028ac:	a901      	add	r1, sp, #4
 80028ae:	f7ff fedf 	bl	8002670 <HAL_RTC_GetTime>
 80028b2:	4602      	mov	r2, r0
 80028b4:	2800      	cmp	r0, #0
 80028b6:	d1f3      	bne.n	80028a0 <HAL_RTC_GetDate+0x14>
  sDate->WeekDay  = hrtc->DateToUpdate.WeekDay;
 80028b8:	7b2b      	ldrb	r3, [r5, #12]
 80028ba:	7023      	strb	r3, [r4, #0]
  sDate->Year     = hrtc->DateToUpdate.Year;
 80028bc:	7be8      	ldrb	r0, [r5, #15]
 80028be:	70e0      	strb	r0, [r4, #3]
  sDate->Month    = hrtc->DateToUpdate.Month;
 80028c0:	7b6e      	ldrb	r6, [r5, #13]
 80028c2:	7066      	strb	r6, [r4, #1]
  sDate->Date     = hrtc->DateToUpdate.Date;
 80028c4:	7ba9      	ldrb	r1, [r5, #14]
 80028c6:	70a1      	strb	r1, [r4, #2]
  if(Format != RTC_FORMAT_BIN)
 80028c8:	2f00      	cmp	r7, #0
 80028ca:	d0ea      	beq.n	80028a2 <HAL_RTC_GetDate+0x16>
    sDate->Year   = (uint8_t)RTC_ByteToBcd2(sDate->Year);
 80028cc:	f7ff fddd 	bl	800248a <RTC_ByteToBcd2>
 80028d0:	70e0      	strb	r0, [r4, #3]
    sDate->Month  = (uint8_t)RTC_ByteToBcd2(sDate->Month);
 80028d2:	4630      	mov	r0, r6
 80028d4:	f7ff fdd9 	bl	800248a <RTC_ByteToBcd2>
 80028d8:	7060      	strb	r0, [r4, #1]
    sDate->Date   = (uint8_t)RTC_ByteToBcd2(sDate->Date);  
 80028da:	4608      	mov	r0, r1
 80028dc:	f7ff fdd5 	bl	800248a <RTC_ByteToBcd2>
 80028e0:	70a0      	strb	r0, [r4, #2]
 80028e2:	e7de      	b.n	80028a2 <HAL_RTC_GetDate+0x16>

080028e4 <HAL_RTC_WaitForSynchro>:
{
 80028e4:	b538      	push	{r3, r4, r5, lr}
  if(hrtc == NULL)
 80028e6:	4604      	mov	r4, r0
 80028e8:	b1a8      	cbz	r0, 8002916 <HAL_RTC_WaitForSynchro+0x32>
  CLEAR_BIT(hrtc->Instance->CRL, RTC_FLAG_RSF);
 80028ea:	6802      	ldr	r2, [r0, #0]
 80028ec:	6853      	ldr	r3, [r2, #4]
 80028ee:	f023 0308 	bic.w	r3, r3, #8
 80028f2:	6053      	str	r3, [r2, #4]
  tickstart = HAL_GetTick();
 80028f4:	f7ff f8ac 	bl	8001a50 <HAL_GetTick>
 80028f8:	4605      	mov	r5, r0
  while((hrtc->Instance->CRL & RTC_FLAG_RSF) == (uint32_t)RESET)
 80028fa:	6823      	ldr	r3, [r4, #0]
 80028fc:	685b      	ldr	r3, [r3, #4]
 80028fe:	071b      	lsls	r3, r3, #28
 8002900:	d501      	bpl.n	8002906 <HAL_RTC_WaitForSynchro+0x22>
  return HAL_OK;
 8002902:	2000      	movs	r0, #0
 8002904:	bd38      	pop	{r3, r4, r5, pc}
    if((HAL_GetTick() - tickstart ) >  RTC_TIMEOUT_VALUE)
 8002906:	f7ff f8a3 	bl	8001a50 <HAL_GetTick>
 800290a:	1b40      	subs	r0, r0, r5
 800290c:	f5b0 7f7a 	cmp.w	r0, #1000	; 0x3e8
 8002910:	d9f3      	bls.n	80028fa <HAL_RTC_WaitForSynchro+0x16>
      return HAL_TIMEOUT;
 8002912:	2003      	movs	r0, #3
}
 8002914:	bd38      	pop	{r3, r4, r5, pc}
     return HAL_ERROR;
 8002916:	2001      	movs	r0, #1
 8002918:	bd38      	pop	{r3, r4, r5, pc}
	...

0800291c <HAL_RTC_Init>:
{
 800291c:	b510      	push	{r4, lr}
  if(hrtc == NULL)
 800291e:	4604      	mov	r4, r0
 8002920:	b170      	cbz	r0, 8002940 <HAL_RTC_Init+0x24>
  if(hrtc->State == HAL_RTC_STATE_RESET)
 8002922:	7c43      	ldrb	r3, [r0, #17]
 8002924:	f003 02ff 	and.w	r2, r3, #255	; 0xff
 8002928:	b913      	cbnz	r3, 8002930 <HAL_RTC_Init+0x14>
    hrtc->Lock = HAL_UNLOCKED;
 800292a:	7402      	strb	r2, [r0, #16]
    HAL_RTC_MspInit(hrtc);
 800292c:	f7fe fcae 	bl	800128c <HAL_RTC_MspInit>
  hrtc->State = HAL_RTC_STATE_BUSY;  
 8002930:	2302      	movs	r3, #2
  if(HAL_RTC_WaitForSynchro(hrtc) != HAL_OK)
 8002932:	4620      	mov	r0, r4
  hrtc->State = HAL_RTC_STATE_BUSY;  
 8002934:	7463      	strb	r3, [r4, #17]
  if(HAL_RTC_WaitForSynchro(hrtc) != HAL_OK)
 8002936:	f7ff ffd5 	bl	80028e4 <HAL_RTC_WaitForSynchro>
 800293a:	b118      	cbz	r0, 8002944 <HAL_RTC_Init+0x28>
        hrtc->State = HAL_RTC_STATE_ERROR;
 800293c:	2304      	movs	r3, #4
 800293e:	7463      	strb	r3, [r4, #17]
     return HAL_ERROR;
 8002940:	2001      	movs	r0, #1
}
 8002942:	bd10      	pop	{r4, pc}
  if(RTC_EnterInitMode(hrtc) != HAL_OK)
 8002944:	4620      	mov	r0, r4
 8002946:	f7ff fdea 	bl	800251e <RTC_EnterInitMode>
 800294a:	2800      	cmp	r0, #0
 800294c:	d1f6      	bne.n	800293c <HAL_RTC_Init+0x20>
    CLEAR_BIT(hrtc->Instance->CRL, (RTC_FLAG_OW | RTC_FLAG_ALRAF | RTC_FLAG_SEC));
 800294e:	6822      	ldr	r2, [r4, #0]
    if(hrtc->Init.OutPut != RTC_OUTPUTSOURCE_NONE)
 8002950:	68a0      	ldr	r0, [r4, #8]
    CLEAR_BIT(hrtc->Instance->CRL, (RTC_FLAG_OW | RTC_FLAG_ALRAF | RTC_FLAG_SEC));
 8002952:	6853      	ldr	r3, [r2, #4]
 8002954:	f023 0307 	bic.w	r3, r3, #7
 8002958:	6053      	str	r3, [r2, #4]
 800295a:	4a17      	ldr	r2, [pc, #92]	; (80029b8 <HAL_RTC_Init+0x9c>)
    if(hrtc->Init.OutPut != RTC_OUTPUTSOURCE_NONE)
 800295c:	b118      	cbz	r0, 8002966 <HAL_RTC_Init+0x4a>
      CLEAR_BIT(BKP->CR, BKP_CR_TPE);
 800295e:	6b11      	ldr	r1, [r2, #48]	; 0x30
 8002960:	f021 0101 	bic.w	r1, r1, #1
 8002964:	6311      	str	r1, [r2, #48]	; 0x30
    MODIFY_REG(BKP->RTCCR, (BKP_RTCCR_CCO | BKP_RTCCR_ASOE | BKP_RTCCR_ASOS), hrtc->Init.OutPut);
 8002966:	6ad3      	ldr	r3, [r2, #44]	; 0x2c
 8002968:	f423 7360 	bic.w	r3, r3, #896	; 0x380
 800296c:	4303      	orrs	r3, r0
 800296e:	62d3      	str	r3, [r2, #44]	; 0x2c
    if (hrtc->Init.AsynchPrediv != RTC_AUTO_1_SECOND)
 8002970:	6860      	ldr	r0, [r4, #4]
 8002972:	1c43      	adds	r3, r0, #1
 8002974:	d105      	bne.n	8002982 <HAL_RTC_Init+0x66>
      prescaler = HAL_RCCEx_GetPeriphCLKFreq(RCC_PERIPHCLK_RTC);
 8002976:	2001      	movs	r0, #1
 8002978:	f7ff fcec 	bl	8002354 <HAL_RCCEx_GetPeriphCLKFreq>
      if (prescaler == 0U)
 800297c:	2800      	cmp	r0, #0
 800297e:	d0dd      	beq.n	800293c <HAL_RTC_Init+0x20>
        prescaler = prescaler - 1U;
 8002980:	3801      	subs	r0, #1
    MODIFY_REG(hrtc->Instance->PRLH, RTC_PRLH_PRL, (prescaler >> 16U));
 8002982:	6822      	ldr	r2, [r4, #0]
 8002984:	6893      	ldr	r3, [r2, #8]
 8002986:	f023 030f 	bic.w	r3, r3, #15
 800298a:	ea43 4310 	orr.w	r3, r3, r0, lsr #16
 800298e:	6093      	str	r3, [r2, #8]
    MODIFY_REG(hrtc->Instance->PRLL, RTC_PRLL_PRL, (prescaler & RTC_PRLL_PRL));
 8002990:	68d3      	ldr	r3, [r2, #12]
 8002992:	b280      	uxth	r0, r0
 8002994:	0c1b      	lsrs	r3, r3, #16
 8002996:	041b      	lsls	r3, r3, #16
 8002998:	4318      	orrs	r0, r3
 800299a:	60d0      	str	r0, [r2, #12]
    if(RTC_ExitInitMode(hrtc) != HAL_OK)
 800299c:	4620      	mov	r0, r4
 800299e:	f7ff fdd5 	bl	800254c <RTC_ExitInitMode>
 80029a2:	2301      	movs	r3, #1
 80029a4:	b110      	cbz	r0, 80029ac <HAL_RTC_Init+0x90>
      hrtc->State = HAL_RTC_STATE_ERROR;
 80029a6:	2204      	movs	r2, #4
 80029a8:	7462      	strb	r2, [r4, #17]
 80029aa:	e7c9      	b.n	8002940 <HAL_RTC_Init+0x24>
    hrtc->DateToUpdate.Year = 0x00U;
 80029ac:	73e0      	strb	r0, [r4, #15]
    hrtc->DateToUpdate.Month = RTC_MONTH_JANUARY;
 80029ae:	7363      	strb	r3, [r4, #13]
    hrtc->DateToUpdate.Date = 0x01U;
 80029b0:	73a3      	strb	r3, [r4, #14]
    hrtc->State = HAL_RTC_STATE_READY;
 80029b2:	7463      	strb	r3, [r4, #17]
    return HAL_OK;
 80029b4:	bd10      	pop	{r4, pc}
 80029b6:	bf00      	nop
 80029b8:	40006c00 	.word	0x40006c00

080029bc <SPI_WaitFlagStateUntilTimeout>:
  * @param Timeout: Timeout duration
  * @param Tickstart: tick start value
  * @retval HAL status
  */
static HAL_StatusTypeDef SPI_WaitFlagStateUntilTimeout(SPI_HandleTypeDef *hspi, uint32_t Flag, uint32_t State, uint32_t Timeout, uint32_t Tickstart)
{
 80029bc:	e92d 41f0 	stmdb	sp!, {r4, r5, r6, r7, r8, lr}
 80029c0:	4604      	mov	r4, r0
 80029c2:	4688      	mov	r8, r1
 80029c4:	4617      	mov	r7, r2
 80029c6:	461d      	mov	r5, r3
 80029c8:	9e06      	ldr	r6, [sp, #24]
  while((((hspi->Instance->SR & Flag) == (Flag)) ? SET : RESET) != State)
 80029ca:	6822      	ldr	r2, [r4, #0]
 80029cc:	6893      	ldr	r3, [r2, #8]
 80029ce:	ea38 0303 	bics.w	r3, r8, r3
 80029d2:	bf0c      	ite	eq
 80029d4:	2301      	moveq	r3, #1
 80029d6:	2300      	movne	r3, #0
 80029d8:	429f      	cmp	r7, r3
 80029da:	d102      	bne.n	80029e2 <SPI_WaitFlagStateUntilTimeout+0x26>
        return HAL_TIMEOUT;
      }
    }
  }

  return HAL_OK;
 80029dc:	2000      	movs	r0, #0
}
 80029de:	e8bd 81f0 	ldmia.w	sp!, {r4, r5, r6, r7, r8, pc}
    if(Timeout != HAL_MAX_DELAY)
 80029e2:	1c6b      	adds	r3, r5, #1
 80029e4:	d0f2      	beq.n	80029cc <SPI_WaitFlagStateUntilTimeout+0x10>
      if((Timeout == 0U) || ((HAL_GetTick()-Tickstart) >= Timeout))
 80029e6:	bb55      	cbnz	r5, 8002a3e <SPI_WaitFlagStateUntilTimeout+0x82>
        __HAL_SPI_DISABLE_IT(hspi, (SPI_IT_TXE | SPI_IT_RXNE | SPI_IT_ERR));
 80029e8:	6823      	ldr	r3, [r4, #0]
 80029ea:	685a      	ldr	r2, [r3, #4]
 80029ec:	f022 02e0 	bic.w	r2, r2, #224	; 0xe0
 80029f0:	605a      	str	r2, [r3, #4]
        if((hspi->Init.Mode == SPI_MODE_MASTER)&&((hspi->Init.Direction == SPI_DIRECTION_1LINE)||(hspi->Init.Direction == SPI_DIRECTION_2LINES_RXONLY)))
 80029f2:	6862      	ldr	r2, [r4, #4]
 80029f4:	f5b2 7f82 	cmp.w	r2, #260	; 0x104
 80029f8:	d10a      	bne.n	8002a10 <SPI_WaitFlagStateUntilTimeout+0x54>
 80029fa:	68a2      	ldr	r2, [r4, #8]
 80029fc:	f5b2 4f00 	cmp.w	r2, #32768	; 0x8000
 8002a00:	d002      	beq.n	8002a08 <SPI_WaitFlagStateUntilTimeout+0x4c>
 8002a02:	f5b2 6f80 	cmp.w	r2, #1024	; 0x400
 8002a06:	d103      	bne.n	8002a10 <SPI_WaitFlagStateUntilTimeout+0x54>
          __HAL_SPI_DISABLE(hspi);
 8002a08:	681a      	ldr	r2, [r3, #0]
 8002a0a:	f022 0240 	bic.w	r2, r2, #64	; 0x40
 8002a0e:	601a      	str	r2, [r3, #0]
        if(hspi->Init.CRCCalculation == SPI_CRCCALCULATION_ENABLE)
 8002a10:	6aa2      	ldr	r2, [r4, #40]	; 0x28
 8002a12:	f5b2 5f00 	cmp.w	r2, #8192	; 0x2000
 8002a16:	d109      	bne.n	8002a2c <SPI_WaitFlagStateUntilTimeout+0x70>
          SPI_RESET_CRC(hspi);
 8002a18:	681a      	ldr	r2, [r3, #0]
 8002a1a:	f422 5200 	bic.w	r2, r2, #8192	; 0x2000
 8002a1e:	0412      	lsls	r2, r2, #16
 8002a20:	0c12      	lsrs	r2, r2, #16
 8002a22:	601a      	str	r2, [r3, #0]
 8002a24:	681a      	ldr	r2, [r3, #0]
 8002a26:	f442 5200 	orr.w	r2, r2, #8192	; 0x2000
 8002a2a:	601a      	str	r2, [r3, #0]
        hspi->State= HAL_SPI_STATE_READY;
 8002a2c:	2301      	movs	r3, #1
 8002a2e:	f884 3051 	strb.w	r3, [r4, #81]	; 0x51
        __HAL_UNLOCK(hspi);
 8002a32:	2300      	movs	r3, #0
 8002a34:	2003      	movs	r0, #3
 8002a36:	f884 3050 	strb.w	r3, [r4, #80]	; 0x50
 8002a3a:	e8bd 81f0 	ldmia.w	sp!, {r4, r5, r6, r7, r8, pc}
      if((Timeout == 0U) || ((HAL_GetTick()-Tickstart) >= Timeout))
 8002a3e:	f7ff f807 	bl	8001a50 <HAL_GetTick>
 8002a42:	1b80      	subs	r0, r0, r6
 8002a44:	4285      	cmp	r5, r0
 8002a46:	d8c0      	bhi.n	80029ca <SPI_WaitFlagStateUntilTimeout+0xe>
 8002a48:	e7ce      	b.n	80029e8 <SPI_WaitFlagStateUntilTimeout+0x2c>

08002a4a <SPI_CheckFlag_BSY>:
  * @param Timeout: Timeout duration
  * @param Tickstart: tick start value
  * @retval HAL status
  */
static HAL_StatusTypeDef SPI_CheckFlag_BSY(SPI_HandleTypeDef *hspi, uint32_t Timeout, uint32_t Tickstart)
{
 8002a4a:	b513      	push	{r0, r1, r4, lr}
  /* Control the BSY flag */
  if(SPI_WaitFlagStateUntilTimeout(hspi, SPI_FLAG_BSY, RESET, Timeout, Tickstart) != HAL_OK)
 8002a4c:	460b      	mov	r3, r1
 8002a4e:	9200      	str	r2, [sp, #0]
 8002a50:	2180      	movs	r1, #128	; 0x80
 8002a52:	2200      	movs	r2, #0
{
 8002a54:	4604      	mov	r4, r0
  if(SPI_WaitFlagStateUntilTimeout(hspi, SPI_FLAG_BSY, RESET, Timeout, Tickstart) != HAL_OK)
 8002a56:	f7ff ffb1 	bl	80029bc <SPI_WaitFlagStateUntilTimeout>
 8002a5a:	b120      	cbz	r0, 8002a66 <SPI_CheckFlag_BSY+0x1c>
  {
    SET_BIT(hspi->ErrorCode, HAL_SPI_ERROR_FLAG);
    return HAL_TIMEOUT;
 8002a5c:	2003      	movs	r0, #3
    SET_BIT(hspi->ErrorCode, HAL_SPI_ERROR_FLAG);
 8002a5e:	6d63      	ldr	r3, [r4, #84]	; 0x54
 8002a60:	f043 0320 	orr.w	r3, r3, #32
 8002a64:	6563      	str	r3, [r4, #84]	; 0x54
  }
  return HAL_OK;
}
 8002a66:	b002      	add	sp, #8
 8002a68:	bd10      	pop	{r4, pc}

08002a6a <HAL_SPI_Transmit>:
{
 8002a6a:	e92d 41ff 	stmdb	sp!, {r0, r1, r2, r3, r4, r5, r6, r7, r8, lr}
 8002a6e:	461e      	mov	r6, r3
  __HAL_LOCK(hspi);
 8002a70:	f890 3050 	ldrb.w	r3, [r0, #80]	; 0x50
{
 8002a74:	4604      	mov	r4, r0
  __HAL_LOCK(hspi);
 8002a76:	2b01      	cmp	r3, #1
{
 8002a78:	460d      	mov	r5, r1
 8002a7a:	4690      	mov	r8, r2
  __HAL_LOCK(hspi);
 8002a7c:	f000 809c 	beq.w	8002bb8 <HAL_SPI_Transmit+0x14e>
 8002a80:	2301      	movs	r3, #1
 8002a82:	f880 3050 	strb.w	r3, [r0, #80]	; 0x50
  tickstart = HAL_GetTick();
 8002a86:	f7fe ffe3 	bl	8001a50 <HAL_GetTick>
 8002a8a:	4607      	mov	r7, r0
  if(hspi->State != HAL_SPI_STATE_READY)
 8002a8c:	f894 0051 	ldrb.w	r0, [r4, #81]	; 0x51
 8002a90:	b2c0      	uxtb	r0, r0
 8002a92:	2801      	cmp	r0, #1
 8002a94:	f040 808e 	bne.w	8002bb4 <HAL_SPI_Transmit+0x14a>
  if((pData == NULL ) || (Size == 0U))
 8002a98:	2d00      	cmp	r5, #0
 8002a9a:	d04e      	beq.n	8002b3a <HAL_SPI_Transmit+0xd0>
 8002a9c:	f1b8 0f00 	cmp.w	r8, #0
 8002aa0:	d04b      	beq.n	8002b3a <HAL_SPI_Transmit+0xd0>
  hspi->State       = HAL_SPI_STATE_BUSY_TX;
 8002aa2:	2303      	movs	r3, #3
 8002aa4:	f884 3051 	strb.w	r3, [r4, #81]	; 0x51
  hspi->ErrorCode   = HAL_SPI_ERROR_NONE;
 8002aa8:	2300      	movs	r3, #0
 8002aaa:	6563      	str	r3, [r4, #84]	; 0x54
  hspi->pRxBuffPtr  = (uint8_t *)NULL;
 8002aac:	63a3      	str	r3, [r4, #56]	; 0x38
  hspi->TxXferCount = Size;
 8002aae:	f8a4 8036 	strh.w	r8, [r4, #54]	; 0x36
  hspi->RxXferSize  = 0U;
 8002ab2:	87a3      	strh	r3, [r4, #60]	; 0x3c
  hspi->RxXferCount = 0U;
 8002ab4:	87e3      	strh	r3, [r4, #62]	; 0x3e
  hspi->TxISR       = NULL;
 8002ab6:	6463      	str	r3, [r4, #68]	; 0x44
  hspi->RxISR       = NULL;
 8002ab8:	6423      	str	r3, [r4, #64]	; 0x40
  if(hspi->Init.Direction == SPI_DIRECTION_1LINE)
 8002aba:	68a3      	ldr	r3, [r4, #8]
  hspi->pTxBuffPtr  = (uint8_t *)pData;
 8002abc:	6325      	str	r5, [r4, #48]	; 0x30
  if(hspi->Init.Direction == SPI_DIRECTION_1LINE)
 8002abe:	f5b3 4f00 	cmp.w	r3, #32768	; 0x8000
 8002ac2:	6823      	ldr	r3, [r4, #0]
  hspi->TxXferSize  = Size;
 8002ac4:	f8a4 8034 	strh.w	r8, [r4, #52]	; 0x34
    SPI_1LINE_TX(hspi);
 8002ac8:	bf02      	ittt	eq
 8002aca:	681a      	ldreq	r2, [r3, #0]
 8002acc:	f442 4280 	orreq.w	r2, r2, #16384	; 0x4000
 8002ad0:	601a      	streq	r2, [r3, #0]
  if((hspi->Instance->CR1 & SPI_CR1_SPE) != SPI_CR1_SPE)
 8002ad2:	681a      	ldr	r2, [r3, #0]
 8002ad4:	0652      	lsls	r2, r2, #25
    __HAL_SPI_ENABLE(hspi);
 8002ad6:	bf5e      	ittt	pl
 8002ad8:	681a      	ldrpl	r2, [r3, #0]
 8002ada:	f042 0240 	orrpl.w	r2, r2, #64	; 0x40
 8002ade:	601a      	strpl	r2, [r3, #0]
  if(hspi->Init.DataSize == SPI_DATASIZE_16BIT)
 8002ae0:	68e2      	ldr	r2, [r4, #12]
 8002ae2:	f5b2 6f00 	cmp.w	r2, #2048	; 0x800
 8002ae6:	6862      	ldr	r2, [r4, #4]
 8002ae8:	d138      	bne.n	8002b5c <HAL_SPI_Transmit+0xf2>
    if((hspi->Init.Mode == SPI_MODE_SLAVE) || (hspi->TxXferCount == 0x01))
 8002aea:	b11a      	cbz	r2, 8002af4 <HAL_SPI_Transmit+0x8a>
 8002aec:	8ee2      	ldrh	r2, [r4, #54]	; 0x36
 8002aee:	b292      	uxth	r2, r2
 8002af0:	2a01      	cmp	r2, #1
 8002af2:	d106      	bne.n	8002b02 <HAL_SPI_Transmit+0x98>
          hspi->Instance->DR = *((uint16_t *)pData);
 8002af4:	f835 2b02 	ldrh.w	r2, [r5], #2
 8002af8:	60da      	str	r2, [r3, #12]
          hspi->TxXferCount--;
 8002afa:	8ee3      	ldrh	r3, [r4, #54]	; 0x36
 8002afc:	3b01      	subs	r3, #1
 8002afe:	b29b      	uxth	r3, r3
 8002b00:	86e3      	strh	r3, [r4, #54]	; 0x36
    while (hspi->TxXferCount > 0U)
 8002b02:	8ee3      	ldrh	r3, [r4, #54]	; 0x36
 8002b04:	b29b      	uxth	r3, r3
 8002b06:	b993      	cbnz	r3, 8002b2e <HAL_SPI_Transmit+0xc4>
  if(SPI_WaitFlagStateUntilTimeout(hspi, SPI_FLAG_TXE, SET, Timeout, tickstart) != HAL_OK)
 8002b08:	9700      	str	r7, [sp, #0]
 8002b0a:	4633      	mov	r3, r6
 8002b0c:	2201      	movs	r2, #1
 8002b0e:	2102      	movs	r1, #2
 8002b10:	4620      	mov	r0, r4
 8002b12:	f7ff ff53 	bl	80029bc <SPI_WaitFlagStateUntilTimeout>
 8002b16:	b978      	cbnz	r0, 8002b38 <HAL_SPI_Transmit+0xce>
  if(SPI_CheckFlag_BSY(hspi, Timeout, tickstart) != HAL_OK)
 8002b18:	463a      	mov	r2, r7
 8002b1a:	4631      	mov	r1, r6
 8002b1c:	4620      	mov	r0, r4
 8002b1e:	f7ff ff94 	bl	8002a4a <SPI_CheckFlag_BSY>
 8002b22:	2800      	cmp	r0, #0
 8002b24:	d038      	beq.n	8002b98 <HAL_SPI_Transmit+0x12e>
    hspi->ErrorCode = HAL_SPI_ERROR_FLAG;
 8002b26:	2320      	movs	r3, #32
    errorcode = HAL_ERROR;
 8002b28:	2001      	movs	r0, #1
    hspi->ErrorCode = HAL_SPI_ERROR_FLAG;
 8002b2a:	6563      	str	r3, [r4, #84]	; 0x54
    goto error;
 8002b2c:	e005      	b.n	8002b3a <HAL_SPI_Transmit+0xd0>
      if(__HAL_SPI_GET_FLAG(hspi, SPI_FLAG_TXE))
 8002b2e:	6823      	ldr	r3, [r4, #0]
 8002b30:	689a      	ldr	r2, [r3, #8]
 8002b32:	0790      	lsls	r0, r2, #30
 8002b34:	d4de      	bmi.n	8002af4 <HAL_SPI_Transmit+0x8a>
        if((Timeout == 0U) || ((Timeout != HAL_MAX_DELAY) && ((HAL_GetTick()-tickstart) >=  Timeout)))
 8002b36:	b94e      	cbnz	r6, 8002b4c <HAL_SPI_Transmit+0xe2>
          errorcode = HAL_TIMEOUT;
 8002b38:	2003      	movs	r0, #3
  hspi->State = HAL_SPI_STATE_READY;
 8002b3a:	2301      	movs	r3, #1
 8002b3c:	f884 3051 	strb.w	r3, [r4, #81]	; 0x51
  __HAL_UNLOCK(hspi);
 8002b40:	2300      	movs	r3, #0
 8002b42:	f884 3050 	strb.w	r3, [r4, #80]	; 0x50
}
 8002b46:	b004      	add	sp, #16
 8002b48:	e8bd 81f0 	ldmia.w	sp!, {r4, r5, r6, r7, r8, pc}
        if((Timeout == 0U) || ((Timeout != HAL_MAX_DELAY) && ((HAL_GetTick()-tickstart) >=  Timeout)))
 8002b4c:	1c71      	adds	r1, r6, #1
 8002b4e:	d0d8      	beq.n	8002b02 <HAL_SPI_Transmit+0x98>
 8002b50:	f7fe ff7e 	bl	8001a50 <HAL_GetTick>
 8002b54:	1bc0      	subs	r0, r0, r7
 8002b56:	4286      	cmp	r6, r0
 8002b58:	d8d3      	bhi.n	8002b02 <HAL_SPI_Transmit+0x98>
 8002b5a:	e7ed      	b.n	8002b38 <HAL_SPI_Transmit+0xce>
    if((hspi->Init.Mode == SPI_MODE_SLAVE)|| (hspi->TxXferCount == 0x01))
 8002b5c:	b11a      	cbz	r2, 8002b66 <HAL_SPI_Transmit+0xfc>
 8002b5e:	8ee2      	ldrh	r2, [r4, #54]	; 0x36
 8002b60:	b292      	uxth	r2, r2
 8002b62:	2a01      	cmp	r2, #1
 8002b64:	d106      	bne.n	8002b74 <HAL_SPI_Transmit+0x10a>
        *((__IO uint8_t*)&hspi->Instance->DR) = (*pData);
 8002b66:	f815 2b01 	ldrb.w	r2, [r5], #1
 8002b6a:	731a      	strb	r2, [r3, #12]
        hspi->TxXferCount--;
 8002b6c:	8ee3      	ldrh	r3, [r4, #54]	; 0x36
 8002b6e:	3b01      	subs	r3, #1
 8002b70:	b29b      	uxth	r3, r3
 8002b72:	86e3      	strh	r3, [r4, #54]	; 0x36
    while (hspi->TxXferCount > 0U)
 8002b74:	8ee3      	ldrh	r3, [r4, #54]	; 0x36
 8002b76:	b29b      	uxth	r3, r3
 8002b78:	2b00      	cmp	r3, #0
 8002b7a:	d0c5      	beq.n	8002b08 <HAL_SPI_Transmit+0x9e>
      if(__HAL_SPI_GET_FLAG(hspi, SPI_FLAG_TXE))
 8002b7c:	6823      	ldr	r3, [r4, #0]
 8002b7e:	689a      	ldr	r2, [r3, #8]
 8002b80:	0792      	lsls	r2, r2, #30
 8002b82:	d4f0      	bmi.n	8002b66 <HAL_SPI_Transmit+0xfc>
        if((Timeout == 0U) || ((Timeout != HAL_MAX_DELAY) && ((HAL_GetTick()-tickstart) >=  Timeout)))
 8002b84:	2e00      	cmp	r6, #0
 8002b86:	d0d7      	beq.n	8002b38 <HAL_SPI_Transmit+0xce>
 8002b88:	1c73      	adds	r3, r6, #1
 8002b8a:	d0f3      	beq.n	8002b74 <HAL_SPI_Transmit+0x10a>
 8002b8c:	f7fe ff60 	bl	8001a50 <HAL_GetTick>
 8002b90:	1bc0      	subs	r0, r0, r7
 8002b92:	4286      	cmp	r6, r0
 8002b94:	d8ee      	bhi.n	8002b74 <HAL_SPI_Transmit+0x10a>
 8002b96:	e7cf      	b.n	8002b38 <HAL_SPI_Transmit+0xce>
  if(hspi->Init.Direction == SPI_DIRECTION_2LINES)
 8002b98:	68a3      	ldr	r3, [r4, #8]
 8002b9a:	b933      	cbnz	r3, 8002baa <HAL_SPI_Transmit+0x140>
    __HAL_SPI_CLEAR_OVRFLAG(hspi);
 8002b9c:	9303      	str	r3, [sp, #12]
 8002b9e:	6823      	ldr	r3, [r4, #0]
 8002ba0:	68da      	ldr	r2, [r3, #12]
 8002ba2:	9203      	str	r2, [sp, #12]
 8002ba4:	689b      	ldr	r3, [r3, #8]
 8002ba6:	9303      	str	r3, [sp, #12]
 8002ba8:	9b03      	ldr	r3, [sp, #12]
  if(hspi->ErrorCode != HAL_SPI_ERROR_NONE)
 8002baa:	6d60      	ldr	r0, [r4, #84]	; 0x54
    errorcode = HAL_BUSY;
 8002bac:	3000      	adds	r0, #0
 8002bae:	bf18      	it	ne
 8002bb0:	2001      	movne	r0, #1
 8002bb2:	e7c2      	b.n	8002b3a <HAL_SPI_Transmit+0xd0>
 8002bb4:	2002      	movs	r0, #2
 8002bb6:	e7c0      	b.n	8002b3a <HAL_SPI_Transmit+0xd0>
  __HAL_LOCK(hspi);
 8002bb8:	2002      	movs	r0, #2
 8002bba:	e7c4      	b.n	8002b46 <HAL_SPI_Transmit+0xdc>

08002bbc <HAL_SPI_Init>:
  * @param  hspi: pointer to a SPI_HandleTypeDef structure that contains
  *                the configuration information for SPI module.
  * @retval HAL status
  */
HAL_StatusTypeDef HAL_SPI_Init(SPI_HandleTypeDef *hspi)
{
 8002bbc:	b510      	push	{r4, lr}
  /* Check the SPI handle allocation */
  if(hspi == NULL)
 8002bbe:	4604      	mov	r4, r0
 8002bc0:	2800      	cmp	r0, #0
 8002bc2:	d034      	beq.n	8002c2e <HAL_SPI_Init+0x72>
  if(hspi->Init.CRCCalculation == SPI_CRCCALCULATION_ENABLE)
  {
    assert_param(IS_SPI_CRC_POLYNOMIAL(hspi->Init.CRCPolynomial));
  }
#else
  hspi->Init.CRCCalculation = SPI_CRCCALCULATION_DISABLE;
 8002bc4:	2300      	movs	r3, #0
 8002bc6:	6283      	str	r3, [r0, #40]	; 0x28
#endif /* USE_SPI_CRC */

  if(hspi->State == HAL_SPI_STATE_RESET)
 8002bc8:	f890 3051 	ldrb.w	r3, [r0, #81]	; 0x51
 8002bcc:	b90b      	cbnz	r3, 8002bd2 <HAL_SPI_Init+0x16>
  {
    /* Init the low level hardware : GPIO, CLOCK, NVIC... */
    HAL_SPI_MspInit(hspi);
 8002bce:	f7fe fb7b 	bl	80012c8 <HAL_SPI_MspInit>
  }
  
  hspi->State = HAL_SPI_STATE_BUSY;
 8002bd2:	2302      	movs	r3, #2

  /* Disble the selected SPI peripheral */
  __HAL_SPI_DISABLE(hspi);
 8002bd4:	6821      	ldr	r1, [r4, #0]
  hspi->State = HAL_SPI_STATE_BUSY;
 8002bd6:	f884 3051 	strb.w	r3, [r4, #81]	; 0x51
  __HAL_SPI_DISABLE(hspi);
 8002bda:	680b      	ldr	r3, [r1, #0]

  /*----------------------- SPIx CR1 & CR2 Configuration ---------------------*/
  /* Configure : SPI Mode, Communication Mode, Data size, Clock polarity and phase, NSS management,
  Communication speed, First bit and CRC calculation state */
  WRITE_REG(hspi->Instance->CR1, (hspi->Init.Mode | hspi->Init.Direction | hspi->Init.DataSize |
 8002bdc:	68a0      	ldr	r0, [r4, #8]
  __HAL_SPI_DISABLE(hspi);
 8002bde:	f023 0340 	bic.w	r3, r3, #64	; 0x40
 8002be2:	600b      	str	r3, [r1, #0]
  WRITE_REG(hspi->Instance->CR1, (hspi->Init.Mode | hspi->Init.Direction | hspi->Init.DataSize |
 8002be4:	6863      	ldr	r3, [r4, #4]
 8002be6:	69a2      	ldr	r2, [r4, #24]
 8002be8:	4303      	orrs	r3, r0
 8002bea:	68e0      	ldr	r0, [r4, #12]
 8002bec:	4303      	orrs	r3, r0
 8002bee:	6920      	ldr	r0, [r4, #16]
 8002bf0:	4303      	orrs	r3, r0
 8002bf2:	6960      	ldr	r0, [r4, #20]
 8002bf4:	4303      	orrs	r3, r0
 8002bf6:	69e0      	ldr	r0, [r4, #28]
 8002bf8:	4303      	orrs	r3, r0
 8002bfa:	6a20      	ldr	r0, [r4, #32]
 8002bfc:	4303      	orrs	r3, r0
 8002bfe:	6aa0      	ldr	r0, [r4, #40]	; 0x28
 8002c00:	4303      	orrs	r3, r0
 8002c02:	f402 7000 	and.w	r0, r2, #512	; 0x200
 8002c06:	4303      	orrs	r3, r0
 8002c08:	600b      	str	r3, [r1, #0]
                                  hspi->Init.CLKPolarity | hspi->Init.CLKPhase | (hspi->Init.NSS & SPI_CR1_SSM) |
                                  hspi->Init.BaudRatePrescaler | hspi->Init.FirstBit  | hspi->Init.CRCCalculation) );

  /* Configure : NSS management */
  WRITE_REG(hspi->Instance->CR2, (((hspi->Init.NSS >> 16U) & SPI_CR2_SSOE) | hspi->Init.TIMode));
 8002c0a:	0c12      	lsrs	r2, r2, #16
 8002c0c:	6a63      	ldr	r3, [r4, #36]	; 0x24
 8002c0e:	f002 0204 	and.w	r2, r2, #4
 8002c12:	431a      	orrs	r2, r3

  /*---------------------------- SPIx CRCPOLY Configuration ------------------*/
  /* Configure : CRC Polynomial */
  WRITE_REG(hspi->Instance->CRCPR, hspi->Init.CRCPolynomial);
 8002c14:	6ae3      	ldr	r3, [r4, #44]	; 0x2c
  WRITE_REG(hspi->Instance->CR2, (((hspi->Init.NSS >> 16U) & SPI_CR2_SSOE) | hspi->Init.TIMode));
 8002c16:	604a      	str	r2, [r1, #4]
  WRITE_REG(hspi->Instance->CRCPR, hspi->Init.CRCPolynomial);
 8002c18:	610b      	str	r3, [r1, #16]

#if defined(SPI_I2SCFGR_I2SMOD)
  /* Activate the SPI mode (Make sure that I2SMOD bit in I2SCFGR register is reset) */
  CLEAR_BIT(hspi->Instance->I2SCFGR, SPI_I2SCFGR_I2SMOD);
 8002c1a:	69cb      	ldr	r3, [r1, #28]
#else
  uCRCErrorWorkaroundCheck = 0U;
#endif /* STM32F101xE || STM32F103xE */
#endif /* USE_SPI_CRC */

  hspi->ErrorCode = HAL_SPI_ERROR_NONE;
 8002c1c:	2000      	movs	r0, #0
  CLEAR_BIT(hspi->Instance->I2SCFGR, SPI_I2SCFGR_I2SMOD);
 8002c1e:	f423 6300 	bic.w	r3, r3, #2048	; 0x800
 8002c22:	61cb      	str	r3, [r1, #28]
  hspi->State = HAL_SPI_STATE_READY;
 8002c24:	2301      	movs	r3, #1
  hspi->ErrorCode = HAL_SPI_ERROR_NONE;
 8002c26:	6560      	str	r0, [r4, #84]	; 0x54
  hspi->State = HAL_SPI_STATE_READY;
 8002c28:	f884 3051 	strb.w	r3, [r4, #81]	; 0x51
  
  return HAL_OK;
 8002c2c:	bd10      	pop	{r4, pc}
    return HAL_ERROR;
 8002c2e:	2001      	movs	r0, #1
}
 8002c30:	bd10      	pop	{r4, pc}

08002c32 <HAL_TIM_Encoder_Start>:
  *            @arg TIM_CHANNEL_2: TIM Channel 2 selected
  *            @arg TIM_CHANNEL_ALL: TIM Channel 1 and TIM Channel 2 are selected
  * @retval HAL status
*/
HAL_StatusTypeDef HAL_TIM_Encoder_Start(TIM_HandleTypeDef *htim, uint32_t Channel)
{
 8002c32:	6803      	ldr	r3, [r0, #0]
  /* Check the parameters */
  assert_param(IS_TIM_CC2_INSTANCE(htim->Instance));

  /* Enable the encoder interface channels */
  switch (Channel)
 8002c34:	b189      	cbz	r1, 8002c5a <HAL_TIM_Encoder_Start+0x28>
 8002c36:	2904      	cmp	r1, #4
 8002c38:	d007      	beq.n	8002c4a <HAL_TIM_Encoder_Start+0x18>
  assert_param(IS_TIM_CHANNELS(Channel));

  tmp = TIM_CCER_CC1E << Channel;

  /* Reset the CCxE Bit */
  TIMx->CCER &= ~tmp;
 8002c3a:	6a1a      	ldr	r2, [r3, #32]
 8002c3c:	f022 0201 	bic.w	r2, r2, #1
 8002c40:	621a      	str	r2, [r3, #32]

  /* Set or reset the CCxE Bit */
  TIMx->CCER |=  (uint32_t)(ChannelState << Channel);
 8002c42:	6a1a      	ldr	r2, [r3, #32]
 8002c44:	f042 0201 	orr.w	r2, r2, #1
 8002c48:	621a      	str	r2, [r3, #32]
  TIMx->CCER &= ~tmp;
 8002c4a:	6a1a      	ldr	r2, [r3, #32]
 8002c4c:	f022 0210 	bic.w	r2, r2, #16
 8002c50:	621a      	str	r2, [r3, #32]
  TIMx->CCER |=  (uint32_t)(ChannelState << Channel);
 8002c52:	6a1a      	ldr	r2, [r3, #32]
 8002c54:	f042 0210 	orr.w	r2, r2, #16
 8002c58:	e006      	b.n	8002c68 <HAL_TIM_Encoder_Start+0x36>
  TIMx->CCER &= ~tmp;
 8002c5a:	6a1a      	ldr	r2, [r3, #32]
 8002c5c:	f022 0201 	bic.w	r2, r2, #1
 8002c60:	621a      	str	r2, [r3, #32]
  TIMx->CCER |=  (uint32_t)(ChannelState << Channel);
 8002c62:	6a1a      	ldr	r2, [r3, #32]
 8002c64:	f042 0201 	orr.w	r2, r2, #1
 8002c68:	621a      	str	r2, [r3, #32]
  __HAL_TIM_ENABLE(htim);
 8002c6a:	681a      	ldr	r2, [r3, #0]
}
 8002c6c:	2000      	movs	r0, #0
  __HAL_TIM_ENABLE(htim);
 8002c6e:	f042 0201 	orr.w	r2, r2, #1
 8002c72:	601a      	str	r2, [r3, #0]
}
 8002c74:	4770      	bx	lr
	...

08002c78 <TIM_Base_SetConfig>:
  if (IS_TIM_COUNTER_MODE_SELECT_INSTANCE(TIMx))
 8002c78:	4a24      	ldr	r2, [pc, #144]	; (8002d0c <TIM_Base_SetConfig+0x94>)
  tmpcr1 = TIMx->CR1;
 8002c7a:	6803      	ldr	r3, [r0, #0]
  if (IS_TIM_COUNTER_MODE_SELECT_INSTANCE(TIMx))
 8002c7c:	4290      	cmp	r0, r2
 8002c7e:	d012      	beq.n	8002ca6 <TIM_Base_SetConfig+0x2e>
 8002c80:	f502 6200 	add.w	r2, r2, #2048	; 0x800
 8002c84:	4290      	cmp	r0, r2
 8002c86:	d00e      	beq.n	8002ca6 <TIM_Base_SetConfig+0x2e>
 8002c88:	f1b0 4f80 	cmp.w	r0, #1073741824	; 0x40000000
 8002c8c:	d00b      	beq.n	8002ca6 <TIM_Base_SetConfig+0x2e>
 8002c8e:	f5a2 3298 	sub.w	r2, r2, #77824	; 0x13000
 8002c92:	4290      	cmp	r0, r2
 8002c94:	d007      	beq.n	8002ca6 <TIM_Base_SetConfig+0x2e>
 8002c96:	f502 6280 	add.w	r2, r2, #1024	; 0x400
 8002c9a:	4290      	cmp	r0, r2
 8002c9c:	d003      	beq.n	8002ca6 <TIM_Base_SetConfig+0x2e>
 8002c9e:	f502 6280 	add.w	r2, r2, #1024	; 0x400
 8002ca2:	4290      	cmp	r0, r2
 8002ca4:	d11d      	bne.n	8002ce2 <TIM_Base_SetConfig+0x6a>
    tmpcr1 |= Structure->CounterMode;
 8002ca6:	684a      	ldr	r2, [r1, #4]
    tmpcr1 &= ~(TIM_CR1_DIR | TIM_CR1_CMS);
 8002ca8:	f023 0370 	bic.w	r3, r3, #112	; 0x70
    tmpcr1 |= Structure->CounterMode;
 8002cac:	4313      	orrs	r3, r2
  if(IS_TIM_CLOCK_DIVISION_INSTANCE(TIMx))
 8002cae:	4a17      	ldr	r2, [pc, #92]	; (8002d0c <TIM_Base_SetConfig+0x94>)
 8002cb0:	4290      	cmp	r0, r2
 8002cb2:	d012      	beq.n	8002cda <TIM_Base_SetConfig+0x62>
 8002cb4:	f502 6200 	add.w	r2, r2, #2048	; 0x800
 8002cb8:	4290      	cmp	r0, r2
 8002cba:	d00e      	beq.n	8002cda <TIM_Base_SetConfig+0x62>
 8002cbc:	f1b0 4f80 	cmp.w	r0, #1073741824	; 0x40000000
 8002cc0:	d00b      	beq.n	8002cda <TIM_Base_SetConfig+0x62>
 8002cc2:	f5a2 3298 	sub.w	r2, r2, #77824	; 0x13000
 8002cc6:	4290      	cmp	r0, r2
 8002cc8:	d007      	beq.n	8002cda <TIM_Base_SetConfig+0x62>
 8002cca:	f502 6280 	add.w	r2, r2, #1024	; 0x400
 8002cce:	4290      	cmp	r0, r2
 8002cd0:	d003      	beq.n	8002cda <TIM_Base_SetConfig+0x62>
 8002cd2:	f502 6280 	add.w	r2, r2, #1024	; 0x400
 8002cd6:	4290      	cmp	r0, r2
 8002cd8:	d103      	bne.n	8002ce2 <TIM_Base_SetConfig+0x6a>
    tmpcr1 |= (uint32_t)Structure->ClockDivision;
 8002cda:	68ca      	ldr	r2, [r1, #12]
    tmpcr1 &= ~TIM_CR1_CKD;
 8002cdc:	f423 7340 	bic.w	r3, r3, #768	; 0x300
    tmpcr1 |= (uint32_t)Structure->ClockDivision;
 8002ce0:	4313      	orrs	r3, r2
  tmpcr1 |= (uint32_t)Structure->AutoReloadPreload;
 8002ce2:	694a      	ldr	r2, [r1, #20]
  tmpcr1 &= ~TIM_CR1_ARPE;
 8002ce4:	f023 0380 	bic.w	r3, r3, #128	; 0x80
  tmpcr1 |= (uint32_t)Structure->AutoReloadPreload;
 8002ce8:	4313      	orrs	r3, r2
  TIMx->CR1 = tmpcr1;
 8002cea:	6003      	str	r3, [r0, #0]
  TIMx->ARR = (uint32_t)Structure->Period ;
 8002cec:	688b      	ldr	r3, [r1, #8]
 8002cee:	62c3      	str	r3, [r0, #44]	; 0x2c
  TIMx->PSC = (uint32_t)Structure->Prescaler;
 8002cf0:	680b      	ldr	r3, [r1, #0]
 8002cf2:	6283      	str	r3, [r0, #40]	; 0x28
  if (IS_TIM_REPETITION_COUNTER_INSTANCE(TIMx))
 8002cf4:	4b05      	ldr	r3, [pc, #20]	; (8002d0c <TIM_Base_SetConfig+0x94>)
 8002cf6:	4298      	cmp	r0, r3
 8002cf8:	d003      	beq.n	8002d02 <TIM_Base_SetConfig+0x8a>
 8002cfa:	f503 6300 	add.w	r3, r3, #2048	; 0x800
 8002cfe:	4298      	cmp	r0, r3
 8002d00:	d101      	bne.n	8002d06 <TIM_Base_SetConfig+0x8e>
    TIMx->RCR = Structure->RepetitionCounter;
 8002d02:	690b      	ldr	r3, [r1, #16]
 8002d04:	6303      	str	r3, [r0, #48]	; 0x30
  TIMx->EGR = TIM_EGR_UG;
 8002d06:	2301      	movs	r3, #1
 8002d08:	6143      	str	r3, [r0, #20]
 8002d0a:	4770      	bx	lr
 8002d0c:	40012c00 	.word	0x40012c00

08002d10 <HAL_TIM_Encoder_Init>:
{
 8002d10:	b5f8      	push	{r3, r4, r5, r6, r7, lr}
 8002d12:	460c      	mov	r4, r1
  if(htim == NULL)
 8002d14:	4605      	mov	r5, r0
 8002d16:	2800      	cmp	r0, #0
 8002d18:	d041      	beq.n	8002d9e <HAL_TIM_Encoder_Init+0x8e>
  if(htim->State == HAL_TIM_STATE_RESET)
 8002d1a:	f890 303d 	ldrb.w	r3, [r0, #61]	; 0x3d
 8002d1e:	f003 02ff 	and.w	r2, r3, #255	; 0xff
 8002d22:	b91b      	cbnz	r3, 8002d2c <HAL_TIM_Encoder_Init+0x1c>
    htim->Lock = HAL_UNLOCKED;
 8002d24:	f880 203c 	strb.w	r2, [r0, #60]	; 0x3c
    HAL_TIM_Encoder_MspInit(htim);
 8002d28:	f7fe faf0 	bl	800130c <HAL_TIM_Encoder_MspInit>
  htim->Instance->SMCR &= ~TIM_SMCR_SMS;
 8002d2c:	4629      	mov	r1, r5
  htim->State= HAL_TIM_STATE_BUSY;
 8002d2e:	2302      	movs	r3, #2
  htim->Instance->SMCR &= ~TIM_SMCR_SMS;
 8002d30:	f851 0b04 	ldr.w	r0, [r1], #4
  htim->State= HAL_TIM_STATE_BUSY;
 8002d34:	f885 303d 	strb.w	r3, [r5, #61]	; 0x3d
  htim->Instance->SMCR &= ~TIM_SMCR_SMS;
 8002d38:	6883      	ldr	r3, [r0, #8]
 8002d3a:	f023 0307 	bic.w	r3, r3, #7
 8002d3e:	6083      	str	r3, [r0, #8]
  TIM_Base_SetConfig(htim->Instance, &htim->Init);
 8002d40:	f7ff ff9a 	bl	8002c78 <TIM_Base_SetConfig>
  tmpsmcr = htim->Instance->SMCR;
 8002d44:	6828      	ldr	r0, [r5, #0]
  tmpsmcr |= sConfig->EncoderMode;
 8002d46:	6823      	ldr	r3, [r4, #0]
  tmpsmcr = htim->Instance->SMCR;
 8002d48:	6886      	ldr	r6, [r0, #8]
  tmpccmr1 = htim->Instance->CCMR1;
 8002d4a:	6982      	ldr	r2, [r0, #24]
  tmpccmr1 |= (sConfig->IC1Selection | (sConfig->IC2Selection << 8U));
 8002d4c:	68a1      	ldr	r1, [r4, #8]
  tmpsmcr |= sConfig->EncoderMode;
 8002d4e:	431e      	orrs	r6, r3
  tmpccmr1 |= (sConfig->IC1Selection | (sConfig->IC2Selection << 8U));
 8002d50:	69a3      	ldr	r3, [r4, #24]
  tmpccmr1 &= ~(TIM_CCMR1_CC1S | TIM_CCMR1_CC2S);
 8002d52:	f422 7240 	bic.w	r2, r2, #768	; 0x300
 8002d56:	f022 0203 	bic.w	r2, r2, #3
  tmpccmr1 |= (sConfig->IC1Selection | (sConfig->IC2Selection << 8U));
 8002d5a:	ea41 2303 	orr.w	r3, r1, r3, lsl #8
 8002d5e:	4313      	orrs	r3, r2
  tmpccmr1 &= ~(TIM_CCMR1_IC1F | TIM_CCMR1_IC2F);
 8002d60:	f423 427c 	bic.w	r2, r3, #64512	; 0xfc00
  tmpccmr1 |= (sConfig->IC1Filter << 4U) | (sConfig->IC2Filter << 12U);
 8002d64:	6923      	ldr	r3, [r4, #16]
  tmpccmr1 |= sConfig->IC1Prescaler | (sConfig->IC2Prescaler << 8U);
 8002d66:	69e1      	ldr	r1, [r4, #28]
  tmpccmr1 |= (sConfig->IC1Filter << 4U) | (sConfig->IC2Filter << 12U);
 8002d68:	011b      	lsls	r3, r3, #4
 8002d6a:	ea43 2301 	orr.w	r3, r3, r1, lsl #8
 8002d6e:	68e1      	ldr	r1, [r4, #12]
  tmpccer = htim->Instance->CCER;
 8002d70:	6a07      	ldr	r7, [r0, #32]
  tmpccmr1 |= (sConfig->IC1Filter << 4U) | (sConfig->IC2Filter << 12U);
 8002d72:	430b      	orrs	r3, r1
 8002d74:	6a21      	ldr	r1, [r4, #32]
  tmpccmr1 &= ~(TIM_CCMR1_IC1F | TIM_CCMR1_IC2F);
 8002d76:	f022 02fc 	bic.w	r2, r2, #252	; 0xfc
  tmpccmr1 |= (sConfig->IC1Filter << 4U) | (sConfig->IC2Filter << 12U);
 8002d7a:	ea43 3301 	orr.w	r3, r3, r1, lsl #12
 8002d7e:	4313      	orrs	r3, r2
  tmpccer |= sConfig->IC1Polarity | (sConfig->IC2Polarity << 4U);
 8002d80:	6961      	ldr	r1, [r4, #20]
  tmpccer &= ~(TIM_CCER_CC1NP | TIM_CCER_CC2NP);
 8002d82:	f027 02aa 	bic.w	r2, r7, #170	; 0xaa
  tmpccer |= sConfig->IC1Polarity | (sConfig->IC2Polarity << 4U);
 8002d86:	6867      	ldr	r7, [r4, #4]
  htim->Instance->SMCR = tmpsmcr;
 8002d88:	6086      	str	r6, [r0, #8]
  htim->Instance->CCMR1 = tmpccmr1;
 8002d8a:	6183      	str	r3, [r0, #24]
  htim->State= HAL_TIM_STATE_READY;
 8002d8c:	2301      	movs	r3, #1
  tmpccer |= sConfig->IC1Polarity | (sConfig->IC2Polarity << 4U);
 8002d8e:	ea47 1701 	orr.w	r7, r7, r1, lsl #4
 8002d92:	4317      	orrs	r7, r2
  htim->Instance->CCER = tmpccer;
 8002d94:	6207      	str	r7, [r0, #32]
  htim->State= HAL_TIM_STATE_READY;
 8002d96:	f885 303d 	strb.w	r3, [r5, #61]	; 0x3d
  return HAL_OK;
 8002d9a:	2000      	movs	r0, #0
 8002d9c:	bdf8      	pop	{r3, r4, r5, r6, r7, pc}
    return HAL_ERROR;
 8002d9e:	2001      	movs	r0, #1
}
 8002da0:	bdf8      	pop	{r3, r4, r5, r6, r7, pc}

08002da2 <HAL_TIMEx_MasterConfigSynchronization>:
  /* Check the parameters */
  assert_param(IS_TIM_MASTER_INSTANCE(htim->Instance));
  assert_param(IS_TIM_TRGO_SOURCE(sMasterConfig->MasterOutputTrigger));
  assert_param(IS_TIM_MSM_STATE(sMasterConfig->MasterSlaveMode));

  __HAL_LOCK(htim);
 8002da2:	f890 303c 	ldrb.w	r3, [r0, #60]	; 0x3c
{
 8002da6:	b510      	push	{r4, lr}
  __HAL_LOCK(htim);
 8002da8:	2b01      	cmp	r3, #1
 8002daa:	f04f 0302 	mov.w	r3, #2
 8002dae:	d018      	beq.n	8002de2 <HAL_TIMEx_MasterConfigSynchronization+0x40>

  htim->State = HAL_TIM_STATE_BUSY;
 8002db0:	f880 303d 	strb.w	r3, [r0, #61]	; 0x3d

  /* Reset the MMS Bits */
  htim->Instance->CR2 &= ~TIM_CR2_MMS;
 8002db4:	6803      	ldr	r3, [r0, #0]
  /* Select the TRGO source */
  htim->Instance->CR2 |=  sMasterConfig->MasterOutputTrigger;
 8002db6:	680c      	ldr	r4, [r1, #0]
  htim->Instance->CR2 &= ~TIM_CR2_MMS;
 8002db8:	685a      	ldr	r2, [r3, #4]

  /* Reset the MSM Bit */
  htim->Instance->SMCR &= ~TIM_SMCR_MSM;
  /* Set or Reset the MSM Bit */
  htim->Instance->SMCR |= sMasterConfig->MasterSlaveMode;
 8002dba:	6849      	ldr	r1, [r1, #4]
  htim->Instance->CR2 &= ~TIM_CR2_MMS;
 8002dbc:	f022 0270 	bic.w	r2, r2, #112	; 0x70
 8002dc0:	605a      	str	r2, [r3, #4]
  htim->Instance->CR2 |=  sMasterConfig->MasterOutputTrigger;
 8002dc2:	685a      	ldr	r2, [r3, #4]
 8002dc4:	4322      	orrs	r2, r4
 8002dc6:	605a      	str	r2, [r3, #4]
  htim->Instance->SMCR &= ~TIM_SMCR_MSM;
 8002dc8:	689a      	ldr	r2, [r3, #8]
 8002dca:	f022 0280 	bic.w	r2, r2, #128	; 0x80
 8002dce:	609a      	str	r2, [r3, #8]
  htim->Instance->SMCR |= sMasterConfig->MasterSlaveMode;
 8002dd0:	689a      	ldr	r2, [r3, #8]
 8002dd2:	430a      	orrs	r2, r1
 8002dd4:	609a      	str	r2, [r3, #8]

  htim->State = HAL_TIM_STATE_READY;
 8002dd6:	2301      	movs	r3, #1
 8002dd8:	f880 303d 	strb.w	r3, [r0, #61]	; 0x3d

  __HAL_UNLOCK(htim);
 8002ddc:	2300      	movs	r3, #0
 8002dde:	f880 303c 	strb.w	r3, [r0, #60]	; 0x3c
  __HAL_LOCK(htim);
 8002de2:	4618      	mov	r0, r3

  return HAL_OK;
}
 8002de4:	bd10      	pop	{r4, pc}

08002de6 <xEventGroupCreate>:
/*-----------------------------------------------------------*/

#if( configSUPPORT_DYNAMIC_ALLOCATION == 1 )

	EventGroupHandle_t xEventGroupCreate( void )
	{
 8002de6:	b510      	push	{r4, lr}
	EventGroup_t *pxEventBits;

		/* Allocate the event group. */
		pxEventBits = ( EventGroup_t * ) pvPortMalloc( sizeof( EventGroup_t ) );
 8002de8:	2018      	movs	r0, #24
 8002dea:	f000 fa99 	bl	8003320 <pvPortMalloc>

		if( pxEventBits != NULL )
 8002dee:	4604      	mov	r4, r0
 8002df0:	b120      	cbz	r0, 8002dfc <xEventGroupCreate+0x16>
		{
			pxEventBits->uxEventBits = 0;
 8002df2:	2300      	movs	r3, #0
 8002df4:	f840 3b04 	str.w	r3, [r0], #4
			vListInitialise( &( pxEventBits->xTasksWaitingForBits ) );
 8002df8:	f000 f8cd 	bl	8002f96 <vListInitialise>
		{
			traceEVENT_GROUP_CREATE_FAILED();
		}

		return ( EventGroupHandle_t ) pxEventBits;
	}
 8002dfc:	4620      	mov	r0, r4
 8002dfe:	bd10      	pop	{r4, pc}

08002e00 <xEventGroupWaitBits>:
	return uxReturn;
}
/*-----------------------------------------------------------*/

EventBits_t xEventGroupWaitBits( EventGroupHandle_t xEventGroup, const EventBits_t uxBitsToWaitFor, const BaseType_t xClearOnExit, const BaseType_t xWaitForAllBits, TickType_t xTicksToWait )
{
 8002e00:	e92d 47f0 	stmdb	sp!, {r4, r5, r6, r7, r8, r9, sl, lr}
 8002e04:	9f08      	ldr	r7, [sp, #32]
 8002e06:	460d      	mov	r5, r1
 8002e08:	4690      	mov	r8, r2
 8002e0a:	4699      	mov	r9, r3
BaseType_t xWaitConditionMet, xAlreadyYielded;
BaseType_t xTimeoutOccurred = pdFALSE;

	/* Check the user is not attempting to wait on the bits used by the kernel
	itself, and that at least one bit is being requested. */
	configASSERT( xEventGroup );
 8002e0c:	4606      	mov	r6, r0
 8002e0e:	b940      	cbnz	r0, 8002e22 <xEventGroupWaitBits+0x22>

portFORCE_INLINE static void vPortRaiseBASEPRI( void )
{
uint32_t ulNewBASEPRI;

	__asm volatile
 8002e10:	f04f 0350 	mov.w	r3, #80	; 0x50
 8002e14:	f383 8811 	msr	BASEPRI, r3
 8002e18:	f3bf 8f6f 	isb	sy
 8002e1c:	f3bf 8f4f 	dsb	sy
 8002e20:	e7fe      	b.n	8002e20 <xEventGroupWaitBits+0x20>
	configASSERT( ( uxBitsToWaitFor & eventEVENT_BITS_CONTROL_BYTES ) == 0 );
 8002e22:	f011 4a7f 	ands.w	sl, r1, #4278190080	; 0xff000000
 8002e26:	d008      	beq.n	8002e3a <xEventGroupWaitBits+0x3a>
 8002e28:	f04f 0350 	mov.w	r3, #80	; 0x50
 8002e2c:	f383 8811 	msr	BASEPRI, r3
 8002e30:	f3bf 8f6f 	isb	sy
 8002e34:	f3bf 8f4f 	dsb	sy
 8002e38:	e7fe      	b.n	8002e38 <xEventGroupWaitBits+0x38>
	configASSERT( uxBitsToWaitFor != 0 );
 8002e3a:	b941      	cbnz	r1, 8002e4e <xEventGroupWaitBits+0x4e>
 8002e3c:	f04f 0350 	mov.w	r3, #80	; 0x50
 8002e40:	f383 8811 	msr	BASEPRI, r3
 8002e44:	f3bf 8f6f 	isb	sy
 8002e48:	f3bf 8f4f 	dsb	sy
 8002e4c:	e7fe      	b.n	8002e4c <xEventGroupWaitBits+0x4c>
	#if ( ( INCLUDE_xTaskGetSchedulerState == 1 ) || ( configUSE_TIMERS == 1 ) )
	{
		configASSERT( !( ( xTaskGetSchedulerState() == taskSCHEDULER_SUSPENDED ) && ( xTicksToWait != 0 ) ) );
 8002e4e:	f001 fb2f 	bl	80044b0 <xTaskGetSchedulerState>
 8002e52:	bb48      	cbnz	r0, 8002ea8 <xEventGroupWaitBits+0xa8>
 8002e54:	b347      	cbz	r7, 8002ea8 <xEventGroupWaitBits+0xa8>
 8002e56:	f04f 0350 	mov.w	r3, #80	; 0x50
 8002e5a:	f383 8811 	msr	BASEPRI, r3
 8002e5e:	f3bf 8f6f 	isb	sy
 8002e62:	f3bf 8f4f 	dsb	sy
 8002e66:	e7fe      	b.n	8002e66 <xEventGroupWaitBits+0x66>

	if( xWaitForAllBits == pdFALSE )
	{
		/* Task only has to wait for one bit within uxBitsToWaitFor to be
		set.  Is one already set? */
		if( ( uxCurrentEventBits & uxBitsToWaitFor ) != ( EventBits_t ) 0 )
 8002e68:	bb43      	cbnz	r3, 8002ebc <xEventGroupWaitBits+0xbc>
		else if( xTicksToWait == ( TickType_t ) 0 )
 8002e6a:	b197      	cbz	r7, 8002e92 <xEventGroupWaitBits+0x92>
				uxControlBits |= eventCLEAR_EVENTS_ON_EXIT_BIT;
 8002e6c:	f1b8 0f00 	cmp.w	r8, #0
 8002e70:	bf0c      	ite	eq
 8002e72:	2100      	moveq	r1, #0
 8002e74:	f04f 7180 	movne.w	r1, #16777216	; 0x1000000
			if( xWaitForAllBits != pdFALSE )
 8002e78:	f1b9 0f00 	cmp.w	r9, #0
 8002e7c:	d001      	beq.n	8002e82 <xEventGroupWaitBits+0x82>
				uxControlBits |= eventWAIT_FOR_ALL_BITS;
 8002e7e:	f041 6180 	orr.w	r1, r1, #67108864	; 0x4000000
			vTaskPlaceOnUnorderedEventList( &( pxEventBits->xTasksWaitingForBits ), ( uxBitsToWaitFor | uxControlBits ), xTicksToWait );
 8002e82:	463a      	mov	r2, r7
 8002e84:	4329      	orrs	r1, r5
 8002e86:	1d30      	adds	r0, r6, #4
 8002e88:	f001 f9f2 	bl	8004270 <vTaskPlaceOnUnorderedEventList>
 8002e8c:	46ba      	mov	sl, r7
			uxReturn = 0;
 8002e8e:	2400      	movs	r4, #0
 8002e90:	e01a      	b.n	8002ec8 <xEventGroupWaitBits+0xc8>
 8002e92:	46ba      	mov	sl, r7
 8002e94:	e018      	b.n	8002ec8 <xEventGroupWaitBits+0xc8>
	}
	else
	{
		/* Task has to wait for all the bits in uxBitsToWaitFor to be set.
		Are they set already? */
		if( ( uxCurrentEventBits & uxBitsToWaitFor ) == uxBitsToWaitFor )
 8002e96:	429d      	cmp	r5, r3
 8002e98:	d133      	bne.n	8002f02 <xEventGroupWaitBits+0x102>
					if( xClearOnExit != pdFALSE )
 8002e9a:	f1b8 0f00 	cmp.w	r8, #0
 8002e9e:	d030      	beq.n	8002f02 <xEventGroupWaitBits+0x102>
						pxEventBits->uxEventBits &= ~uxBitsToWaitFor;
 8002ea0:	ea24 0505 	bic.w	r5, r4, r5
 8002ea4:	6035      	str	r5, [r6, #0]
 8002ea6:	e02c      	b.n	8002f02 <xEventGroupWaitBits+0x102>
	vTaskSuspendAll();
 8002ea8:	f000 ffe6 	bl	8003e78 <vTaskSuspendAll>
		const EventBits_t uxCurrentEventBits = pxEventBits->uxEventBits;
 8002eac:	6834      	ldr	r4, [r6, #0]
 8002eae:	ea05 0304 	and.w	r3, r5, r4
	if( xWaitForAllBits == pdFALSE )
 8002eb2:	f1b9 0f00 	cmp.w	r9, #0
 8002eb6:	d0d7      	beq.n	8002e68 <xEventGroupWaitBits+0x68>
		if( ( uxCurrentEventBits & uxBitsToWaitFor ) == uxBitsToWaitFor )
 8002eb8:	429d      	cmp	r5, r3
 8002eba:	d1d6      	bne.n	8002e6a <xEventGroupWaitBits+0x6a>
			if( xClearOnExit != pdFALSE )
 8002ebc:	f1b8 0f00 	cmp.w	r8, #0
 8002ec0:	d002      	beq.n	8002ec8 <xEventGroupWaitBits+0xc8>
				pxEventBits->uxEventBits &= ~uxBitsToWaitFor;
 8002ec2:	ea24 0305 	bic.w	r3, r4, r5
 8002ec6:	6033      	str	r3, [r6, #0]
	xAlreadyYielded = xTaskResumeAll();
 8002ec8:	f001 f876 	bl	8003fb8 <xTaskResumeAll>
	if( xTicksToWait != ( TickType_t ) 0 )
 8002ecc:	f1ba 0f00 	cmp.w	sl, #0
 8002ed0:	d01b      	beq.n	8002f0a <xEventGroupWaitBits+0x10a>
		if( xAlreadyYielded == pdFALSE )
 8002ed2:	b938      	cbnz	r0, 8002ee4 <xEventGroupWaitBits+0xe4>
			portYIELD_WITHIN_API();
 8002ed4:	f04f 5280 	mov.w	r2, #268435456	; 0x10000000
 8002ed8:	4b0d      	ldr	r3, [pc, #52]	; (8002f10 <xEventGroupWaitBits+0x110>)
 8002eda:	601a      	str	r2, [r3, #0]
 8002edc:	f3bf 8f4f 	dsb	sy
 8002ee0:	f3bf 8f6f 	isb	sy
		uxReturn = uxTaskResetEventItemValue();
 8002ee4:	f001 fb44 	bl	8004570 <uxTaskResetEventItemValue>
		if( ( uxReturn & eventUNBLOCKED_DUE_TO_BIT_SET ) == ( EventBits_t ) 0 )
 8002ee8:	0183      	lsls	r3, r0, #6
		uxReturn = uxTaskResetEventItemValue();
 8002eea:	4604      	mov	r4, r0
		if( ( uxReturn & eventUNBLOCKED_DUE_TO_BIT_SET ) == ( EventBits_t ) 0 )
 8002eec:	d40b      	bmi.n	8002f06 <xEventGroupWaitBits+0x106>
			taskENTER_CRITICAL();
 8002eee:	f000 f8e9 	bl	80030c4 <vPortEnterCritical>
				uxReturn = pxEventBits->uxEventBits;
 8002ef2:	6834      	ldr	r4, [r6, #0]
 8002ef4:	ea05 0304 	and.w	r3, r5, r4
	if( xWaitForAllBits == pdFALSE )
 8002ef8:	f1b9 0f00 	cmp.w	r9, #0
 8002efc:	d1cb      	bne.n	8002e96 <xEventGroupWaitBits+0x96>
		if( ( uxCurrentEventBits & uxBitsToWaitFor ) != ( EventBits_t ) 0 )
 8002efe:	2b00      	cmp	r3, #0
 8002f00:	d1cb      	bne.n	8002e9a <xEventGroupWaitBits+0x9a>
			taskEXIT_CRITICAL();
 8002f02:	f000 f901 	bl	8003108 <vPortExitCritical>
		uxReturn &= ~eventEVENT_BITS_CONTROL_BYTES;
 8002f06:	f024 447f 	bic.w	r4, r4, #4278190080	; 0xff000000
}
 8002f0a:	4620      	mov	r0, r4
 8002f0c:	e8bd 87f0 	ldmia.w	sp!, {r4, r5, r6, r7, r8, r9, sl, pc}
 8002f10:	e000ed04 	.word	0xe000ed04

08002f14 <xEventGroupSetBits>:
{
 8002f14:	b5f8      	push	{r3, r4, r5, r6, r7, lr}
 8002f16:	460f      	mov	r7, r1
	configASSERT( xEventGroup );
 8002f18:	4604      	mov	r4, r0
 8002f1a:	b940      	cbnz	r0, 8002f2e <xEventGroupSetBits+0x1a>
 8002f1c:	f04f 0350 	mov.w	r3, #80	; 0x50
 8002f20:	f383 8811 	msr	BASEPRI, r3
 8002f24:	f3bf 8f6f 	isb	sy
 8002f28:	f3bf 8f4f 	dsb	sy
 8002f2c:	e7fe      	b.n	8002f2c <xEventGroupSetBits+0x18>
	configASSERT( ( uxBitsToSet & eventEVENT_BITS_CONTROL_BYTES ) == 0 );
 8002f2e:	f011 457f 	ands.w	r5, r1, #4278190080	; 0xff000000
 8002f32:	d008      	beq.n	8002f46 <xEventGroupSetBits+0x32>
 8002f34:	f04f 0350 	mov.w	r3, #80	; 0x50
 8002f38:	f383 8811 	msr	BASEPRI, r3
 8002f3c:	f3bf 8f6f 	isb	sy
 8002f40:	f3bf 8f4f 	dsb	sy
 8002f44:	e7fe      	b.n	8002f44 <xEventGroupSetBits+0x30>
	pxListEnd = listGET_END_MARKER( pxList ); /*lint !e826 !e740 The mini list structure is used as the list end to save RAM.  This is checked and valid. */
 8002f46:	f100 060c 	add.w	r6, r0, #12
	vTaskSuspendAll();
 8002f4a:	f000 ff95 	bl	8003e78 <vTaskSuspendAll>
		pxEventBits->uxEventBits |= uxBitsToSet;
 8002f4e:	6823      	ldr	r3, [r4, #0]
		pxListItem = listGET_HEAD_ENTRY( pxList );
 8002f50:	6920      	ldr	r0, [r4, #16]
		pxEventBits->uxEventBits |= uxBitsToSet;
 8002f52:	433b      	orrs	r3, r7
 8002f54:	6023      	str	r3, [r4, #0]
		while( pxListItem != pxListEnd )
 8002f56:	4286      	cmp	r6, r0
 8002f58:	6821      	ldr	r1, [r4, #0]
 8002f5a:	d106      	bne.n	8002f6a <xEventGroupSetBits+0x56>
		pxEventBits->uxEventBits &= ~uxBitsToClear;
 8002f5c:	ea21 0105 	bic.w	r1, r1, r5
 8002f60:	6021      	str	r1, [r4, #0]
	( void ) xTaskResumeAll();
 8002f62:	f001 f829 	bl	8003fb8 <xTaskResumeAll>
 8002f66:	6820      	ldr	r0, [r4, #0]
}
 8002f68:	bdf8      	pop	{r3, r4, r5, r6, r7, pc}
			uxBitsWaitedFor = listGET_LIST_ITEM_VALUE( pxListItem );
 8002f6a:	e890 0088 	ldmia.w	r0, {r3, r7}
			if( ( uxControlBits & eventWAIT_FOR_ALL_BITS ) == ( EventBits_t ) 0 )
 8002f6e:	f013 6f80 	tst.w	r3, #67108864	; 0x4000000
			uxBitsWaitedFor &= ~eventEVENT_BITS_CONTROL_BYTES;
 8002f72:	f023 427f 	bic.w	r2, r3, #4278190080	; 0xff000000
			if( ( uxControlBits & eventWAIT_FOR_ALL_BITS ) == ( EventBits_t ) 0 )
 8002f76:	d103      	bne.n	8002f80 <xEventGroupSetBits+0x6c>
				if( ( uxBitsWaitedFor & pxEventBits->uxEventBits ) != ( EventBits_t ) 0 )
 8002f78:	420a      	tst	r2, r1
 8002f7a:	d104      	bne.n	8002f86 <xEventGroupSetBits+0x72>
{
 8002f7c:	4638      	mov	r0, r7
 8002f7e:	e7ea      	b.n	8002f56 <xEventGroupSetBits+0x42>
			else if( ( uxBitsWaitedFor & pxEventBits->uxEventBits ) == uxBitsWaitedFor )
 8002f80:	ea32 0e01 	bics.w	lr, r2, r1
 8002f84:	d1fa      	bne.n	8002f7c <xEventGroupSetBits+0x68>
				if( ( uxControlBits & eventCLEAR_EVENTS_ON_EXIT_BIT ) != ( EventBits_t ) 0 )
 8002f86:	01db      	lsls	r3, r3, #7
 8002f88:	d500      	bpl.n	8002f8c <xEventGroupSetBits+0x78>
					uxBitsToClear |= uxBitsWaitedFor;
 8002f8a:	4315      	orrs	r5, r2
				vTaskRemoveFromUnorderedEventList( pxListItem, pxEventBits->uxEventBits | eventUNBLOCKED_DUE_TO_BIT_SET );
 8002f8c:	f041 7100 	orr.w	r1, r1, #33554432	; 0x2000000
 8002f90:	f001 f9fc 	bl	800438c <vTaskRemoveFromUnorderedEventList>
 8002f94:	e7f2      	b.n	8002f7c <xEventGroupSetBits+0x68>

08002f96 <vListInitialise>:
void vListInitialise( List_t * const pxList )
{
	/* The list structure contains a list item which is used to mark the
	end of the list.  To initialise the list the list end is inserted
	as the only list entry. */
	pxList->pxIndex = ( ListItem_t * ) &( pxList->xListEnd );			/*lint !e826 !e740 The mini list structure is used as the list end to save RAM.  This is checked and valid. */
 8002f96:	f100 0308 	add.w	r3, r0, #8
 8002f9a:	6043      	str	r3, [r0, #4]

	/* The list end value is the highest possible value in the list to
	ensure it remains at the end of the list. */
	pxList->xListEnd.xItemValue = portMAX_DELAY;
 8002f9c:	f04f 32ff 	mov.w	r2, #4294967295

	/* The list end next and previous pointers point to itself so we know
	when the list is empty. */
	pxList->xListEnd.pxNext = ( ListItem_t * ) &( pxList->xListEnd );	/*lint !e826 !e740 The mini list structure is used as the list end to save RAM.  This is checked and valid. */
 8002fa0:	60c3      	str	r3, [r0, #12]
	pxList->xListEnd.pxPrevious = ( ListItem_t * ) &( pxList->xListEnd );/*lint !e826 !e740 The mini list structure is used as the list end to save RAM.  This is checked and valid. */
 8002fa2:	6103      	str	r3, [r0, #16]

	pxList->uxNumberOfItems = ( UBaseType_t ) 0U;
 8002fa4:	2300      	movs	r3, #0
	pxList->xListEnd.xItemValue = portMAX_DELAY;
 8002fa6:	6082      	str	r2, [r0, #8]
	pxList->uxNumberOfItems = ( UBaseType_t ) 0U;
 8002fa8:	6003      	str	r3, [r0, #0]
 8002faa:	4770      	bx	lr

08002fac <vListInitialiseItem>:
/*-----------------------------------------------------------*/

void vListInitialiseItem( ListItem_t * const pxItem )
{
	/* Make sure the list item is not recorded as being on a list. */
	pxItem->pvContainer = NULL;
 8002fac:	2300      	movs	r3, #0
 8002fae:	6103      	str	r3, [r0, #16]
 8002fb0:	4770      	bx	lr

08002fb2 <vListInsertEnd>:
}
/*-----------------------------------------------------------*/

void vListInsertEnd( List_t * const pxList, ListItem_t * const pxNewListItem )
{
ListItem_t * const pxIndex = pxList->pxIndex;
 8002fb2:	6843      	ldr	r3, [r0, #4]

	/* Insert a new list item into pxList, but rather than sort the list,
	makes the new list item the last item to be removed by a call to
	listGET_OWNER_OF_NEXT_ENTRY(). */
	pxNewListItem->pxNext = pxIndex;
	pxNewListItem->pxPrevious = pxIndex->pxPrevious;
 8002fb4:	689a      	ldr	r2, [r3, #8]
	pxNewListItem->pxNext = pxIndex;
 8002fb6:	604b      	str	r3, [r1, #4]
	pxNewListItem->pxPrevious = pxIndex->pxPrevious;
 8002fb8:	608a      	str	r2, [r1, #8]

	/* Only used during decision coverage testing. */
	mtCOVERAGE_TEST_DELAY();

	pxIndex->pxPrevious->pxNext = pxNewListItem;
 8002fba:	689a      	ldr	r2, [r3, #8]
 8002fbc:	6051      	str	r1, [r2, #4]
	pxIndex->pxPrevious = pxNewListItem;
 8002fbe:	6099      	str	r1, [r3, #8]

	/* Remember which list the item is in. */
	pxNewListItem->pvContainer = ( void * ) pxList;

	( pxList->uxNumberOfItems )++;
 8002fc0:	6803      	ldr	r3, [r0, #0]
	pxNewListItem->pvContainer = ( void * ) pxList;
 8002fc2:	6108      	str	r0, [r1, #16]
	( pxList->uxNumberOfItems )++;
 8002fc4:	3301      	adds	r3, #1
 8002fc6:	6003      	str	r3, [r0, #0]
 8002fc8:	4770      	bx	lr

08002fca <vListInsert>:
/*-----------------------------------------------------------*/

void vListInsert( List_t * const pxList, ListItem_t * const pxNewListItem )
{
ListItem_t *pxIterator;
const TickType_t xValueOfInsertion = pxNewListItem->xItemValue;
 8002fca:	680a      	ldr	r2, [r1, #0]
{
 8002fcc:	b530      	push	{r4, r5, lr}
	new list item should be placed after it.  This ensures that TCB's which are
	stored in ready lists (all of which have the same xItemValue value) get a
	share of the CPU.  However, if the xItemValue is the same as the back marker
	the iteration loop below will not end.  Therefore the value is checked
	first, and the algorithm slightly modified if necessary. */
	if( xValueOfInsertion == portMAX_DELAY )
 8002fce:	1c53      	adds	r3, r2, #1
 8002fd0:	d10a      	bne.n	8002fe8 <vListInsert+0x1e>
	{
		pxIterator = pxList->xListEnd.pxPrevious;
 8002fd2:	6903      	ldr	r3, [r0, #16]
			/* There is nothing to do here, just iterating to the wanted
			insertion position. */
		}
	}

	pxNewListItem->pxNext = pxIterator->pxNext;
 8002fd4:	685a      	ldr	r2, [r3, #4]
 8002fd6:	604a      	str	r2, [r1, #4]
	pxNewListItem->pxNext->pxPrevious = pxNewListItem;
 8002fd8:	6091      	str	r1, [r2, #8]
	pxNewListItem->pxPrevious = pxIterator;
 8002fda:	608b      	str	r3, [r1, #8]
	pxIterator->pxNext = pxNewListItem;
 8002fdc:	6059      	str	r1, [r3, #4]

	/* Remember which list the item is in.  This allows fast removal of the
	item later. */
	pxNewListItem->pvContainer = ( void * ) pxList;

	( pxList->uxNumberOfItems )++;
 8002fde:	6803      	ldr	r3, [r0, #0]
	pxNewListItem->pvContainer = ( void * ) pxList;
 8002fe0:	6108      	str	r0, [r1, #16]
	( pxList->uxNumberOfItems )++;
 8002fe2:	3301      	adds	r3, #1
 8002fe4:	6003      	str	r3, [r0, #0]
 8002fe6:	bd30      	pop	{r4, r5, pc}
		for( pxIterator = ( ListItem_t * ) &( pxList->xListEnd ); pxIterator->pxNext->xItemValue <= xValueOfInsertion; pxIterator = pxIterator->pxNext ) /*lint !e826 !e740 The mini list structure is used as the list end to save RAM.  This is checked and valid. */
 8002fe8:	f100 0308 	add.w	r3, r0, #8
 8002fec:	685c      	ldr	r4, [r3, #4]
 8002fee:	6825      	ldr	r5, [r4, #0]
 8002ff0:	42aa      	cmp	r2, r5
 8002ff2:	d3ef      	bcc.n	8002fd4 <vListInsert+0xa>
 8002ff4:	4623      	mov	r3, r4
 8002ff6:	e7f9      	b.n	8002fec <vListInsert+0x22>

08002ff8 <uxListRemove>:
{
/* The list item knows which list it is in.  Obtain the list from the list
item. */
List_t * const pxList = ( List_t * ) pxItemToRemove->pvContainer;

	pxItemToRemove->pxNext->pxPrevious = pxItemToRemove->pxPrevious;
 8002ff8:	6841      	ldr	r1, [r0, #4]
 8002ffa:	6882      	ldr	r2, [r0, #8]
List_t * const pxList = ( List_t * ) pxItemToRemove->pvContainer;
 8002ffc:	6903      	ldr	r3, [r0, #16]
	pxItemToRemove->pxNext->pxPrevious = pxItemToRemove->pxPrevious;
 8002ffe:	608a      	str	r2, [r1, #8]
	pxItemToRemove->pxPrevious->pxNext = pxItemToRemove->pxNext;
 8003000:	6882      	ldr	r2, [r0, #8]
 8003002:	6051      	str	r1, [r2, #4]

	/* Only used during decision coverage testing. */
	mtCOVERAGE_TEST_DELAY();

	/* Make sure the index is left pointing to a valid item. */
	if( pxList->pxIndex == pxItemToRemove )
 8003004:	6859      	ldr	r1, [r3, #4]
 8003006:	4288      	cmp	r0, r1
	{
		pxList->pxIndex = pxItemToRemove->pxPrevious;
 8003008:	bf08      	it	eq
 800300a:	605a      	streq	r2, [r3, #4]
	else
	{
		mtCOVERAGE_TEST_MARKER();
	}

	pxItemToRemove->pvContainer = NULL;
 800300c:	2200      	movs	r2, #0
 800300e:	6102      	str	r2, [r0, #16]
	( pxList->uxNumberOfItems )--;
 8003010:	681a      	ldr	r2, [r3, #0]
 8003012:	3a01      	subs	r2, #1
 8003014:	601a      	str	r2, [r3, #0]

	return pxList->uxNumberOfItems;
 8003016:	6818      	ldr	r0, [r3, #0]
}
 8003018:	4770      	bx	lr
	...

0800301c <prvTaskExitError>:
}
/*-----------------------------------------------------------*/

static void prvTaskExitError( void )
{
	volatile uint32_t ulDummy = 0UL;
 800301c:	2300      	movs	r3, #0
{
 800301e:	b082      	sub	sp, #8
	volatile uint32_t ulDummy = 0UL;
 8003020:	9301      	str	r3, [sp, #4]
	its caller as there is nothing to return to.  If a task wants to exit it
	should instead call vTaskDelete( NULL ).

	Artificially force an assert() to be triggered if configASSERT() is
	defined, then stop here so application writers can catch the error. */
	configASSERT( uxCriticalNesting == ~0UL );
 8003022:	4b0d      	ldr	r3, [pc, #52]	; (8003058 <prvTaskExitError+0x3c>)
 8003024:	681b      	ldr	r3, [r3, #0]
 8003026:	3301      	adds	r3, #1
 8003028:	d008      	beq.n	800303c <prvTaskExitError+0x20>
 800302a:	f04f 0350 	mov.w	r3, #80	; 0x50
 800302e:	f383 8811 	msr	BASEPRI, r3
 8003032:	f3bf 8f6f 	isb	sy
 8003036:	f3bf 8f4f 	dsb	sy
 800303a:	e7fe      	b.n	800303a <prvTaskExitError+0x1e>
 800303c:	f04f 0350 	mov.w	r3, #80	; 0x50
 8003040:	f383 8811 	msr	BASEPRI, r3
 8003044:	f3bf 8f6f 	isb	sy
 8003048:	f3bf 8f4f 	dsb	sy
	portDISABLE_INTERRUPTS();
	while( ulDummy == 0 )
 800304c:	9b01      	ldr	r3, [sp, #4]
 800304e:	2b00      	cmp	r3, #0
 8003050:	d0fc      	beq.n	800304c <prvTaskExitError+0x30>
		about code appearing after this function is called - making ulDummy
		volatile makes the compiler think the function could return and
		therefore not output an 'unreachable code' warning for code that appears
		after it. */
	}
}
 8003052:	b002      	add	sp, #8
 8003054:	4770      	bx	lr
 8003056:	bf00      	nop
 8003058:	20000014 	.word	0x20000014

0800305c <prvPortStartFirstTask>:
}
/*-----------------------------------------------------------*/

static void prvPortStartFirstTask( void )
{
	__asm volatile(
 800305c:	4806      	ldr	r0, [pc, #24]	; (8003078 <prvPortStartFirstTask+0x1c>)
 800305e:	6800      	ldr	r0, [r0, #0]
 8003060:	6800      	ldr	r0, [r0, #0]
 8003062:	f380 8808 	msr	MSP, r0
 8003066:	b662      	cpsie	i
 8003068:	b661      	cpsie	f
 800306a:	f3bf 8f4f 	dsb	sy
 800306e:	f3bf 8f6f 	isb	sy
 8003072:	df00      	svc	0
 8003074:	bf00      	nop
 8003076:	0000      	.short	0x0000
 8003078:	e000ed08 	.word	0xe000ed08

0800307c <pxPortInitialiseStack>:
	*pxTopOfStack = portINITIAL_XPSR;	/* xPSR */
 800307c:	f04f 7380 	mov.w	r3, #16777216	; 0x1000000
 8003080:	f840 3c04 	str.w	r3, [r0, #-4]
	*pxTopOfStack = ( StackType_t ) portTASK_RETURN_ADDRESS;	/* LR */
 8003084:	4b05      	ldr	r3, [pc, #20]	; (800309c <pxPortInitialiseStack+0x20>)
	*pxTopOfStack = ( ( StackType_t ) pxCode ) & portSTART_ADDRESS_MASK;	/* PC */
 8003086:	f021 0101 	bic.w	r1, r1, #1
 800308a:	f840 1c08 	str.w	r1, [r0, #-8]
	*pxTopOfStack = ( StackType_t ) portTASK_RETURN_ADDRESS;	/* LR */
 800308e:	f840 3c0c 	str.w	r3, [r0, #-12]
	*pxTopOfStack = ( StackType_t ) pvParameters;	/* R0 */
 8003092:	f840 2c20 	str.w	r2, [r0, #-32]
}
 8003096:	3840      	subs	r0, #64	; 0x40
 8003098:	4770      	bx	lr
 800309a:	bf00      	nop
 800309c:	0800301d 	.word	0x0800301d

080030a0 <SVC_Handler>:
	__asm volatile(
 80030a0:	4b07      	ldr	r3, [pc, #28]	; (80030c0 <pxCurrentTCBConst2>)
 80030a2:	6819      	ldr	r1, [r3, #0]
 80030a4:	6808      	ldr	r0, [r1, #0]
 80030a6:	e8b0 0ff0 	ldmia.w	r0!, {r4, r5, r6, r7, r8, r9, sl, fp}
 80030aa:	f380 8809 	msr	PSP, r0
 80030ae:	f3bf 8f6f 	isb	sy
 80030b2:	f04f 0000 	mov.w	r0, #0
 80030b6:	f380 8811 	msr	BASEPRI, r0
 80030ba:	f04e 0e0d 	orr.w	lr, lr, #13
 80030be:	4770      	bx	lr

080030c0 <pxCurrentTCBConst2>:
 80030c0:	20004374 	.word	0x20004374

080030c4 <vPortEnterCritical>:
 80030c4:	f04f 0350 	mov.w	r3, #80	; 0x50
 80030c8:	f383 8811 	msr	BASEPRI, r3
 80030cc:	f3bf 8f6f 	isb	sy
 80030d0:	f3bf 8f4f 	dsb	sy
/*-----------------------------------------------------------*/

void vPortEnterCritical( void )
{
	portDISABLE_INTERRUPTS();
	uxCriticalNesting++;
 80030d4:	4a0a      	ldr	r2, [pc, #40]	; (8003100 <vPortEnterCritical+0x3c>)
 80030d6:	6813      	ldr	r3, [r2, #0]
 80030d8:	3301      	adds	r3, #1
	/* This is not the interrupt safe version of the enter critical function so
	assert() if it is being called from an interrupt context.  Only API
	functions that end in "FromISR" can be used in an interrupt.  Only assert if
	the critical nesting count is 1 to protect against recursive calls if the
	assert function also uses a critical section. */
	if( uxCriticalNesting == 1 )
 80030da:	2b01      	cmp	r3, #1
	uxCriticalNesting++;
 80030dc:	6013      	str	r3, [r2, #0]
	if( uxCriticalNesting == 1 )
 80030de:	d10d      	bne.n	80030fc <vPortEnterCritical+0x38>
	{
		configASSERT( ( portNVIC_INT_CTRL_REG & portVECTACTIVE_MASK ) == 0 );
 80030e0:	4b08      	ldr	r3, [pc, #32]	; (8003104 <vPortEnterCritical+0x40>)
 80030e2:	681b      	ldr	r3, [r3, #0]
 80030e4:	f013 0fff 	tst.w	r3, #255	; 0xff
 80030e8:	d008      	beq.n	80030fc <vPortEnterCritical+0x38>
 80030ea:	f04f 0350 	mov.w	r3, #80	; 0x50
 80030ee:	f383 8811 	msr	BASEPRI, r3
 80030f2:	f3bf 8f6f 	isb	sy
 80030f6:	f3bf 8f4f 	dsb	sy
 80030fa:	e7fe      	b.n	80030fa <vPortEnterCritical+0x36>
 80030fc:	4770      	bx	lr
 80030fe:	bf00      	nop
 8003100:	20000014 	.word	0x20000014
 8003104:	e000ed04 	.word	0xe000ed04

08003108 <vPortExitCritical>:
}
/*-----------------------------------------------------------*/

void vPortExitCritical( void )
{
	configASSERT( uxCriticalNesting );
 8003108:	4a08      	ldr	r2, [pc, #32]	; (800312c <vPortExitCritical+0x24>)
 800310a:	6813      	ldr	r3, [r2, #0]
 800310c:	b943      	cbnz	r3, 8003120 <vPortExitCritical+0x18>
 800310e:	f04f 0350 	mov.w	r3, #80	; 0x50
 8003112:	f383 8811 	msr	BASEPRI, r3
 8003116:	f3bf 8f6f 	isb	sy
 800311a:	f3bf 8f4f 	dsb	sy
 800311e:	e7fe      	b.n	800311e <vPortExitCritical+0x16>
	uxCriticalNesting--;
 8003120:	3b01      	subs	r3, #1
 8003122:	6013      	str	r3, [r2, #0]
	if( uxCriticalNesting == 0 )
 8003124:	b90b      	cbnz	r3, 800312a <vPortExitCritical+0x22>
}
/*-----------------------------------------------------------*/

portFORCE_INLINE static void vPortSetBASEPRI( uint32_t ulNewMaskValue )
{
	__asm volatile
 8003126:	f383 8811 	msr	BASEPRI, r3
 800312a:	4770      	bx	lr
 800312c:	20000014 	.word	0x20000014

08003130 <PendSV_Handler>:

void xPortPendSVHandler( void )
{
	/* This is a naked function. */

	__asm volatile
 8003130:	f3ef 8009 	mrs	r0, PSP
 8003134:	f3bf 8f6f 	isb	sy
 8003138:	4b0d      	ldr	r3, [pc, #52]	; (8003170 <pxCurrentTCBConst>)
 800313a:	681a      	ldr	r2, [r3, #0]
 800313c:	e920 0ff0 	stmdb	r0!, {r4, r5, r6, r7, r8, r9, sl, fp}
 8003140:	6010      	str	r0, [r2, #0]
 8003142:	e92d 4008 	stmdb	sp!, {r3, lr}
 8003146:	f04f 0050 	mov.w	r0, #80	; 0x50
 800314a:	f380 8811 	msr	BASEPRI, r0
 800314e:	f000 ffcf 	bl	80040f0 <vTaskSwitchContext>
 8003152:	f04f 0000 	mov.w	r0, #0
 8003156:	f380 8811 	msr	BASEPRI, r0
 800315a:	e8bd 4008 	ldmia.w	sp!, {r3, lr}
 800315e:	6819      	ldr	r1, [r3, #0]
 8003160:	6808      	ldr	r0, [r1, #0]
 8003162:	e8b0 0ff0 	ldmia.w	r0!, {r4, r5, r6, r7, r8, r9, sl, fp}
 8003166:	f380 8809 	msr	PSP, r0
 800316a:	f3bf 8f6f 	isb	sy
 800316e:	4770      	bx	lr

08003170 <pxCurrentTCBConst>:
 8003170:	20004374 	.word	0x20004374

08003174 <xPortSysTickHandler>:
	);
}
/*-----------------------------------------------------------*/

void xPortSysTickHandler( void )
{
 8003174:	b508      	push	{r3, lr}
	__asm volatile
 8003176:	f04f 0350 	mov.w	r3, #80	; 0x50
 800317a:	f383 8811 	msr	BASEPRI, r3
 800317e:	f3bf 8f6f 	isb	sy
 8003182:	f3bf 8f4f 	dsb	sy
	save and then restore the interrupt mask value as its value is already
	known. */
	portDISABLE_INTERRUPTS();
	{
		/* Increment the RTOS tick. */
		if( xTaskIncrementTick() != pdFALSE )
 8003186:	f000 fe85 	bl	8003e94 <xTaskIncrementTick>
 800318a:	b118      	cbz	r0, 8003194 <xPortSysTickHandler+0x20>
		{
			/* A context switch is required.  Context switching is performed in
			the PendSV interrupt.  Pend the PendSV interrupt. */
			portNVIC_INT_CTRL_REG = portNVIC_PENDSVSET_BIT;
 800318c:	f04f 5280 	mov.w	r2, #268435456	; 0x10000000
 8003190:	4b02      	ldr	r3, [pc, #8]	; (800319c <xPortSysTickHandler+0x28>)
 8003192:	601a      	str	r2, [r3, #0]
	__asm volatile
 8003194:	2300      	movs	r3, #0
 8003196:	f383 8811 	msr	BASEPRI, r3
 800319a:	bd08      	pop	{r3, pc}
 800319c:	e000ed04 	.word	0xe000ed04

080031a0 <vPortSetupTimerInterrupt>:
		ulStoppedTimerCompensation = portMISSED_COUNTS_FACTOR / ( configCPU_CLOCK_HZ / configSYSTICK_CLOCK_HZ );
	}
	#endif /* configUSE_TICKLESS_IDLE */

	/* Stop and clear the SysTick. */
	portNVIC_SYSTICK_CTRL_REG = 0UL;
 80031a0:	2200      	movs	r2, #0
 80031a2:	4b05      	ldr	r3, [pc, #20]	; (80031b8 <vPortSetupTimerInterrupt+0x18>)
	portNVIC_SYSTICK_CURRENT_VALUE_REG = 0UL;
 80031a4:	4905      	ldr	r1, [pc, #20]	; (80031bc <vPortSetupTimerInterrupt+0x1c>)
	portNVIC_SYSTICK_CTRL_REG = 0UL;
 80031a6:	601a      	str	r2, [r3, #0]
	portNVIC_SYSTICK_CURRENT_VALUE_REG = 0UL;
 80031a8:	600a      	str	r2, [r1, #0]

	/* Configure SysTick to interrupt at the requested rate. */
	portNVIC_SYSTICK_LOAD_REG = ( configSYSTICK_CLOCK_HZ / configTICK_RATE_HZ ) - 1UL;
 80031aa:	4a05      	ldr	r2, [pc, #20]	; (80031c0 <vPortSetupTimerInterrupt+0x20>)
 80031ac:	4905      	ldr	r1, [pc, #20]	; (80031c4 <vPortSetupTimerInterrupt+0x24>)
 80031ae:	6011      	str	r1, [r2, #0]
	portNVIC_SYSTICK_CTRL_REG = ( portNVIC_SYSTICK_CLK_BIT | portNVIC_SYSTICK_INT_BIT | portNVIC_SYSTICK_ENABLE_BIT );
 80031b0:	2207      	movs	r2, #7
 80031b2:	601a      	str	r2, [r3, #0]
 80031b4:	4770      	bx	lr
 80031b6:	bf00      	nop
 80031b8:	e000e010 	.word	0xe000e010
 80031bc:	e000e018 	.word	0xe000e018
 80031c0:	e000e014 	.word	0xe000e014
 80031c4:	0001193f 	.word	0x0001193f

080031c8 <xPortStartScheduler>:
{
 80031c8:	b513      	push	{r0, r1, r4, lr}
		ulOriginalPriority = *pucFirstUserPriorityRegister;
 80031ca:	4b27      	ldr	r3, [pc, #156]	; (8003268 <xPortStartScheduler+0xa0>)
		while( ( ucMaxPriorityValue & portTOP_BIT_OF_BYTE ) == portTOP_BIT_OF_BYTE )
 80031cc:	2100      	movs	r1, #0
		ulOriginalPriority = *pucFirstUserPriorityRegister;
 80031ce:	781a      	ldrb	r2, [r3, #0]
 80031d0:	b2d2      	uxtb	r2, r2
 80031d2:	9201      	str	r2, [sp, #4]
		*pucFirstUserPriorityRegister = portMAX_8_BIT_VALUE;
 80031d4:	22ff      	movs	r2, #255	; 0xff
 80031d6:	701a      	strb	r2, [r3, #0]
		ucMaxPriorityValue = *pucFirstUserPriorityRegister;
 80031d8:	781b      	ldrb	r3, [r3, #0]
		ucMaxSysCallPriority = configMAX_SYSCALL_INTERRUPT_PRIORITY & ucMaxPriorityValue;
 80031da:	4a24      	ldr	r2, [pc, #144]	; (800326c <xPortStartScheduler+0xa4>)
		ucMaxPriorityValue = *pucFirstUserPriorityRegister;
 80031dc:	b2db      	uxtb	r3, r3
 80031de:	f88d 3003 	strb.w	r3, [sp, #3]
		ucMaxSysCallPriority = configMAX_SYSCALL_INTERRUPT_PRIORITY & ucMaxPriorityValue;
 80031e2:	f89d 3003 	ldrb.w	r3, [sp, #3]
 80031e6:	f003 0350 	and.w	r3, r3, #80	; 0x50
 80031ea:	7013      	strb	r3, [r2, #0]
		ulMaxPRIGROUPValue = portMAX_PRIGROUP_BITS;
 80031ec:	2207      	movs	r2, #7
 80031ee:	4b20      	ldr	r3, [pc, #128]	; (8003270 <xPortStartScheduler+0xa8>)
 80031f0:	601a      	str	r2, [r3, #0]
		while( ( ucMaxPriorityValue & portTOP_BIT_OF_BYTE ) == portTOP_BIT_OF_BYTE )
 80031f2:	f89d 0003 	ldrb.w	r0, [sp, #3]
 80031f6:	1e54      	subs	r4, r2, #1
 80031f8:	0600      	lsls	r0, r0, #24
 80031fa:	d40d      	bmi.n	8003218 <xPortStartScheduler+0x50>
 80031fc:	b101      	cbz	r1, 8003200 <xPortStartScheduler+0x38>
 80031fe:	601a      	str	r2, [r3, #0]
			configASSERT( ( portMAX_PRIGROUP_BITS - ulMaxPRIGROUPValue ) == configPRIO_BITS );
 8003200:	681a      	ldr	r2, [r3, #0]
 8003202:	2a03      	cmp	r2, #3
 8003204:	d011      	beq.n	800322a <xPortStartScheduler+0x62>
	__asm volatile
 8003206:	f04f 0350 	mov.w	r3, #80	; 0x50
 800320a:	f383 8811 	msr	BASEPRI, r3
 800320e:	f3bf 8f6f 	isb	sy
 8003212:	f3bf 8f4f 	dsb	sy
 8003216:	e7fe      	b.n	8003216 <xPortStartScheduler+0x4e>
			ucMaxPriorityValue <<= ( uint8_t ) 0x01;
 8003218:	f89d 2003 	ldrb.w	r2, [sp, #3]
 800321c:	2101      	movs	r1, #1
 800321e:	0052      	lsls	r2, r2, #1
 8003220:	b2d2      	uxtb	r2, r2
 8003222:	f88d 2003 	strb.w	r2, [sp, #3]
 8003226:	4622      	mov	r2, r4
 8003228:	e7e3      	b.n	80031f2 <xPortStartScheduler+0x2a>
	uxCriticalNesting = 0;
 800322a:	2400      	movs	r4, #0
		ulMaxPRIGROUPValue <<= portPRIGROUP_SHIFT;
 800322c:	0212      	lsls	r2, r2, #8
		ulMaxPRIGROUPValue &= portPRIORITY_GROUP_MASK;
 800322e:	f402 62e0 	and.w	r2, r2, #1792	; 0x700
 8003232:	601a      	str	r2, [r3, #0]
		*pucFirstUserPriorityRegister = ulOriginalPriority;
 8003234:	9b01      	ldr	r3, [sp, #4]
 8003236:	4a0c      	ldr	r2, [pc, #48]	; (8003268 <xPortStartScheduler+0xa0>)
 8003238:	b2db      	uxtb	r3, r3
 800323a:	7013      	strb	r3, [r2, #0]
	portNVIC_SYSPRI2_REG |= portNVIC_PENDSV_PRI;
 800323c:	4b0d      	ldr	r3, [pc, #52]	; (8003274 <xPortStartScheduler+0xac>)
 800323e:	681a      	ldr	r2, [r3, #0]
 8003240:	f442 0270 	orr.w	r2, r2, #15728640	; 0xf00000
 8003244:	601a      	str	r2, [r3, #0]
	portNVIC_SYSPRI2_REG |= portNVIC_SYSTICK_PRI;
 8003246:	681a      	ldr	r2, [r3, #0]
 8003248:	f042 4270 	orr.w	r2, r2, #4026531840	; 0xf0000000
 800324c:	601a      	str	r2, [r3, #0]
	vPortSetupTimerInterrupt();
 800324e:	f7ff ffa7 	bl	80031a0 <vPortSetupTimerInterrupt>
	uxCriticalNesting = 0;
 8003252:	4b09      	ldr	r3, [pc, #36]	; (8003278 <xPortStartScheduler+0xb0>)
 8003254:	601c      	str	r4, [r3, #0]
	prvPortStartFirstTask();
 8003256:	f7ff ff01 	bl	800305c <prvPortStartFirstTask>
	vTaskSwitchContext();
 800325a:	f000 ff49 	bl	80040f0 <vTaskSwitchContext>
	prvTaskExitError();
 800325e:	f7ff fedd 	bl	800301c <prvTaskExitError>
}
 8003262:	4620      	mov	r0, r4
 8003264:	b002      	add	sp, #8
 8003266:	bd10      	pop	{r4, pc}
 8003268:	e000e400 	.word	0xe000e400
 800326c:	20002754 	.word	0x20002754
 8003270:	20002758 	.word	0x20002758
 8003274:	e000ed20 	.word	0xe000ed20
 8003278:	20000014 	.word	0x20000014

0800327c <vPortValidateInterruptPriority>:
	{
	uint32_t ulCurrentInterrupt;
	uint8_t ucCurrentPriority;

		/* Obtain the number of the currently executing interrupt. */
		__asm volatile( "mrs %0, ipsr" : "=r"( ulCurrentInterrupt ) :: "memory" );
 800327c:	f3ef 8305 	mrs	r3, IPSR

		/* Is the interrupt number a user defined interrupt? */
		if( ulCurrentInterrupt >= portFIRST_USER_INTERRUPT_NUMBER )
 8003280:	2b0f      	cmp	r3, #15
 8003282:	d90e      	bls.n	80032a2 <vPortValidateInterruptPriority+0x26>
		{
			/* Look up the interrupt's priority. */
			ucCurrentPriority = pcInterruptPriorityRegisters[ ulCurrentInterrupt ];
 8003284:	4a10      	ldr	r2, [pc, #64]	; (80032c8 <vPortValidateInterruptPriority+0x4c>)
 8003286:	5c9b      	ldrb	r3, [r3, r2]
			interrupt entry is as fast and simple as possible.

			The following links provide detailed information:
			http://www.freertos.org/RTOS-Cortex-M3-M4.html
			http://www.freertos.org/FAQHelp.html */
			configASSERT( ucCurrentPriority >= ucMaxSysCallPriority );
 8003288:	4a10      	ldr	r2, [pc, #64]	; (80032cc <vPortValidateInterruptPriority+0x50>)
 800328a:	7812      	ldrb	r2, [r2, #0]
 800328c:	429a      	cmp	r2, r3
 800328e:	d908      	bls.n	80032a2 <vPortValidateInterruptPriority+0x26>
 8003290:	f04f 0350 	mov.w	r3, #80	; 0x50
 8003294:	f383 8811 	msr	BASEPRI, r3
 8003298:	f3bf 8f6f 	isb	sy
 800329c:	f3bf 8f4f 	dsb	sy
 80032a0:	e7fe      	b.n	80032a0 <vPortValidateInterruptPriority+0x24>
		configuration then the correct setting can be achieved on all Cortex-M
		devices by calling NVIC_SetPriorityGrouping( 0 ); before starting the
		scheduler.  Note however that some vendor specific peripheral libraries
		assume a non-zero priority group setting, in which cases using a value
		of zero will result in unpredictable behaviour. */
		configASSERT( ( portAIRCR_REG & portPRIORITY_GROUP_MASK ) <= ulMaxPRIGROUPValue );
 80032a2:	4b0b      	ldr	r3, [pc, #44]	; (80032d0 <vPortValidateInterruptPriority+0x54>)
 80032a4:	4a0b      	ldr	r2, [pc, #44]	; (80032d4 <vPortValidateInterruptPriority+0x58>)
 80032a6:	681b      	ldr	r3, [r3, #0]
 80032a8:	6812      	ldr	r2, [r2, #0]
 80032aa:	f403 63e0 	and.w	r3, r3, #1792	; 0x700
 80032ae:	4293      	cmp	r3, r2
 80032b0:	d908      	bls.n	80032c4 <vPortValidateInterruptPriority+0x48>
 80032b2:	f04f 0350 	mov.w	r3, #80	; 0x50
 80032b6:	f383 8811 	msr	BASEPRI, r3
 80032ba:	f3bf 8f6f 	isb	sy
 80032be:	f3bf 8f4f 	dsb	sy
 80032c2:	e7fe      	b.n	80032c2 <vPortValidateInterruptPriority+0x46>
 80032c4:	4770      	bx	lr
 80032c6:	bf00      	nop
 80032c8:	e000e3f0 	.word	0xe000e3f0
 80032cc:	20002754 	.word	0x20002754
 80032d0:	e000ed0c 	.word	0xe000ed0c
 80032d4:	20002758 	.word	0x20002758

080032d8 <prvInsertBlockIntoFreeList>:
	xBlockAllocatedBit = ( ( size_t ) 1 ) << ( ( sizeof( size_t ) * heapBITS_PER_BYTE ) - 1 );
}
/*-----------------------------------------------------------*/

static void prvInsertBlockIntoFreeList( BlockLink_t *pxBlockToInsert )
{
 80032d8:	b510      	push	{r4, lr}
BlockLink_t *pxIterator;
uint8_t *puc;

	/* Iterate through the list until a block is found that has a higher address
	than the block being inserted. */
	for( pxIterator = &xStart; pxIterator->pxNextFreeBlock < pxBlockToInsert; pxIterator = pxIterator->pxNextFreeBlock )
 80032da:	4b0f      	ldr	r3, [pc, #60]	; (8003318 <prvInsertBlockIntoFreeList+0x40>)
 80032dc:	681a      	ldr	r2, [r3, #0]
 80032de:	4282      	cmp	r2, r0
 80032e0:	d318      	bcc.n	8003314 <prvInsertBlockIntoFreeList+0x3c>
	}

	/* Do the block being inserted, and the block it is being inserted after
	make a contiguous block of memory? */
	puc = ( uint8_t * ) pxIterator;
	if( ( puc + pxIterator->xBlockSize ) == ( uint8_t * ) pxBlockToInsert )
 80032e2:	685c      	ldr	r4, [r3, #4]
 80032e4:	1919      	adds	r1, r3, r4
 80032e6:	4288      	cmp	r0, r1
	{
		pxIterator->xBlockSize += pxBlockToInsert->xBlockSize;
 80032e8:	bf01      	itttt	eq
 80032ea:	6841      	ldreq	r1, [r0, #4]
 80032ec:	4618      	moveq	r0, r3
 80032ee:	1909      	addeq	r1, r1, r4
 80032f0:	6059      	streq	r1, [r3, #4]
	}

	/* Do the block being inserted, and the block it is being inserted before
	make a contiguous block of memory? */
	puc = ( uint8_t * ) pxBlockToInsert;
	if( ( puc + pxBlockToInsert->xBlockSize ) == ( uint8_t * ) pxIterator->pxNextFreeBlock )
 80032f2:	6844      	ldr	r4, [r0, #4]
 80032f4:	1901      	adds	r1, r0, r4
 80032f6:	428a      	cmp	r2, r1
 80032f8:	d107      	bne.n	800330a <prvInsertBlockIntoFreeList+0x32>
	{
		if( pxIterator->pxNextFreeBlock != pxEnd )
 80032fa:	4908      	ldr	r1, [pc, #32]	; (800331c <prvInsertBlockIntoFreeList+0x44>)
 80032fc:	6809      	ldr	r1, [r1, #0]
 80032fe:	428a      	cmp	r2, r1
		{
			/* Form one big block from the two blocks. */
			pxBlockToInsert->xBlockSize += pxIterator->pxNextFreeBlock->xBlockSize;
 8003300:	bf1f      	itttt	ne
 8003302:	6851      	ldrne	r1, [r2, #4]
			pxBlockToInsert->pxNextFreeBlock = pxIterator->pxNextFreeBlock->pxNextFreeBlock;
 8003304:	6812      	ldrne	r2, [r2, #0]
			pxBlockToInsert->xBlockSize += pxIterator->pxNextFreeBlock->xBlockSize;
 8003306:	1909      	addne	r1, r1, r4
 8003308:	6041      	strne	r1, [r0, #4]

	/* If the block being inserted plugged a gab, so was merged with the block
	before and the block after, then it's pxNextFreeBlock pointer will have
	already been set, and should not be set here as that would make it point
	to itself. */
	if( pxIterator != pxBlockToInsert )
 800330a:	4298      	cmp	r0, r3
		pxBlockToInsert->pxNextFreeBlock = pxIterator->pxNextFreeBlock;
 800330c:	6002      	str	r2, [r0, #0]
	{
		pxIterator->pxNextFreeBlock = pxBlockToInsert;
 800330e:	bf18      	it	ne
 8003310:	6018      	strne	r0, [r3, #0]
 8003312:	bd10      	pop	{r4, pc}
 8003314:	4613      	mov	r3, r2
 8003316:	e7e1      	b.n	80032dc <prvInsertBlockIntoFreeList+0x4>
 8003318:	2000436c 	.word	0x2000436c
 800331c:	2000275c 	.word	0x2000275c

08003320 <pvPortMalloc>:
{
 8003320:	e92d 41f0 	stmdb	sp!, {r4, r5, r6, r7, r8, lr}
 8003324:	4604      	mov	r4, r0
	vTaskSuspendAll();
 8003326:	f000 fda7 	bl	8003e78 <vTaskSuspendAll>
		if( pxEnd == NULL )
 800332a:	493e      	ldr	r1, [pc, #248]	; (8003424 <pvPortMalloc+0x104>)
 800332c:	4d3e      	ldr	r5, [pc, #248]	; (8003428 <pvPortMalloc+0x108>)
 800332e:	680b      	ldr	r3, [r1, #0]
 8003330:	bb0b      	cbnz	r3, 8003376 <pvPortMalloc+0x56>
	uxAddress = ( size_t ) ucHeap;
 8003332:	4a3e      	ldr	r2, [pc, #248]	; (800342c <pvPortMalloc+0x10c>)
	if( ( uxAddress & portBYTE_ALIGNMENT_MASK ) != 0 )
 8003334:	0756      	lsls	r6, r2, #29
		uxAddress += ( portBYTE_ALIGNMENT - 1 );
 8003336:	bf1d      	ittte	ne
 8003338:	1dd0      	addne	r0, r2, #7
		uxAddress &= ~( ( size_t ) portBYTE_ALIGNMENT_MASK );
 800333a:	f020 0007 	bicne.w	r0, r0, #7
		xTotalHeapSize -= uxAddress - ( size_t ) ucHeap;
 800333e:	f502 53e0 	addne.w	r3, r2, #7168	; 0x1c00
size_t xTotalHeapSize = configTOTAL_HEAP_SIZE;
 8003342:	f44f 53e0 	moveq.w	r3, #7168	; 0x1c00
		uxAddress &= ~( ( size_t ) portBYTE_ALIGNMENT_MASK );
 8003346:	bf1c      	itt	ne
 8003348:	4602      	movne	r2, r0
		xTotalHeapSize -= uxAddress - ( size_t ) ucHeap;
 800334a:	1a1b      	subne	r3, r3, r0
	xStart.xBlockSize = ( size_t ) 0;
 800334c:	2000      	movs	r0, #0
	uxAddress = ( ( size_t ) pucAlignedHeap ) + xTotalHeapSize;
 800334e:	4413      	add	r3, r2
	xStart.pxNextFreeBlock = ( void * ) pucAlignedHeap;
 8003350:	4e37      	ldr	r6, [pc, #220]	; (8003430 <pvPortMalloc+0x110>)
	uxAddress -= xHeapStructSize;
 8003352:	3b08      	subs	r3, #8
	uxAddress &= ~( ( size_t ) portBYTE_ALIGNMENT_MASK );
 8003354:	f023 0307 	bic.w	r3, r3, #7
	xStart.xBlockSize = ( size_t ) 0;
 8003358:	6070      	str	r0, [r6, #4]
	xStart.pxNextFreeBlock = ( void * ) pucAlignedHeap;
 800335a:	6032      	str	r2, [r6, #0]
	pxEnd->xBlockSize = 0;
 800335c:	6058      	str	r0, [r3, #4]
	pxEnd->pxNextFreeBlock = NULL;
 800335e:	6018      	str	r0, [r3, #0]
	pxEnd = ( void * ) uxAddress;
 8003360:	600b      	str	r3, [r1, #0]
	pxFirstFreeBlock->xBlockSize = uxAddress - ( size_t ) pxFirstFreeBlock;
 8003362:	1a98      	subs	r0, r3, r2
	pxFirstFreeBlock->pxNextFreeBlock = pxEnd;
 8003364:	6013      	str	r3, [r2, #0]
	xMinimumEverFreeBytesRemaining = pxFirstFreeBlock->xBlockSize;
 8003366:	4b33      	ldr	r3, [pc, #204]	; (8003434 <pvPortMalloc+0x114>)
	pxFirstFreeBlock->xBlockSize = uxAddress - ( size_t ) pxFirstFreeBlock;
 8003368:	6050      	str	r0, [r2, #4]
	xMinimumEverFreeBytesRemaining = pxFirstFreeBlock->xBlockSize;
 800336a:	6018      	str	r0, [r3, #0]
	xFreeBytesRemaining = pxFirstFreeBlock->xBlockSize;
 800336c:	4b32      	ldr	r3, [pc, #200]	; (8003438 <pvPortMalloc+0x118>)
 800336e:	6018      	str	r0, [r3, #0]
	xBlockAllocatedBit = ( ( size_t ) 1 ) << ( ( sizeof( size_t ) * heapBITS_PER_BYTE ) - 1 );
 8003370:	f04f 4300 	mov.w	r3, #2147483648	; 0x80000000
 8003374:	602b      	str	r3, [r5, #0]
		if( ( xWantedSize & xBlockAllocatedBit ) == 0 )
 8003376:	682f      	ldr	r7, [r5, #0]
 8003378:	4227      	tst	r7, r4
 800337a:	d116      	bne.n	80033aa <pvPortMalloc+0x8a>
			if( xWantedSize > 0 )
 800337c:	2c00      	cmp	r4, #0
 800337e:	d040      	beq.n	8003402 <pvPortMalloc+0xe2>
				xWantedSize += xHeapStructSize;
 8003380:	f104 0308 	add.w	r3, r4, #8
				if( ( xWantedSize & portBYTE_ALIGNMENT_MASK ) != 0x00 )
 8003384:	0758      	lsls	r0, r3, #29
					xWantedSize += ( portBYTE_ALIGNMENT - ( xWantedSize & portBYTE_ALIGNMENT_MASK ) );
 8003386:	bf1c      	itt	ne
 8003388:	f023 0307 	bicne.w	r3, r3, #7
 800338c:	3308      	addne	r3, #8
			if( ( xWantedSize > 0 ) && ( xWantedSize <= xFreeBytesRemaining ) )
 800338e:	b163      	cbz	r3, 80033aa <pvPortMalloc+0x8a>
 8003390:	4a29      	ldr	r2, [pc, #164]	; (8003438 <pvPortMalloc+0x118>)
 8003392:	6816      	ldr	r6, [r2, #0]
 8003394:	4690      	mov	r8, r2
 8003396:	42b3      	cmp	r3, r6
 8003398:	d807      	bhi.n	80033aa <pvPortMalloc+0x8a>
				pxBlock = xStart.pxNextFreeBlock;
 800339a:	4a25      	ldr	r2, [pc, #148]	; (8003430 <pvPortMalloc+0x110>)
 800339c:	6815      	ldr	r5, [r2, #0]
				while( ( pxBlock->xBlockSize < xWantedSize ) && ( pxBlock->pxNextFreeBlock != NULL ) )
 800339e:	6868      	ldr	r0, [r5, #4]
 80033a0:	4283      	cmp	r3, r0
 80033a2:	d804      	bhi.n	80033ae <pvPortMalloc+0x8e>
				if( pxBlock != pxEnd )
 80033a4:	6809      	ldr	r1, [r1, #0]
 80033a6:	428d      	cmp	r5, r1
 80033a8:	d107      	bne.n	80033ba <pvPortMalloc+0x9a>
void *pvReturn = NULL;
 80033aa:	2400      	movs	r4, #0
 80033ac:	e029      	b.n	8003402 <pvPortMalloc+0xe2>
				while( ( pxBlock->xBlockSize < xWantedSize ) && ( pxBlock->pxNextFreeBlock != NULL ) )
 80033ae:	682c      	ldr	r4, [r5, #0]
 80033b0:	2c00      	cmp	r4, #0
 80033b2:	d0f7      	beq.n	80033a4 <pvPortMalloc+0x84>
 80033b4:	462a      	mov	r2, r5
 80033b6:	4625      	mov	r5, r4
 80033b8:	e7f1      	b.n	800339e <pvPortMalloc+0x7e>
					pxPreviousBlock->pxNextFreeBlock = pxBlock->pxNextFreeBlock;
 80033ba:	6829      	ldr	r1, [r5, #0]
					pvReturn = ( void * ) ( ( ( uint8_t * ) pxPreviousBlock->pxNextFreeBlock ) + xHeapStructSize );
 80033bc:	6814      	ldr	r4, [r2, #0]
					pxPreviousBlock->pxNextFreeBlock = pxBlock->pxNextFreeBlock;
 80033be:	6011      	str	r1, [r2, #0]
					if( ( pxBlock->xBlockSize - xWantedSize ) > heapMINIMUM_BLOCK_SIZE )
 80033c0:	1ac2      	subs	r2, r0, r3
 80033c2:	2a10      	cmp	r2, #16
 80033c4:	d90f      	bls.n	80033e6 <pvPortMalloc+0xc6>
						pxNewBlockLink = ( void * ) ( ( ( uint8_t * ) pxBlock ) + xWantedSize );
 80033c6:	18e8      	adds	r0, r5, r3
						configASSERT( ( ( ( size_t ) pxNewBlockLink ) & portBYTE_ALIGNMENT_MASK ) == 0 );
 80033c8:	0741      	lsls	r1, r0, #29
 80033ca:	d008      	beq.n	80033de <pvPortMalloc+0xbe>
 80033cc:	f04f 0350 	mov.w	r3, #80	; 0x50
 80033d0:	f383 8811 	msr	BASEPRI, r3
 80033d4:	f3bf 8f6f 	isb	sy
 80033d8:	f3bf 8f4f 	dsb	sy
 80033dc:	e7fe      	b.n	80033dc <pvPortMalloc+0xbc>
						pxNewBlockLink->xBlockSize = pxBlock->xBlockSize - xWantedSize;
 80033de:	6042      	str	r2, [r0, #4]
						pxBlock->xBlockSize = xWantedSize;
 80033e0:	606b      	str	r3, [r5, #4]
						prvInsertBlockIntoFreeList( pxNewBlockLink );
 80033e2:	f7ff ff79 	bl	80032d8 <prvInsertBlockIntoFreeList>
					xFreeBytesRemaining -= pxBlock->xBlockSize;
 80033e6:	686b      	ldr	r3, [r5, #4]
					if( xFreeBytesRemaining < xMinimumEverFreeBytesRemaining )
 80033e8:	4912      	ldr	r1, [pc, #72]	; (8003434 <pvPortMalloc+0x114>)
					xFreeBytesRemaining -= pxBlock->xBlockSize;
 80033ea:	1af6      	subs	r6, r6, r3
					pxBlock->xBlockSize |= xBlockAllocatedBit;
 80033ec:	431f      	orrs	r7, r3
					pxBlock->pxNextFreeBlock = NULL;
 80033ee:	2300      	movs	r3, #0
					if( xFreeBytesRemaining < xMinimumEverFreeBytesRemaining )
 80033f0:	6808      	ldr	r0, [r1, #0]
					xFreeBytesRemaining -= pxBlock->xBlockSize;
 80033f2:	f8c8 6000 	str.w	r6, [r8]
					if( xFreeBytesRemaining < xMinimumEverFreeBytesRemaining )
 80033f6:	4286      	cmp	r6, r0
						xMinimumEverFreeBytesRemaining = xFreeBytesRemaining;
 80033f8:	bf38      	it	cc
 80033fa:	600e      	strcc	r6, [r1, #0]
					pvReturn = ( void * ) ( ( ( uint8_t * ) pxPreviousBlock->pxNextFreeBlock ) + xHeapStructSize );
 80033fc:	3408      	adds	r4, #8
					pxBlock->xBlockSize |= xBlockAllocatedBit;
 80033fe:	606f      	str	r7, [r5, #4]
					pxBlock->pxNextFreeBlock = NULL;
 8003400:	602b      	str	r3, [r5, #0]
	( void ) xTaskResumeAll();
 8003402:	f000 fdd9 	bl	8003fb8 <xTaskResumeAll>
	configASSERT( ( ( ( size_t ) pvReturn ) & ( size_t ) portBYTE_ALIGNMENT_MASK ) == 0 );
 8003406:	0763      	lsls	r3, r4, #29
 8003408:	d008      	beq.n	800341c <pvPortMalloc+0xfc>
 800340a:	f04f 0350 	mov.w	r3, #80	; 0x50
 800340e:	f383 8811 	msr	BASEPRI, r3
 8003412:	f3bf 8f6f 	isb	sy
 8003416:	f3bf 8f4f 	dsb	sy
 800341a:	e7fe      	b.n	800341a <pvPortMalloc+0xfa>
}
 800341c:	4620      	mov	r0, r4
 800341e:	e8bd 81f0 	ldmia.w	sp!, {r4, r5, r6, r7, r8, pc}
 8003422:	bf00      	nop
 8003424:	2000275c 	.word	0x2000275c
 8003428:	20004360 	.word	0x20004360
 800342c:	20002760 	.word	0x20002760
 8003430:	2000436c 	.word	0x2000436c
 8003434:	20004368 	.word	0x20004368
 8003438:	20004364 	.word	0x20004364

0800343c <vPortFree>:
{
 800343c:	b510      	push	{r4, lr}
	if( pv != NULL )
 800343e:	4604      	mov	r4, r0
 8003440:	b370      	cbz	r0, 80034a0 <vPortFree+0x64>
		configASSERT( ( pxLink->xBlockSize & xBlockAllocatedBit ) != 0 );
 8003442:	4a18      	ldr	r2, [pc, #96]	; (80034a4 <vPortFree+0x68>)
 8003444:	f850 3c04 	ldr.w	r3, [r0, #-4]
 8003448:	6812      	ldr	r2, [r2, #0]
 800344a:	4213      	tst	r3, r2
 800344c:	d108      	bne.n	8003460 <vPortFree+0x24>
 800344e:	f04f 0350 	mov.w	r3, #80	; 0x50
 8003452:	f383 8811 	msr	BASEPRI, r3
 8003456:	f3bf 8f6f 	isb	sy
 800345a:	f3bf 8f4f 	dsb	sy
 800345e:	e7fe      	b.n	800345e <vPortFree+0x22>
		configASSERT( pxLink->pxNextFreeBlock == NULL );
 8003460:	f850 1c08 	ldr.w	r1, [r0, #-8]
 8003464:	b141      	cbz	r1, 8003478 <vPortFree+0x3c>
 8003466:	f04f 0350 	mov.w	r3, #80	; 0x50
 800346a:	f383 8811 	msr	BASEPRI, r3
 800346e:	f3bf 8f6f 	isb	sy
 8003472:	f3bf 8f4f 	dsb	sy
 8003476:	e7fe      	b.n	8003476 <vPortFree+0x3a>
				pxLink->xBlockSize &= ~xBlockAllocatedBit;
 8003478:	ea23 0302 	bic.w	r3, r3, r2
 800347c:	f840 3c04 	str.w	r3, [r0, #-4]
				vTaskSuspendAll();
 8003480:	f000 fcfa 	bl	8003e78 <vTaskSuspendAll>
					xFreeBytesRemaining += pxLink->xBlockSize;
 8003484:	4a08      	ldr	r2, [pc, #32]	; (80034a8 <vPortFree+0x6c>)
 8003486:	f854 3c04 	ldr.w	r3, [r4, #-4]
 800348a:	6811      	ldr	r1, [r2, #0]
					prvInsertBlockIntoFreeList( ( ( BlockLink_t * ) pxLink ) );
 800348c:	f1a4 0008 	sub.w	r0, r4, #8
					xFreeBytesRemaining += pxLink->xBlockSize;
 8003490:	440b      	add	r3, r1
 8003492:	6013      	str	r3, [r2, #0]
					prvInsertBlockIntoFreeList( ( ( BlockLink_t * ) pxLink ) );
 8003494:	f7ff ff20 	bl	80032d8 <prvInsertBlockIntoFreeList>
}
 8003498:	e8bd 4010 	ldmia.w	sp!, {r4, lr}
				( void ) xTaskResumeAll();
 800349c:	f000 bd8c 	b.w	8003fb8 <xTaskResumeAll>
 80034a0:	bd10      	pop	{r4, pc}
 80034a2:	bf00      	nop
 80034a4:	20004360 	.word	0x20004360
 80034a8:	20004364 	.word	0x20004364

080034ac <prvIsQueueEmpty>:
	taskEXIT_CRITICAL();
}
/*-----------------------------------------------------------*/

static BaseType_t prvIsQueueEmpty( const Queue_t *pxQueue )
{
 80034ac:	b510      	push	{r4, lr}
 80034ae:	4604      	mov	r4, r0
BaseType_t xReturn;

	taskENTER_CRITICAL();
 80034b0:	f7ff fe08 	bl	80030c4 <vPortEnterCritical>
	{
		if( pxQueue->uxMessagesWaiting == ( UBaseType_t )  0 )
 80034b4:	6ba4      	ldr	r4, [r4, #56]	; 0x38
		else
		{
			xReturn = pdFALSE;
		}
	}
	taskEXIT_CRITICAL();
 80034b6:	f7ff fe27 	bl	8003108 <vPortExitCritical>

	return xReturn;
}
 80034ba:	fab4 f084 	clz	r0, r4
 80034be:	0940      	lsrs	r0, r0, #5
 80034c0:	bd10      	pop	{r4, pc}

080034c2 <prvCopyDataToQueue>:
{
 80034c2:	b570      	push	{r4, r5, r6, lr}
 80034c4:	4615      	mov	r5, r2
	if( pxQueue->uxItemSize == ( UBaseType_t ) 0 )
 80034c6:	6c02      	ldr	r2, [r0, #64]	; 0x40
{
 80034c8:	4604      	mov	r4, r0
	uxMessagesWaiting = pxQueue->uxMessagesWaiting;
 80034ca:	6b86      	ldr	r6, [r0, #56]	; 0x38
	if( pxQueue->uxItemSize == ( UBaseType_t ) 0 )
 80034cc:	b942      	cbnz	r2, 80034e0 <prvCopyDataToQueue+0x1e>
			if( pxQueue->uxQueueType == queueQUEUE_IS_MUTEX )
 80034ce:	6805      	ldr	r5, [r0, #0]
 80034d0:	b99d      	cbnz	r5, 80034fa <prvCopyDataToQueue+0x38>
				xReturn = xTaskPriorityDisinherit( ( void * ) pxQueue->pxMutexHolder );
 80034d2:	6840      	ldr	r0, [r0, #4]
 80034d4:	f000 fffc 	bl	80044d0 <xTaskPriorityDisinherit>
				pxQueue->pxMutexHolder = NULL;
 80034d8:	6065      	str	r5, [r4, #4]
	pxQueue->uxMessagesWaiting = uxMessagesWaiting + ( UBaseType_t ) 1;
 80034da:	3601      	adds	r6, #1
 80034dc:	63a6      	str	r6, [r4, #56]	; 0x38
}
 80034de:	bd70      	pop	{r4, r5, r6, pc}
	else if( xPosition == queueSEND_TO_BACK )
 80034e0:	b96d      	cbnz	r5, 80034fe <prvCopyDataToQueue+0x3c>
		( void ) memcpy( ( void * ) pxQueue->pcWriteTo, pvItemToQueue, ( size_t ) pxQueue->uxItemSize ); /*lint !e961 !e418 MISRA exception as the casts are only redundant for some ports, plus previous logic ensures a null pointer can only be passed to memcpy() if the copy size is 0. */
 80034e2:	6880      	ldr	r0, [r0, #8]
 80034e4:	f001 fe94 	bl	8005210 <memcpy>
		pxQueue->pcWriteTo += pxQueue->uxItemSize;
 80034e8:	68a3      	ldr	r3, [r4, #8]
 80034ea:	6c22      	ldr	r2, [r4, #64]	; 0x40
 80034ec:	4413      	add	r3, r2
		if( pxQueue->pcWriteTo >= pxQueue->pcTail ) /*lint !e946 MISRA exception justified as comparison of pointers is the cleanest solution. */
 80034ee:	6862      	ldr	r2, [r4, #4]
		pxQueue->pcWriteTo += pxQueue->uxItemSize;
 80034f0:	60a3      	str	r3, [r4, #8]
		if( pxQueue->pcWriteTo >= pxQueue->pcTail ) /*lint !e946 MISRA exception justified as comparison of pointers is the cleanest solution. */
 80034f2:	4293      	cmp	r3, r2
 80034f4:	d301      	bcc.n	80034fa <prvCopyDataToQueue+0x38>
			pxQueue->pcWriteTo = pxQueue->pcHead;
 80034f6:	6823      	ldr	r3, [r4, #0]
 80034f8:	60a3      	str	r3, [r4, #8]
BaseType_t xReturn = pdFALSE;
 80034fa:	2000      	movs	r0, #0
 80034fc:	e7ed      	b.n	80034da <prvCopyDataToQueue+0x18>
		( void ) memcpy( ( void * ) pxQueue->u.pcReadFrom, pvItemToQueue, ( size_t ) pxQueue->uxItemSize ); /*lint !e961 MISRA exception as the casts are only redundant for some ports. */
 80034fe:	68c0      	ldr	r0, [r0, #12]
 8003500:	f001 fe86 	bl	8005210 <memcpy>
		pxQueue->u.pcReadFrom -= pxQueue->uxItemSize;
 8003504:	6c23      	ldr	r3, [r4, #64]	; 0x40
 8003506:	68e2      	ldr	r2, [r4, #12]
 8003508:	425b      	negs	r3, r3
		if( pxQueue->u.pcReadFrom < pxQueue->pcHead ) /*lint !e946 MISRA exception justified as comparison of pointers is the cleanest solution. */
 800350a:	6821      	ldr	r1, [r4, #0]
		pxQueue->u.pcReadFrom -= pxQueue->uxItemSize;
 800350c:	441a      	add	r2, r3
		if( pxQueue->u.pcReadFrom < pxQueue->pcHead ) /*lint !e946 MISRA exception justified as comparison of pointers is the cleanest solution. */
 800350e:	428a      	cmp	r2, r1
		pxQueue->u.pcReadFrom -= pxQueue->uxItemSize;
 8003510:	60e2      	str	r2, [r4, #12]
			pxQueue->u.pcReadFrom = ( pxQueue->pcTail - pxQueue->uxItemSize );
 8003512:	bf3e      	ittt	cc
 8003514:	6862      	ldrcc	r2, [r4, #4]
 8003516:	189b      	addcc	r3, r3, r2
 8003518:	60e3      	strcc	r3, [r4, #12]
		if( xPosition == queueOVERWRITE )
 800351a:	2d02      	cmp	r5, #2
 800351c:	d1ed      	bne.n	80034fa <prvCopyDataToQueue+0x38>
			if( uxMessagesWaiting > ( UBaseType_t ) 0 )
 800351e:	b10e      	cbz	r6, 8003524 <prvCopyDataToQueue+0x62>
				--uxMessagesWaiting;
 8003520:	3e01      	subs	r6, #1
 8003522:	e7ea      	b.n	80034fa <prvCopyDataToQueue+0x38>
BaseType_t xReturn = pdFALSE;
 8003524:	4630      	mov	r0, r6
 8003526:	e7d8      	b.n	80034da <prvCopyDataToQueue+0x18>

08003528 <prvCopyDataFromQueue>:
{
 8003528:	4603      	mov	r3, r0
	if( pxQueue->uxItemSize != ( UBaseType_t ) 0 )
 800352a:	6c1a      	ldr	r2, [r3, #64]	; 0x40
{
 800352c:	b410      	push	{r4}
 800352e:	4608      	mov	r0, r1
	if( pxQueue->uxItemSize != ( UBaseType_t ) 0 )
 8003530:	b162      	cbz	r2, 800354c <prvCopyDataFromQueue+0x24>
		pxQueue->u.pcReadFrom += pxQueue->uxItemSize;
 8003532:	68d9      	ldr	r1, [r3, #12]
		if( pxQueue->u.pcReadFrom >= pxQueue->pcTail ) /*lint !e946 MISRA exception justified as use of the relational operator is the cleanest solutions. */
 8003534:	685c      	ldr	r4, [r3, #4]
		pxQueue->u.pcReadFrom += pxQueue->uxItemSize;
 8003536:	4411      	add	r1, r2
		if( pxQueue->u.pcReadFrom >= pxQueue->pcTail ) /*lint !e946 MISRA exception justified as use of the relational operator is the cleanest solutions. */
 8003538:	42a1      	cmp	r1, r4
		pxQueue->u.pcReadFrom += pxQueue->uxItemSize;
 800353a:	60d9      	str	r1, [r3, #12]
			pxQueue->u.pcReadFrom = pxQueue->pcHead;
 800353c:	bf28      	it	cs
 800353e:	6819      	ldrcs	r1, [r3, #0]
}
 8003540:	bc10      	pop	{r4}
			pxQueue->u.pcReadFrom = pxQueue->pcHead;
 8003542:	bf28      	it	cs
 8003544:	60d9      	strcs	r1, [r3, #12]
		( void ) memcpy( ( void * ) pvBuffer, ( void * ) pxQueue->u.pcReadFrom, ( size_t ) pxQueue->uxItemSize ); /*lint !e961 !e418 MISRA exception as the casts are only redundant for some ports.  Also previous logic ensures a null pointer can only be passed to memcpy() when the count is 0. */
 8003546:	68d9      	ldr	r1, [r3, #12]
 8003548:	f001 be62 	b.w	8005210 <memcpy>
}
 800354c:	bc10      	pop	{r4}
 800354e:	4770      	bx	lr

08003550 <prvUnlockQueue>:
{
 8003550:	b570      	push	{r4, r5, r6, lr}
 8003552:	4604      	mov	r4, r0
	taskENTER_CRITICAL();
 8003554:	f7ff fdb6 	bl	80030c4 <vPortEnterCritical>
		int8_t cTxLock = pxQueue->cTxLock;
 8003558:	f894 5045 	ldrb.w	r5, [r4, #69]	; 0x45
					if( xTaskRemoveFromEventList( &( pxQueue->xTasksWaitingToReceive ) ) != pdFALSE )
 800355c:	f104 0624 	add.w	r6, r4, #36	; 0x24
		int8_t cTxLock = pxQueue->cTxLock;
 8003560:	b26d      	sxtb	r5, r5
		while( cTxLock > queueLOCKED_UNMODIFIED )
 8003562:	2d00      	cmp	r5, #0
 8003564:	dc14      	bgt.n	8003590 <prvUnlockQueue+0x40>
		pxQueue->cTxLock = queueUNLOCKED;
 8003566:	23ff      	movs	r3, #255	; 0xff
 8003568:	f884 3045 	strb.w	r3, [r4, #69]	; 0x45
	taskEXIT_CRITICAL();
 800356c:	f7ff fdcc 	bl	8003108 <vPortExitCritical>
	taskENTER_CRITICAL();
 8003570:	f7ff fda8 	bl	80030c4 <vPortEnterCritical>
		int8_t cRxLock = pxQueue->cRxLock;
 8003574:	f894 5044 	ldrb.w	r5, [r4, #68]	; 0x44
				if( xTaskRemoveFromEventList( &( pxQueue->xTasksWaitingToSend ) ) != pdFALSE )
 8003578:	f104 0610 	add.w	r6, r4, #16
		int8_t cRxLock = pxQueue->cRxLock;
 800357c:	b26d      	sxtb	r5, r5
		while( cRxLock > queueLOCKED_UNMODIFIED )
 800357e:	2d00      	cmp	r5, #0
 8003580:	dc12      	bgt.n	80035a8 <prvUnlockQueue+0x58>
		pxQueue->cRxLock = queueUNLOCKED;
 8003582:	23ff      	movs	r3, #255	; 0xff
 8003584:	f884 3044 	strb.w	r3, [r4, #68]	; 0x44
}
 8003588:	e8bd 4070 	ldmia.w	sp!, {r4, r5, r6, lr}
	taskEXIT_CRITICAL();
 800358c:	f7ff bdbc 	b.w	8003108 <vPortExitCritical>
				if( listLIST_IS_EMPTY( &( pxQueue->xTasksWaitingToReceive ) ) == pdFALSE )
 8003590:	6a63      	ldr	r3, [r4, #36]	; 0x24
 8003592:	2b00      	cmp	r3, #0
 8003594:	d0e7      	beq.n	8003566 <prvUnlockQueue+0x16>
					if( xTaskRemoveFromEventList( &( pxQueue->xTasksWaitingToReceive ) ) != pdFALSE )
 8003596:	4630      	mov	r0, r6
 8003598:	f000 feb6 	bl	8004308 <xTaskRemoveFromEventList>
 800359c:	b108      	cbz	r0, 80035a2 <prvUnlockQueue+0x52>
						vTaskMissedYield();
 800359e:	f000 ff81 	bl	80044a4 <vTaskMissedYield>
 80035a2:	3d01      	subs	r5, #1
 80035a4:	b26d      	sxtb	r5, r5
 80035a6:	e7dc      	b.n	8003562 <prvUnlockQueue+0x12>
			if( listLIST_IS_EMPTY( &( pxQueue->xTasksWaitingToSend ) ) == pdFALSE )
 80035a8:	6923      	ldr	r3, [r4, #16]
 80035aa:	2b00      	cmp	r3, #0
 80035ac:	d0e9      	beq.n	8003582 <prvUnlockQueue+0x32>
				if( xTaskRemoveFromEventList( &( pxQueue->xTasksWaitingToSend ) ) != pdFALSE )
 80035ae:	4630      	mov	r0, r6
 80035b0:	f000 feaa 	bl	8004308 <xTaskRemoveFromEventList>
 80035b4:	b108      	cbz	r0, 80035ba <prvUnlockQueue+0x6a>
					vTaskMissedYield();
 80035b6:	f000 ff75 	bl	80044a4 <vTaskMissedYield>
 80035ba:	3d01      	subs	r5, #1
 80035bc:	b26d      	sxtb	r5, r5
 80035be:	e7de      	b.n	800357e <prvUnlockQueue+0x2e>

080035c0 <xQueueGenericReset>:
{
 80035c0:	b538      	push	{r3, r4, r5, lr}
 80035c2:	460d      	mov	r5, r1
	configASSERT( pxQueue );
 80035c4:	4604      	mov	r4, r0
 80035c6:	b940      	cbnz	r0, 80035da <xQueueGenericReset+0x1a>
 80035c8:	f04f 0350 	mov.w	r3, #80	; 0x50
 80035cc:	f383 8811 	msr	BASEPRI, r3
 80035d0:	f3bf 8f6f 	isb	sy
 80035d4:	f3bf 8f4f 	dsb	sy
 80035d8:	e7fe      	b.n	80035d8 <xQueueGenericReset+0x18>
	taskENTER_CRITICAL();
 80035da:	f7ff fd73 	bl	80030c4 <vPortEnterCritical>
		pxQueue->pcTail = pxQueue->pcHead + ( pxQueue->uxLength * pxQueue->uxItemSize );
 80035de:	6c20      	ldr	r0, [r4, #64]	; 0x40
 80035e0:	6be3      	ldr	r3, [r4, #60]	; 0x3c
 80035e2:	6822      	ldr	r2, [r4, #0]
 80035e4:	4343      	muls	r3, r0
 80035e6:	18d1      	adds	r1, r2, r3
		pxQueue->u.pcReadFrom = pxQueue->pcHead + ( ( pxQueue->uxLength - ( UBaseType_t ) 1U ) * pxQueue->uxItemSize );
 80035e8:	1a1b      	subs	r3, r3, r0
 80035ea:	4413      	add	r3, r2
		pxQueue->pcTail = pxQueue->pcHead + ( pxQueue->uxLength * pxQueue->uxItemSize );
 80035ec:	6061      	str	r1, [r4, #4]
		pxQueue->u.pcReadFrom = pxQueue->pcHead + ( ( pxQueue->uxLength - ( UBaseType_t ) 1U ) * pxQueue->uxItemSize );
 80035ee:	60e3      	str	r3, [r4, #12]
		pxQueue->uxMessagesWaiting = ( UBaseType_t ) 0U;
 80035f0:	2100      	movs	r1, #0
		pxQueue->cRxLock = queueUNLOCKED;
 80035f2:	23ff      	movs	r3, #255	; 0xff
		pxQueue->uxMessagesWaiting = ( UBaseType_t ) 0U;
 80035f4:	63a1      	str	r1, [r4, #56]	; 0x38
		pxQueue->pcWriteTo = pxQueue->pcHead;
 80035f6:	60a2      	str	r2, [r4, #8]
		pxQueue->cRxLock = queueUNLOCKED;
 80035f8:	f884 3044 	strb.w	r3, [r4, #68]	; 0x44
		pxQueue->cTxLock = queueUNLOCKED;
 80035fc:	f884 3045 	strb.w	r3, [r4, #69]	; 0x45
		if( xNewQueue == pdFALSE )
 8003600:	b995      	cbnz	r5, 8003628 <xQueueGenericReset+0x68>
			if( listLIST_IS_EMPTY( &( pxQueue->xTasksWaitingToSend ) ) == pdFALSE )
 8003602:	6923      	ldr	r3, [r4, #16]
 8003604:	b163      	cbz	r3, 8003620 <xQueueGenericReset+0x60>
				if( xTaskRemoveFromEventList( &( pxQueue->xTasksWaitingToSend ) ) != pdFALSE )
 8003606:	f104 0010 	add.w	r0, r4, #16
 800360a:	f000 fe7d 	bl	8004308 <xTaskRemoveFromEventList>
 800360e:	b138      	cbz	r0, 8003620 <xQueueGenericReset+0x60>
					queueYIELD_IF_USING_PREEMPTION();
 8003610:	f04f 5280 	mov.w	r2, #268435456	; 0x10000000
 8003614:	4b09      	ldr	r3, [pc, #36]	; (800363c <xQueueGenericReset+0x7c>)
 8003616:	601a      	str	r2, [r3, #0]
 8003618:	f3bf 8f4f 	dsb	sy
 800361c:	f3bf 8f6f 	isb	sy
	taskEXIT_CRITICAL();
 8003620:	f7ff fd72 	bl	8003108 <vPortExitCritical>
}
 8003624:	2001      	movs	r0, #1
 8003626:	bd38      	pop	{r3, r4, r5, pc}
			vListInitialise( &( pxQueue->xTasksWaitingToSend ) );
 8003628:	f104 0010 	add.w	r0, r4, #16
 800362c:	f7ff fcb3 	bl	8002f96 <vListInitialise>
			vListInitialise( &( pxQueue->xTasksWaitingToReceive ) );
 8003630:	f104 0024 	add.w	r0, r4, #36	; 0x24
 8003634:	f7ff fcaf 	bl	8002f96 <vListInitialise>
 8003638:	e7f2      	b.n	8003620 <xQueueGenericReset+0x60>
 800363a:	bf00      	nop
 800363c:	e000ed04 	.word	0xe000ed04

08003640 <xQueueGenericCreate>:
	{
 8003640:	b570      	push	{r4, r5, r6, lr}
 8003642:	460d      	mov	r5, r1
		configASSERT( uxQueueLength > ( UBaseType_t ) 0 );
 8003644:	4606      	mov	r6, r0
 8003646:	b940      	cbnz	r0, 800365a <xQueueGenericCreate+0x1a>
 8003648:	f04f 0350 	mov.w	r3, #80	; 0x50
 800364c:	f383 8811 	msr	BASEPRI, r3
 8003650:	f3bf 8f6f 	isb	sy
 8003654:	f3bf 8f4f 	dsb	sy
 8003658:	e7fe      	b.n	8003658 <xQueueGenericCreate+0x18>
			xQueueSizeInBytes = ( size_t ) ( uxQueueLength * uxItemSize ); /*lint !e961 MISRA exception as the casts are only redundant for some ports. */
 800365a:	4348      	muls	r0, r1
		pxNewQueue = ( Queue_t * ) pvPortMalloc( sizeof( Queue_t ) + xQueueSizeInBytes );
 800365c:	3048      	adds	r0, #72	; 0x48
 800365e:	f7ff fe5f 	bl	8003320 <pvPortMalloc>
		if( pxNewQueue != NULL )
 8003662:	4604      	mov	r4, r0
 8003664:	b138      	cbz	r0, 8003676 <xQueueGenericCreate+0x36>
	if( uxItemSize == ( UBaseType_t ) 0 )
 8003666:	b945      	cbnz	r5, 800367a <xQueueGenericCreate+0x3a>
		pxNewQueue->pcHead = ( int8_t * ) pxNewQueue;
 8003668:	6020      	str	r0, [r4, #0]
	pxNewQueue->uxLength = uxQueueLength;
 800366a:	63e6      	str	r6, [r4, #60]	; 0x3c
	pxNewQueue->uxItemSize = uxItemSize;
 800366c:	6425      	str	r5, [r4, #64]	; 0x40
	( void ) xQueueGenericReset( pxNewQueue, pdTRUE );
 800366e:	2101      	movs	r1, #1
 8003670:	4620      	mov	r0, r4
 8003672:	f7ff ffa5 	bl	80035c0 <xQueueGenericReset>
	}
 8003676:	4620      	mov	r0, r4
 8003678:	bd70      	pop	{r4, r5, r6, pc}
			pucQueueStorage = ( ( uint8_t * ) pxNewQueue ) + sizeof( Queue_t );
 800367a:	f100 0348 	add.w	r3, r0, #72	; 0x48
		pxNewQueue->pcHead = ( int8_t * ) pucQueueStorage;
 800367e:	6003      	str	r3, [r0, #0]
 8003680:	e7f3      	b.n	800366a <xQueueGenericCreate+0x2a>
	...

08003684 <xQueueGenericSend>:
{
 8003684:	e92d 47ff 	stmdb	sp!, {r0, r1, r2, r3, r4, r5, r6, r7, r8, r9, sl, lr}
 8003688:	4689      	mov	r9, r1
 800368a:	9201      	str	r2, [sp, #4]
 800368c:	461f      	mov	r7, r3
	configASSERT( pxQueue );
 800368e:	4604      	mov	r4, r0
 8003690:	b940      	cbnz	r0, 80036a4 <xQueueGenericSend+0x20>
 8003692:	f04f 0350 	mov.w	r3, #80	; 0x50
 8003696:	f383 8811 	msr	BASEPRI, r3
 800369a:	f3bf 8f6f 	isb	sy
 800369e:	f3bf 8f4f 	dsb	sy
 80036a2:	e7fe      	b.n	80036a2 <xQueueGenericSend+0x1e>
	configASSERT( !( ( pvItemToQueue == NULL ) && ( pxQueue->uxItemSize != ( UBaseType_t ) 0U ) ) );
 80036a4:	2900      	cmp	r1, #0
 80036a6:	f040 8088 	bne.w	80037ba <xQueueGenericSend+0x136>
 80036aa:	6c03      	ldr	r3, [r0, #64]	; 0x40
 80036ac:	2b00      	cmp	r3, #0
 80036ae:	f000 8084 	beq.w	80037ba <xQueueGenericSend+0x136>
 80036b2:	f04f 0350 	mov.w	r3, #80	; 0x50
 80036b6:	f383 8811 	msr	BASEPRI, r3
 80036ba:	f3bf 8f6f 	isb	sy
 80036be:	f3bf 8f4f 	dsb	sy
 80036c2:	e7fe      	b.n	80036c2 <xQueueGenericSend+0x3e>
		configASSERT( !( ( xTaskGetSchedulerState() == taskSCHEDULER_SUSPENDED ) && ( xTicksToWait != 0 ) ) );
 80036c4:	9e01      	ldr	r6, [sp, #4]
 80036c6:	2e00      	cmp	r6, #0
 80036c8:	f000 8082 	beq.w	80037d0 <xQueueGenericSend+0x14c>
 80036cc:	f04f 0350 	mov.w	r3, #80	; 0x50
 80036d0:	f383 8811 	msr	BASEPRI, r3
 80036d4:	f3bf 8f6f 	isb	sy
 80036d8:	f3bf 8f4f 	dsb	sy
 80036dc:	e7fe      	b.n	80036dc <xQueueGenericSend+0x58>
				if( xTicksToWait == ( TickType_t ) 0 )
 80036de:	9d01      	ldr	r5, [sp, #4]
 80036e0:	b91d      	cbnz	r5, 80036ea <xQueueGenericSend+0x66>
					taskEXIT_CRITICAL();
 80036e2:	f7ff fd11 	bl	8003108 <vPortExitCritical>
			return errQUEUE_FULL;
 80036e6:	2000      	movs	r0, #0
 80036e8:	e058      	b.n	800379c <xQueueGenericSend+0x118>
				else if( xEntryTimeSet == pdFALSE )
 80036ea:	b916      	cbnz	r6, 80036f2 <xQueueGenericSend+0x6e>
					vTaskInternalSetTimeOutState( &xTimeOut );
 80036ec:	a802      	add	r0, sp, #8
 80036ee:	f000 fe91 	bl	8004414 <vTaskInternalSetTimeOutState>
		taskEXIT_CRITICAL();
 80036f2:	f7ff fd09 	bl	8003108 <vPortExitCritical>
		vTaskSuspendAll();
 80036f6:	f000 fbbf 	bl	8003e78 <vTaskSuspendAll>
		prvLockQueue( pxQueue );
 80036fa:	f7ff fce3 	bl	80030c4 <vPortEnterCritical>
 80036fe:	f894 3044 	ldrb.w	r3, [r4, #68]	; 0x44
 8003702:	2bff      	cmp	r3, #255	; 0xff
 8003704:	bf08      	it	eq
 8003706:	f884 8044 	strbeq.w	r8, [r4, #68]	; 0x44
 800370a:	f894 3045 	ldrb.w	r3, [r4, #69]	; 0x45
 800370e:	2bff      	cmp	r3, #255	; 0xff
 8003710:	bf08      	it	eq
 8003712:	f884 8045 	strbeq.w	r8, [r4, #69]	; 0x45
 8003716:	f7ff fcf7 	bl	8003108 <vPortExitCritical>
		if( xTaskCheckForTimeOut( &xTimeOut, &xTicksToWait ) == pdFALSE )
 800371a:	a901      	add	r1, sp, #4
 800371c:	a802      	add	r0, sp, #8
 800371e:	f000 fe85 	bl	800442c <xTaskCheckForTimeOut>
 8003722:	2800      	cmp	r0, #0
 8003724:	d143      	bne.n	80037ae <xQueueGenericSend+0x12a>

static BaseType_t prvIsQueueFull( const Queue_t *pxQueue )
{
BaseType_t xReturn;

	taskENTER_CRITICAL();
 8003726:	f7ff fccd 	bl	80030c4 <vPortEnterCritical>
	{
		if( pxQueue->uxMessagesWaiting == pxQueue->uxLength )
 800372a:	6ba6      	ldr	r6, [r4, #56]	; 0x38
 800372c:	6be5      	ldr	r5, [r4, #60]	; 0x3c
		else
		{
			xReturn = pdFALSE;
		}
	}
	taskEXIT_CRITICAL();
 800372e:	f7ff fceb 	bl	8003108 <vPortExitCritical>
			if( prvIsQueueFull( pxQueue ) != pdFALSE )
 8003732:	42ae      	cmp	r6, r5
 8003734:	d135      	bne.n	80037a2 <xQueueGenericSend+0x11e>
				vTaskPlaceOnEventList( &( pxQueue->xTasksWaitingToSend ), xTicksToWait );
 8003736:	9901      	ldr	r1, [sp, #4]
 8003738:	f104 0010 	add.w	r0, r4, #16
 800373c:	f000 fd7e 	bl	800423c <vTaskPlaceOnEventList>
				prvUnlockQueue( pxQueue );
 8003740:	4620      	mov	r0, r4
 8003742:	f7ff ff05 	bl	8003550 <prvUnlockQueue>
				if( xTaskResumeAll() == pdFALSE )
 8003746:	f000 fc37 	bl	8003fb8 <xTaskResumeAll>
 800374a:	b938      	cbnz	r0, 800375c <xQueueGenericSend+0xd8>
					portYIELD_WITHIN_API();
 800374c:	f04f 5380 	mov.w	r3, #268435456	; 0x10000000
 8003750:	f8ca 3000 	str.w	r3, [sl]
 8003754:	f3bf 8f4f 	dsb	sy
 8003758:	f3bf 8f6f 	isb	sy
 800375c:	2601      	movs	r6, #1
		taskENTER_CRITICAL();
 800375e:	f7ff fcb1 	bl	80030c4 <vPortEnterCritical>
			if( ( pxQueue->uxMessagesWaiting < pxQueue->uxLength ) || ( xCopyPosition == queueOVERWRITE ) )
 8003762:	6ba2      	ldr	r2, [r4, #56]	; 0x38
 8003764:	6be3      	ldr	r3, [r4, #60]	; 0x3c
 8003766:	429a      	cmp	r2, r3
 8003768:	d301      	bcc.n	800376e <xQueueGenericSend+0xea>
 800376a:	2f02      	cmp	r7, #2
 800376c:	d1b7      	bne.n	80036de <xQueueGenericSend+0x5a>
				xYieldRequired = prvCopyDataToQueue( pxQueue, pvItemToQueue, xCopyPosition );
 800376e:	463a      	mov	r2, r7
 8003770:	4649      	mov	r1, r9
 8003772:	4620      	mov	r0, r4
 8003774:	f7ff fea5 	bl	80034c2 <prvCopyDataToQueue>
					if( listLIST_IS_EMPTY( &( pxQueue->xTasksWaitingToReceive ) ) == pdFALSE )
 8003778:	6a63      	ldr	r3, [r4, #36]	; 0x24
 800377a:	b11b      	cbz	r3, 8003784 <xQueueGenericSend+0x100>
						if( xTaskRemoveFromEventList( &( pxQueue->xTasksWaitingToReceive ) ) != pdFALSE )
 800377c:	f104 0024 	add.w	r0, r4, #36	; 0x24
 8003780:	f000 fdc2 	bl	8004308 <xTaskRemoveFromEventList>
					else if( xYieldRequired != pdFALSE )
 8003784:	b138      	cbz	r0, 8003796 <xQueueGenericSend+0x112>
						queueYIELD_IF_USING_PREEMPTION();
 8003786:	f04f 5280 	mov.w	r2, #268435456	; 0x10000000
 800378a:	4b18      	ldr	r3, [pc, #96]	; (80037ec <xQueueGenericSend+0x168>)
 800378c:	601a      	str	r2, [r3, #0]
 800378e:	f3bf 8f4f 	dsb	sy
 8003792:	f3bf 8f6f 	isb	sy
				taskEXIT_CRITICAL();
 8003796:	f7ff fcb7 	bl	8003108 <vPortExitCritical>
				return pdPASS;
 800379a:	2001      	movs	r0, #1
}
 800379c:	b004      	add	sp, #16
 800379e:	e8bd 87f0 	ldmia.w	sp!, {r4, r5, r6, r7, r8, r9, sl, pc}
				prvUnlockQueue( pxQueue );
 80037a2:	4620      	mov	r0, r4
 80037a4:	f7ff fed4 	bl	8003550 <prvUnlockQueue>
				( void ) xTaskResumeAll();
 80037a8:	f000 fc06 	bl	8003fb8 <xTaskResumeAll>
 80037ac:	e7d6      	b.n	800375c <xQueueGenericSend+0xd8>
			prvUnlockQueue( pxQueue );
 80037ae:	4620      	mov	r0, r4
 80037b0:	f7ff fece 	bl	8003550 <prvUnlockQueue>
			( void ) xTaskResumeAll();
 80037b4:	f000 fc00 	bl	8003fb8 <xTaskResumeAll>
 80037b8:	e795      	b.n	80036e6 <xQueueGenericSend+0x62>
	configASSERT( !( ( xCopyPosition == queueOVERWRITE ) && ( pxQueue->uxLength != 1 ) ) );
 80037ba:	2f02      	cmp	r7, #2
 80037bc:	d102      	bne.n	80037c4 <xQueueGenericSend+0x140>
 80037be:	6be3      	ldr	r3, [r4, #60]	; 0x3c
 80037c0:	2b01      	cmp	r3, #1
 80037c2:	d10a      	bne.n	80037da <xQueueGenericSend+0x156>
		configASSERT( !( ( xTaskGetSchedulerState() == taskSCHEDULER_SUSPENDED ) && ( xTicksToWait != 0 ) ) );
 80037c4:	f000 fe74 	bl	80044b0 <xTaskGetSchedulerState>
 80037c8:	2800      	cmp	r0, #0
 80037ca:	f43f af7b 	beq.w	80036c4 <xQueueGenericSend+0x40>
 80037ce:	2600      	movs	r6, #0
		prvLockQueue( pxQueue );
 80037d0:	f04f 0800 	mov.w	r8, #0
					portYIELD_WITHIN_API();
 80037d4:	f8df a014 	ldr.w	sl, [pc, #20]	; 80037ec <xQueueGenericSend+0x168>
 80037d8:	e7c1      	b.n	800375e <xQueueGenericSend+0xda>
 80037da:	f04f 0350 	mov.w	r3, #80	; 0x50
 80037de:	f383 8811 	msr	BASEPRI, r3
 80037e2:	f3bf 8f6f 	isb	sy
 80037e6:	f3bf 8f4f 	dsb	sy
 80037ea:	e7fe      	b.n	80037ea <xQueueGenericSend+0x166>
 80037ec:	e000ed04 	.word	0xe000ed04

080037f0 <xQueueGenericSendFromISR>:
{
 80037f0:	e92d 43f8 	stmdb	sp!, {r3, r4, r5, r6, r7, r8, r9, lr}
 80037f4:	4688      	mov	r8, r1
 80037f6:	4691      	mov	r9, r2
 80037f8:	461f      	mov	r7, r3
	configASSERT( pxQueue );
 80037fa:	4604      	mov	r4, r0
 80037fc:	b940      	cbnz	r0, 8003810 <xQueueGenericSendFromISR+0x20>
 80037fe:	f04f 0350 	mov.w	r3, #80	; 0x50
 8003802:	f383 8811 	msr	BASEPRI, r3
 8003806:	f3bf 8f6f 	isb	sy
 800380a:	f3bf 8f4f 	dsb	sy
 800380e:	e7fe      	b.n	800380e <xQueueGenericSendFromISR+0x1e>
	configASSERT( !( ( pvItemToQueue == NULL ) && ( pxQueue->uxItemSize != ( UBaseType_t ) 0U ) ) );
 8003810:	bb09      	cbnz	r1, 8003856 <xQueueGenericSendFromISR+0x66>
 8003812:	6c03      	ldr	r3, [r0, #64]	; 0x40
 8003814:	b1fb      	cbz	r3, 8003856 <xQueueGenericSendFromISR+0x66>
 8003816:	f04f 0350 	mov.w	r3, #80	; 0x50
 800381a:	f383 8811 	msr	BASEPRI, r3
 800381e:	f3bf 8f6f 	isb	sy
 8003822:	f3bf 8f4f 	dsb	sy
 8003826:	e7fe      	b.n	8003826 <xQueueGenericSendFromISR+0x36>
						if( xTaskRemoveFromEventList( &( pxQueue->xTasksWaitingToReceive ) ) != pdFALSE )
 8003828:	f104 0024 	add.w	r0, r4, #36	; 0x24
 800382c:	f000 fd6c 	bl	8004308 <xTaskRemoveFromEventList>
 8003830:	2800      	cmp	r0, #0
 8003832:	d034      	beq.n	800389e <xQueueGenericSendFromISR+0xae>
							if( pxHigherPriorityTaskWoken != NULL )
 8003834:	f1b9 0f00 	cmp.w	r9, #0
 8003838:	d031      	beq.n	800389e <xQueueGenericSendFromISR+0xae>
								*pxHigherPriorityTaskWoken = pdTRUE;
 800383a:	2001      	movs	r0, #1
 800383c:	f8c9 0000 	str.w	r0, [r9]
	__asm volatile
 8003840:	f386 8811 	msr	BASEPRI, r6
}
 8003844:	e8bd 83f8 	ldmia.w	sp!, {r3, r4, r5, r6, r7, r8, r9, pc}
				pxQueue->cTxLock = ( int8_t ) ( cTxLock + 1 );
 8003848:	3501      	adds	r5, #1
 800384a:	b26d      	sxtb	r5, r5
 800384c:	f884 5045 	strb.w	r5, [r4, #69]	; 0x45
 8003850:	e025      	b.n	800389e <xQueueGenericSendFromISR+0xae>
			xReturn = errQUEUE_FULL;
 8003852:	2000      	movs	r0, #0
 8003854:	e7f4      	b.n	8003840 <xQueueGenericSendFromISR+0x50>
	configASSERT( !( ( xCopyPosition == queueOVERWRITE ) && ( pxQueue->uxLength != 1 ) ) );
 8003856:	2f02      	cmp	r7, #2
 8003858:	d102      	bne.n	8003860 <xQueueGenericSendFromISR+0x70>
 800385a:	6be3      	ldr	r3, [r4, #60]	; 0x3c
 800385c:	2b01      	cmp	r3, #1
 800385e:	d120      	bne.n	80038a2 <xQueueGenericSendFromISR+0xb2>
	portASSERT_IF_INTERRUPT_PRIORITY_INVALID();
 8003860:	f7ff fd0c 	bl	800327c <vPortValidateInterruptPriority>
	__asm volatile
 8003864:	f3ef 8611 	mrs	r6, BASEPRI
 8003868:	f04f 0350 	mov.w	r3, #80	; 0x50
 800386c:	f383 8811 	msr	BASEPRI, r3
 8003870:	f3bf 8f6f 	isb	sy
 8003874:	f3bf 8f4f 	dsb	sy
		if( ( pxQueue->uxMessagesWaiting < pxQueue->uxLength ) || ( xCopyPosition == queueOVERWRITE ) )
 8003878:	6ba2      	ldr	r2, [r4, #56]	; 0x38
 800387a:	6be3      	ldr	r3, [r4, #60]	; 0x3c
 800387c:	429a      	cmp	r2, r3
 800387e:	d301      	bcc.n	8003884 <xQueueGenericSendFromISR+0x94>
 8003880:	2f02      	cmp	r7, #2
 8003882:	d1e6      	bne.n	8003852 <xQueueGenericSendFromISR+0x62>
			const int8_t cTxLock = pxQueue->cTxLock;
 8003884:	f894 5045 	ldrb.w	r5, [r4, #69]	; 0x45
			( void ) prvCopyDataToQueue( pxQueue, pvItemToQueue, xCopyPosition );
 8003888:	463a      	mov	r2, r7
			const int8_t cTxLock = pxQueue->cTxLock;
 800388a:	b26d      	sxtb	r5, r5
			( void ) prvCopyDataToQueue( pxQueue, pvItemToQueue, xCopyPosition );
 800388c:	4641      	mov	r1, r8
 800388e:	4620      	mov	r0, r4
 8003890:	f7ff fe17 	bl	80034c2 <prvCopyDataToQueue>
			if( cTxLock == queueUNLOCKED )
 8003894:	1c6b      	adds	r3, r5, #1
 8003896:	d1d7      	bne.n	8003848 <xQueueGenericSendFromISR+0x58>
					if( listLIST_IS_EMPTY( &( pxQueue->xTasksWaitingToReceive ) ) == pdFALSE )
 8003898:	6a63      	ldr	r3, [r4, #36]	; 0x24
 800389a:	2b00      	cmp	r3, #0
 800389c:	d1c4      	bne.n	8003828 <xQueueGenericSendFromISR+0x38>
			xReturn = pdPASS;
 800389e:	2001      	movs	r0, #1
 80038a0:	e7ce      	b.n	8003840 <xQueueGenericSendFromISR+0x50>
	__asm volatile
 80038a2:	f04f 0350 	mov.w	r3, #80	; 0x50
 80038a6:	f383 8811 	msr	BASEPRI, r3
 80038aa:	f3bf 8f6f 	isb	sy
 80038ae:	f3bf 8f4f 	dsb	sy
 80038b2:	e7fe      	b.n	80038b2 <xQueueGenericSendFromISR+0xc2>

080038b4 <xQueueReceive>:
{
 80038b4:	e92d 43f0 	stmdb	sp!, {r4, r5, r6, r7, r8, r9, lr}
 80038b8:	b085      	sub	sp, #20
 80038ba:	4688      	mov	r8, r1
 80038bc:	9201      	str	r2, [sp, #4]
	configASSERT( ( pxQueue ) );
 80038be:	4604      	mov	r4, r0
 80038c0:	b940      	cbnz	r0, 80038d4 <xQueueReceive+0x20>
 80038c2:	f04f 0350 	mov.w	r3, #80	; 0x50
 80038c6:	f383 8811 	msr	BASEPRI, r3
 80038ca:	f3bf 8f6f 	isb	sy
 80038ce:	f3bf 8f4f 	dsb	sy
 80038d2:	e7fe      	b.n	80038d2 <xQueueReceive+0x1e>
	configASSERT( !( ( ( pvBuffer ) == NULL ) && ( ( pxQueue )->uxItemSize != ( UBaseType_t ) 0U ) ) );
 80038d4:	2900      	cmp	r1, #0
 80038d6:	f040 8086 	bne.w	80039e6 <xQueueReceive+0x132>
 80038da:	6c03      	ldr	r3, [r0, #64]	; 0x40
 80038dc:	2b00      	cmp	r3, #0
 80038de:	f000 8082 	beq.w	80039e6 <xQueueReceive+0x132>
 80038e2:	f04f 0350 	mov.w	r3, #80	; 0x50
 80038e6:	f383 8811 	msr	BASEPRI, r3
 80038ea:	f3bf 8f6f 	isb	sy
 80038ee:	f3bf 8f4f 	dsb	sy
 80038f2:	e7fe      	b.n	80038f2 <xQueueReceive+0x3e>
		configASSERT( !( ( xTaskGetSchedulerState() == taskSCHEDULER_SUSPENDED ) && ( xTicksToWait != 0 ) ) );
 80038f4:	9e01      	ldr	r6, [sp, #4]
 80038f6:	2e00      	cmp	r6, #0
 80038f8:	d07a      	beq.n	80039f0 <xQueueReceive+0x13c>
 80038fa:	f04f 0350 	mov.w	r3, #80	; 0x50
 80038fe:	f383 8811 	msr	BASEPRI, r3
 8003902:	f3bf 8f6f 	isb	sy
 8003906:	f3bf 8f4f 	dsb	sy
 800390a:	e7fe      	b.n	800390a <xQueueReceive+0x56>
				if( xTicksToWait == ( TickType_t ) 0 )
 800390c:	9d01      	ldr	r5, [sp, #4]
 800390e:	b91d      	cbnz	r5, 8003918 <xQueueReceive+0x64>
					taskEXIT_CRITICAL();
 8003910:	f7ff fbfa 	bl	8003108 <vPortExitCritical>
				return errQUEUE_EMPTY;
 8003914:	2000      	movs	r0, #0
 8003916:	e052      	b.n	80039be <xQueueReceive+0x10a>
				else if( xEntryTimeSet == pdFALSE )
 8003918:	b916      	cbnz	r6, 8003920 <xQueueReceive+0x6c>
					vTaskInternalSetTimeOutState( &xTimeOut );
 800391a:	a802      	add	r0, sp, #8
 800391c:	f000 fd7a 	bl	8004414 <vTaskInternalSetTimeOutState>
		taskEXIT_CRITICAL();
 8003920:	f7ff fbf2 	bl	8003108 <vPortExitCritical>
		vTaskSuspendAll();
 8003924:	f000 faa8 	bl	8003e78 <vTaskSuspendAll>
		prvLockQueue( pxQueue );
 8003928:	f7ff fbcc 	bl	80030c4 <vPortEnterCritical>
 800392c:	f894 3044 	ldrb.w	r3, [r4, #68]	; 0x44
 8003930:	2bff      	cmp	r3, #255	; 0xff
 8003932:	bf08      	it	eq
 8003934:	f884 7044 	strbeq.w	r7, [r4, #68]	; 0x44
 8003938:	f894 3045 	ldrb.w	r3, [r4, #69]	; 0x45
 800393c:	2bff      	cmp	r3, #255	; 0xff
 800393e:	bf08      	it	eq
 8003940:	f884 7045 	strbeq.w	r7, [r4, #69]	; 0x45
 8003944:	f7ff fbe0 	bl	8003108 <vPortExitCritical>
		if( xTaskCheckForTimeOut( &xTimeOut, &xTicksToWait ) == pdFALSE )
 8003948:	a901      	add	r1, sp, #4
 800394a:	a802      	add	r0, sp, #8
 800394c:	f000 fd6e 	bl	800442c <xTaskCheckForTimeOut>
 8003950:	2800      	cmp	r0, #0
 8003952:	d13d      	bne.n	80039d0 <xQueueReceive+0x11c>
			if( prvIsQueueEmpty( pxQueue ) != pdFALSE )
 8003954:	4620      	mov	r0, r4
 8003956:	f7ff fda9 	bl	80034ac <prvIsQueueEmpty>
 800395a:	b398      	cbz	r0, 80039c4 <xQueueReceive+0x110>
				vTaskPlaceOnEventList( &( pxQueue->xTasksWaitingToReceive ), xTicksToWait );
 800395c:	9901      	ldr	r1, [sp, #4]
 800395e:	f104 0024 	add.w	r0, r4, #36	; 0x24
 8003962:	f000 fc6b 	bl	800423c <vTaskPlaceOnEventList>
				prvUnlockQueue( pxQueue );
 8003966:	4620      	mov	r0, r4
 8003968:	f7ff fdf2 	bl	8003550 <prvUnlockQueue>
				if( xTaskResumeAll() == pdFALSE )
 800396c:	f000 fb24 	bl	8003fb8 <xTaskResumeAll>
 8003970:	b938      	cbnz	r0, 8003982 <xQueueReceive+0xce>
					portYIELD_WITHIN_API();
 8003972:	f04f 5380 	mov.w	r3, #268435456	; 0x10000000
 8003976:	f8c9 3000 	str.w	r3, [r9]
 800397a:	f3bf 8f4f 	dsb	sy
 800397e:	f3bf 8f6f 	isb	sy
 8003982:	2601      	movs	r6, #1
		taskENTER_CRITICAL();
 8003984:	f7ff fb9e 	bl	80030c4 <vPortEnterCritical>
			const UBaseType_t uxMessagesWaiting = pxQueue->uxMessagesWaiting;
 8003988:	6ba5      	ldr	r5, [r4, #56]	; 0x38
			if( uxMessagesWaiting > ( UBaseType_t ) 0 )
 800398a:	2d00      	cmp	r5, #0
 800398c:	d0be      	beq.n	800390c <xQueueReceive+0x58>
				prvCopyDataFromQueue( pxQueue, pvBuffer );
 800398e:	4641      	mov	r1, r8
 8003990:	4620      	mov	r0, r4
				pxQueue->uxMessagesWaiting = uxMessagesWaiting - ( UBaseType_t ) 1;
 8003992:	3d01      	subs	r5, #1
				prvCopyDataFromQueue( pxQueue, pvBuffer );
 8003994:	f7ff fdc8 	bl	8003528 <prvCopyDataFromQueue>
				pxQueue->uxMessagesWaiting = uxMessagesWaiting - ( UBaseType_t ) 1;
 8003998:	63a5      	str	r5, [r4, #56]	; 0x38
				if( listLIST_IS_EMPTY( &( pxQueue->xTasksWaitingToSend ) ) == pdFALSE )
 800399a:	6923      	ldr	r3, [r4, #16]
 800399c:	b163      	cbz	r3, 80039b8 <xQueueReceive+0x104>
					if( xTaskRemoveFromEventList( &( pxQueue->xTasksWaitingToSend ) ) != pdFALSE )
 800399e:	f104 0010 	add.w	r0, r4, #16
 80039a2:	f000 fcb1 	bl	8004308 <xTaskRemoveFromEventList>
 80039a6:	b138      	cbz	r0, 80039b8 <xQueueReceive+0x104>
						queueYIELD_IF_USING_PREEMPTION();
 80039a8:	f04f 5280 	mov.w	r2, #268435456	; 0x10000000
 80039ac:	4b12      	ldr	r3, [pc, #72]	; (80039f8 <xQueueReceive+0x144>)
 80039ae:	601a      	str	r2, [r3, #0]
 80039b0:	f3bf 8f4f 	dsb	sy
 80039b4:	f3bf 8f6f 	isb	sy
				taskEXIT_CRITICAL();
 80039b8:	f7ff fba6 	bl	8003108 <vPortExitCritical>
				return pdPASS;
 80039bc:	2001      	movs	r0, #1
}
 80039be:	b005      	add	sp, #20
 80039c0:	e8bd 83f0 	ldmia.w	sp!, {r4, r5, r6, r7, r8, r9, pc}
				prvUnlockQueue( pxQueue );
 80039c4:	4620      	mov	r0, r4
 80039c6:	f7ff fdc3 	bl	8003550 <prvUnlockQueue>
				( void ) xTaskResumeAll();
 80039ca:	f000 faf5 	bl	8003fb8 <xTaskResumeAll>
 80039ce:	e7d8      	b.n	8003982 <xQueueReceive+0xce>
			prvUnlockQueue( pxQueue );
 80039d0:	4620      	mov	r0, r4
 80039d2:	f7ff fdbd 	bl	8003550 <prvUnlockQueue>
			( void ) xTaskResumeAll();
 80039d6:	f000 faef 	bl	8003fb8 <xTaskResumeAll>
			if( prvIsQueueEmpty( pxQueue ) != pdFALSE )
 80039da:	4620      	mov	r0, r4
 80039dc:	f7ff fd66 	bl	80034ac <prvIsQueueEmpty>
 80039e0:	2800      	cmp	r0, #0
 80039e2:	d0ce      	beq.n	8003982 <xQueueReceive+0xce>
 80039e4:	e796      	b.n	8003914 <xQueueReceive+0x60>
		configASSERT( !( ( xTaskGetSchedulerState() == taskSCHEDULER_SUSPENDED ) && ( xTicksToWait != 0 ) ) );
 80039e6:	f000 fd63 	bl	80044b0 <xTaskGetSchedulerState>
 80039ea:	2800      	cmp	r0, #0
 80039ec:	d082      	beq.n	80038f4 <xQueueReceive+0x40>
 80039ee:	2600      	movs	r6, #0
		prvLockQueue( pxQueue );
 80039f0:	2700      	movs	r7, #0
					portYIELD_WITHIN_API();
 80039f2:	f8df 9004 	ldr.w	r9, [pc, #4]	; 80039f8 <xQueueReceive+0x144>
 80039f6:	e7c5      	b.n	8003984 <xQueueReceive+0xd0>
 80039f8:	e000ed04 	.word	0xe000ed04

080039fc <vQueueWaitForMessageRestricted>:
/*-----------------------------------------------------------*/

#if ( configUSE_TIMERS == 1 )

	void vQueueWaitForMessageRestricted( QueueHandle_t xQueue, TickType_t xTicksToWait, const BaseType_t xWaitIndefinitely )
	{
 80039fc:	b570      	push	{r4, r5, r6, lr}
 80039fe:	4604      	mov	r4, r0
 8003a00:	460d      	mov	r5, r1
 8003a02:	4616      	mov	r6, r2
		will not actually cause the task to block, just place it on a blocked
		list.  It will not block until the scheduler is unlocked - at which
		time a yield will be performed.  If an item is added to the queue while
		the queue is locked, and the calling task blocks on the queue, then the
		calling task will be immediately unblocked when the queue is unlocked. */
		prvLockQueue( pxQueue );
 8003a04:	f7ff fb5e 	bl	80030c4 <vPortEnterCritical>
 8003a08:	f894 3044 	ldrb.w	r3, [r4, #68]	; 0x44
 8003a0c:	2bff      	cmp	r3, #255	; 0xff
 8003a0e:	bf04      	itt	eq
 8003a10:	2300      	moveq	r3, #0
 8003a12:	f884 3044 	strbeq.w	r3, [r4, #68]	; 0x44
 8003a16:	f894 3045 	ldrb.w	r3, [r4, #69]	; 0x45
 8003a1a:	2bff      	cmp	r3, #255	; 0xff
 8003a1c:	bf04      	itt	eq
 8003a1e:	2300      	moveq	r3, #0
 8003a20:	f884 3045 	strbeq.w	r3, [r4, #69]	; 0x45
 8003a24:	f7ff fb70 	bl	8003108 <vPortExitCritical>
		if( pxQueue->uxMessagesWaiting == ( UBaseType_t ) 0U )
 8003a28:	6ba3      	ldr	r3, [r4, #56]	; 0x38
 8003a2a:	b92b      	cbnz	r3, 8003a38 <vQueueWaitForMessageRestricted+0x3c>
		{
			/* There is nothing in the queue, block for the specified period. */
			vTaskPlaceOnEventListRestricted( &( pxQueue->xTasksWaitingToReceive ), xTicksToWait, xWaitIndefinitely );
 8003a2c:	4632      	mov	r2, r6
 8003a2e:	4629      	mov	r1, r5
 8003a30:	f104 0024 	add.w	r0, r4, #36	; 0x24
 8003a34:	f000 fc48 	bl	80042c8 <vTaskPlaceOnEventListRestricted>
		}
		else
		{
			mtCOVERAGE_TEST_MARKER();
		}
		prvUnlockQueue( pxQueue );
 8003a38:	4620      	mov	r0, r4
	}
 8003a3a:	e8bd 4070 	ldmia.w	sp!, {r4, r5, r6, lr}
		prvUnlockQueue( pxQueue );
 8003a3e:	f7ff bd87 	b.w	8003550 <prvUnlockQueue>
	...

08003a44 <prvResetNextTaskUnblockTime>:

static void prvResetNextTaskUnblockTime( void )
{
TCB_t *pxTCB;

	if( listLIST_IS_EMPTY( pxDelayedTaskList ) != pdFALSE )
 8003a44:	4a06      	ldr	r2, [pc, #24]	; (8003a60 <prvResetNextTaskUnblockTime+0x1c>)
 8003a46:	6813      	ldr	r3, [r2, #0]
 8003a48:	6819      	ldr	r1, [r3, #0]
 8003a4a:	4b06      	ldr	r3, [pc, #24]	; (8003a64 <prvResetNextTaskUnblockTime+0x20>)
 8003a4c:	b919      	cbnz	r1, 8003a56 <prvResetNextTaskUnblockTime+0x12>
	{
		/* The new current delayed list is empty.  Set xNextTaskUnblockTime to
		the maximum possible value so it is	extremely unlikely that the
		if( xTickCount >= xNextTaskUnblockTime ) test will pass until
		there is an item in the delayed list. */
		xNextTaskUnblockTime = portMAX_DELAY;
 8003a4e:	f04f 32ff 	mov.w	r2, #4294967295
		/* The new current delayed list is not empty, get the value of
		the item at the head of the delayed list.  This is the time at
		which the task at the head of the delayed list should be removed
		from the Blocked state. */
		( pxTCB ) = ( TCB_t * ) listGET_OWNER_OF_HEAD_ENTRY( pxDelayedTaskList );
		xNextTaskUnblockTime = listGET_LIST_ITEM_VALUE( &( ( pxTCB )->xStateListItem ) );
 8003a52:	601a      	str	r2, [r3, #0]
 8003a54:	4770      	bx	lr
		( pxTCB ) = ( TCB_t * ) listGET_OWNER_OF_HEAD_ENTRY( pxDelayedTaskList );
 8003a56:	6812      	ldr	r2, [r2, #0]
 8003a58:	68d2      	ldr	r2, [r2, #12]
		xNextTaskUnblockTime = listGET_LIST_ITEM_VALUE( &( ( pxTCB )->xStateListItem ) );
 8003a5a:	68d2      	ldr	r2, [r2, #12]
 8003a5c:	6852      	ldr	r2, [r2, #4]
 8003a5e:	e7f8      	b.n	8003a52 <prvResetNextTaskUnblockTime+0xe>
 8003a60:	20004378 	.word	0x20004378
 8003a64:	20004428 	.word	0x20004428

08003a68 <prvAddCurrentTaskToDelayedList>:
#endif /* configUSE_TASK_NOTIFICATIONS */
/*-----------------------------------------------------------*/


static void prvAddCurrentTaskToDelayedList( TickType_t xTicksToWait, const BaseType_t xCanBlockIndefinitely )
{
 8003a68:	b5f8      	push	{r3, r4, r5, r6, r7, lr}
TickType_t xTimeToWake;
const TickType_t xConstTickCount = xTickCount;
 8003a6a:	4b1b      	ldr	r3, [pc, #108]	; (8003ad8 <prvAddCurrentTaskToDelayedList+0x70>)
	}
	#endif

	/* Remove the task from the ready list before adding it to the blocked list
	as the same list item is used for both lists. */
	if( uxListRemove( &( pxCurrentTCB->xStateListItem ) ) == ( UBaseType_t ) 0 )
 8003a6c:	4e1b      	ldr	r6, [pc, #108]	; (8003adc <prvAddCurrentTaskToDelayedList+0x74>)
const TickType_t xConstTickCount = xTickCount;
 8003a6e:	681d      	ldr	r5, [r3, #0]
{
 8003a70:	4604      	mov	r4, r0
	if( uxListRemove( &( pxCurrentTCB->xStateListItem ) ) == ( UBaseType_t ) 0 )
 8003a72:	6830      	ldr	r0, [r6, #0]
{
 8003a74:	460f      	mov	r7, r1
	if( uxListRemove( &( pxCurrentTCB->xStateListItem ) ) == ( UBaseType_t ) 0 )
 8003a76:	3004      	adds	r0, #4
 8003a78:	f7ff fabe 	bl	8002ff8 <uxListRemove>
 8003a7c:	4633      	mov	r3, r6
 8003a7e:	b940      	cbnz	r0, 8003a92 <prvAddCurrentTaskToDelayedList+0x2a>
	{
		/* The current task must be in a ready list, so there is no need to
		check, and the port reset macro can be called directly. */
		portRESET_READY_PRIORITY( pxCurrentTCB->uxPriority, uxTopReadyPriority );
 8003a80:	2001      	movs	r0, #1
 8003a82:	6831      	ldr	r1, [r6, #0]
 8003a84:	4e16      	ldr	r6, [pc, #88]	; (8003ae0 <prvAddCurrentTaskToDelayedList+0x78>)
 8003a86:	6ac9      	ldr	r1, [r1, #44]	; 0x2c
 8003a88:	6832      	ldr	r2, [r6, #0]
 8003a8a:	4088      	lsls	r0, r1
 8003a8c:	ea22 0200 	bic.w	r2, r2, r0
 8003a90:	6032      	str	r2, [r6, #0]
		mtCOVERAGE_TEST_MARKER();
	}

	#if ( INCLUDE_vTaskSuspend == 1 )
	{
		if( ( xTicksToWait == portMAX_DELAY ) && ( xCanBlockIndefinitely != pdFALSE ) )
 8003a92:	1c62      	adds	r2, r4, #1
 8003a94:	d107      	bne.n	8003aa6 <prvAddCurrentTaskToDelayedList+0x3e>
 8003a96:	b137      	cbz	r7, 8003aa6 <prvAddCurrentTaskToDelayedList+0x3e>
		{
			/* Add the task to the suspended task list instead of a delayed task
			list to ensure it is not woken by a timing event.  It will block
			indefinitely. */
			vListInsertEnd( &xSuspendedTaskList, &( pxCurrentTCB->xStateListItem ) );
 8003a98:	6819      	ldr	r1, [r3, #0]
 8003a9a:	4812      	ldr	r0, [pc, #72]	; (8003ae4 <prvAddCurrentTaskToDelayedList+0x7c>)
 8003a9c:	3104      	adds	r1, #4

		/* Avoid compiler warning when INCLUDE_vTaskSuspend is not 1. */
		( void ) xCanBlockIndefinitely;
	}
	#endif /* INCLUDE_vTaskSuspend */
}
 8003a9e:	e8bd 40f8 	ldmia.w	sp!, {r3, r4, r5, r6, r7, lr}
			vListInsertEnd( &xSuspendedTaskList, &( pxCurrentTCB->xStateListItem ) );
 8003aa2:	f7ff ba86 	b.w	8002fb2 <vListInsertEnd>
			xTimeToWake = xConstTickCount + xTicksToWait;
 8003aa6:	442c      	add	r4, r5
			listSET_LIST_ITEM_VALUE( &( pxCurrentTCB->xStateListItem ), xTimeToWake );
 8003aa8:	681a      	ldr	r2, [r3, #0]
			if( xTimeToWake < xConstTickCount )
 8003aaa:	42a5      	cmp	r5, r4
			listSET_LIST_ITEM_VALUE( &( pxCurrentTCB->xStateListItem ), xTimeToWake );
 8003aac:	6054      	str	r4, [r2, #4]
			if( xTimeToWake < xConstTickCount )
 8003aae:	d907      	bls.n	8003ac0 <prvAddCurrentTaskToDelayedList+0x58>
				vListInsert( pxOverflowDelayedTaskList, &( pxCurrentTCB->xStateListItem ) );
 8003ab0:	4a0d      	ldr	r2, [pc, #52]	; (8003ae8 <prvAddCurrentTaskToDelayedList+0x80>)
 8003ab2:	6810      	ldr	r0, [r2, #0]
 8003ab4:	6819      	ldr	r1, [r3, #0]
}
 8003ab6:	e8bd 40f8 	ldmia.w	sp!, {r3, r4, r5, r6, r7, lr}
				vListInsert( pxOverflowDelayedTaskList, &( pxCurrentTCB->xStateListItem ) );
 8003aba:	3104      	adds	r1, #4
 8003abc:	f7ff ba85 	b.w	8002fca <vListInsert>
				vListInsert( pxDelayedTaskList, &( pxCurrentTCB->xStateListItem ) );
 8003ac0:	4a0a      	ldr	r2, [pc, #40]	; (8003aec <prvAddCurrentTaskToDelayedList+0x84>)
 8003ac2:	6810      	ldr	r0, [r2, #0]
 8003ac4:	6819      	ldr	r1, [r3, #0]
 8003ac6:	3104      	adds	r1, #4
 8003ac8:	f7ff fa7f 	bl	8002fca <vListInsert>
				if( xTimeToWake < xNextTaskUnblockTime )
 8003acc:	4b08      	ldr	r3, [pc, #32]	; (8003af0 <prvAddCurrentTaskToDelayedList+0x88>)
 8003ace:	681a      	ldr	r2, [r3, #0]
 8003ad0:	4294      	cmp	r4, r2
					xNextTaskUnblockTime = xTimeToWake;
 8003ad2:	bf38      	it	cc
 8003ad4:	601c      	strcc	r4, [r3, #0]
 8003ad6:	bdf8      	pop	{r3, r4, r5, r6, r7, pc}
 8003ad8:	20004470 	.word	0x20004470
 8003adc:	20004374 	.word	0x20004374
 8003ae0:	200043f8 	.word	0x200043f8
 8003ae4:	20004448 	.word	0x20004448
 8003ae8:	2000437c 	.word	0x2000437c
 8003aec:	20004378 	.word	0x20004378
 8003af0:	20004428 	.word	0x20004428

08003af4 <prvIdleTask>:
{
 8003af4:	b580      	push	{r7, lr}
				taskYIELD();
 8003af6:	f8df 8064 	ldr.w	r8, [pc, #100]	; 8003b5c <prvIdleTask+0x68>
				pxTCB = ( TCB_t * ) listGET_OWNER_OF_HEAD_ENTRY( ( &xTasksWaitingTermination ) );
 8003afa:	4f14      	ldr	r7, [pc, #80]	; (8003b4c <prvIdleTask+0x58>)
		while( uxDeletedTasksWaitingCleanUp > ( UBaseType_t ) 0U )
 8003afc:	4c14      	ldr	r4, [pc, #80]	; (8003b50 <prvIdleTask+0x5c>)
				--uxCurrentNumberOfTasks;
 8003afe:	4e15      	ldr	r6, [pc, #84]	; (8003b54 <prvIdleTask+0x60>)
		while( uxDeletedTasksWaitingCleanUp > ( UBaseType_t ) 0U )
 8003b00:	6823      	ldr	r3, [r4, #0]
 8003b02:	b963      	cbnz	r3, 8003b1e <prvIdleTask+0x2a>
			if( listCURRENT_LIST_LENGTH( &( pxReadyTasksLists[ tskIDLE_PRIORITY ] ) ) > ( UBaseType_t ) 1 )
 8003b04:	4b14      	ldr	r3, [pc, #80]	; (8003b58 <prvIdleTask+0x64>)
 8003b06:	681b      	ldr	r3, [r3, #0]
 8003b08:	2b01      	cmp	r3, #1
 8003b0a:	d9f8      	bls.n	8003afe <prvIdleTask+0xa>
				taskYIELD();
 8003b0c:	f04f 5380 	mov.w	r3, #268435456	; 0x10000000
 8003b10:	f8c8 3000 	str.w	r3, [r8]
 8003b14:	f3bf 8f4f 	dsb	sy
 8003b18:	f3bf 8f6f 	isb	sy
 8003b1c:	e7ee      	b.n	8003afc <prvIdleTask+0x8>
			taskENTER_CRITICAL();
 8003b1e:	f7ff fad1 	bl	80030c4 <vPortEnterCritical>
				pxTCB = ( TCB_t * ) listGET_OWNER_OF_HEAD_ENTRY( ( &xTasksWaitingTermination ) );
 8003b22:	68fb      	ldr	r3, [r7, #12]
 8003b24:	68dd      	ldr	r5, [r3, #12]
				( void ) uxListRemove( &( pxTCB->xStateListItem ) );
 8003b26:	1d28      	adds	r0, r5, #4
 8003b28:	f7ff fa66 	bl	8002ff8 <uxListRemove>
				--uxCurrentNumberOfTasks;
 8003b2c:	6833      	ldr	r3, [r6, #0]
 8003b2e:	3b01      	subs	r3, #1
 8003b30:	6033      	str	r3, [r6, #0]
				--uxDeletedTasksWaitingCleanUp;
 8003b32:	6823      	ldr	r3, [r4, #0]
 8003b34:	3b01      	subs	r3, #1
 8003b36:	6023      	str	r3, [r4, #0]
			taskEXIT_CRITICAL();
 8003b38:	f7ff fae6 	bl	8003108 <vPortExitCritical>
			vPortFree( pxTCB->pxStack );
 8003b3c:	6b28      	ldr	r0, [r5, #48]	; 0x30
 8003b3e:	f7ff fc7d 	bl	800343c <vPortFree>
			vPortFree( pxTCB );
 8003b42:	4628      	mov	r0, r5
 8003b44:	f7ff fc7a 	bl	800343c <vPortFree>
 8003b48:	e7da      	b.n	8003b00 <prvIdleTask+0xc>
 8003b4a:	bf00      	nop
 8003b4c:	2000445c 	.word	0x2000445c
 8003b50:	200043e8 	.word	0x200043e8
 8003b54:	200043e4 	.word	0x200043e4
 8003b58:	20004380 	.word	0x20004380
 8003b5c:	e000ed04 	.word	0xe000ed04

08003b60 <xTaskCreate>:
	{
 8003b60:	e92d 4ff8 	stmdb	sp!, {r3, r4, r5, r6, r7, r8, r9, sl, fp, lr}
			pxStack = ( StackType_t * ) pvPortMalloc( ( ( ( size_t ) usStackDepth ) * sizeof( StackType_t ) ) ); /*lint !e961 MISRA exception as the casts are only redundant for some ports. */
 8003b64:	ea4f 0a82 	mov.w	sl, r2, lsl #2
	{
 8003b68:	4680      	mov	r8, r0
			pxStack = ( StackType_t * ) pvPortMalloc( ( ( ( size_t ) usStackDepth ) * sizeof( StackType_t ) ) ); /*lint !e961 MISRA exception as the casts are only redundant for some ports. */
 8003b6a:	4650      	mov	r0, sl
	{
 8003b6c:	460f      	mov	r7, r1
 8003b6e:	4699      	mov	r9, r3
 8003b70:	9e0b      	ldr	r6, [sp, #44]	; 0x2c
			pxStack = ( StackType_t * ) pvPortMalloc( ( ( ( size_t ) usStackDepth ) * sizeof( StackType_t ) ) ); /*lint !e961 MISRA exception as the casts are only redundant for some ports. */
 8003b72:	f7ff fbd5 	bl	8003320 <pvPortMalloc>
			if( pxStack != NULL )
 8003b76:	4605      	mov	r5, r0
 8003b78:	2800      	cmp	r0, #0
 8003b7a:	f000 809f 	beq.w	8003cbc <xTaskCreate+0x15c>
				pxNewTCB = ( TCB_t * ) pvPortMalloc( sizeof( TCB_t ) ); /*lint !e961 MISRA exception as the casts are only redundant for some paths. */
 8003b7e:	2050      	movs	r0, #80	; 0x50
 8003b80:	f7ff fbce 	bl	8003320 <pvPortMalloc>
				if( pxNewTCB != NULL )
 8003b84:	4604      	mov	r4, r0
 8003b86:	2800      	cmp	r0, #0
 8003b88:	f000 8095 	beq.w	8003cb6 <xTaskCreate+0x156>
		pxTopOfStack = pxNewTCB->pxStack + ( ulStackDepth - ( uint32_t ) 1 );
 8003b8c:	f1aa 0a04 	sub.w	sl, sl, #4
					pxNewTCB->pxStack = pxStack;
 8003b90:	6305      	str	r5, [r0, #48]	; 0x30
		pxTopOfStack = pxNewTCB->pxStack + ( ulStackDepth - ( uint32_t ) 1 );
 8003b92:	4455      	add	r5, sl
 8003b94:	1e7b      	subs	r3, r7, #1
		pxTopOfStack = ( StackType_t * ) ( ( ( portPOINTER_SIZE_TYPE ) pxTopOfStack ) & ( ~( ( portPOINTER_SIZE_TYPE ) portBYTE_ALIGNMENT_MASK ) ) ); /*lint !e923 MISRA exception.  Avoiding casts between pointers and integers is not practical.  Size differences accounted for using portPOINTER_SIZE_TYPE type. */
 8003b96:	f025 0a07 	bic.w	sl, r5, #7
 8003b9a:	f100 0234 	add.w	r2, r0, #52	; 0x34
 8003b9e:	3709      	adds	r7, #9
		pxNewTCB->pcTaskName[ x ] = pcName[ x ];
 8003ba0:	7859      	ldrb	r1, [r3, #1]
 8003ba2:	f802 1b01 	strb.w	r1, [r2], #1
		if( pcName[ x ] == 0x00 )
 8003ba6:	f813 1f01 	ldrb.w	r1, [r3, #1]!
 8003baa:	b109      	cbz	r1, 8003bb0 <xTaskCreate+0x50>
	for( x = ( UBaseType_t ) 0; x < ( UBaseType_t ) configMAX_TASK_NAME_LEN; x++ )
 8003bac:	42bb      	cmp	r3, r7
 8003bae:	d1f7      	bne.n	8003ba0 <xTaskCreate+0x40>
 8003bb0:	9d0a      	ldr	r5, [sp, #40]	; 0x28
	pxNewTCB->pcTaskName[ configMAX_TASK_NAME_LEN - 1 ] = '\0';
 8003bb2:	f04f 0b00 	mov.w	fp, #0
 8003bb6:	2d04      	cmp	r5, #4
 8003bb8:	bf28      	it	cs
 8003bba:	2504      	movcs	r5, #4
	vListInitialiseItem( &( pxNewTCB->xStateListItem ) );
 8003bbc:	1d27      	adds	r7, r4, #4
	pxNewTCB->uxPriority = uxPriority;
 8003bbe:	62e5      	str	r5, [r4, #44]	; 0x2c
		pxNewTCB->uxBasePriority = uxPriority;
 8003bc0:	6425      	str	r5, [r4, #64]	; 0x40
	vListInitialiseItem( &( pxNewTCB->xStateListItem ) );
 8003bc2:	4638      	mov	r0, r7
	pxNewTCB->pcTaskName[ configMAX_TASK_NAME_LEN - 1 ] = '\0';
 8003bc4:	f884 b03d 	strb.w	fp, [r4, #61]	; 0x3d
		pxNewTCB->uxMutexesHeld = 0;
 8003bc8:	f8c4 b044 	str.w	fp, [r4, #68]	; 0x44
	vListInitialiseItem( &( pxNewTCB->xStateListItem ) );
 8003bcc:	f7ff f9ee 	bl	8002fac <vListInitialiseItem>
	listSET_LIST_ITEM_VALUE( &( pxNewTCB->xEventListItem ), ( TickType_t ) configMAX_PRIORITIES - ( TickType_t ) uxPriority ); /*lint !e961 MISRA exception as the casts are only redundant for some ports. */
 8003bd0:	f1c5 0505 	rsb	r5, r5, #5
	vListInitialiseItem( &( pxNewTCB->xEventListItem ) );
 8003bd4:	f104 0018 	add.w	r0, r4, #24
 8003bd8:	f7ff f9e8 	bl	8002fac <vListInitialiseItem>
		pxNewTCB->ulNotifiedValue = 0;
 8003bdc:	f8c4 b048 	str.w	fp, [r4, #72]	; 0x48
	listSET_LIST_ITEM_OWNER( &( pxNewTCB->xStateListItem ), pxNewTCB );
 8003be0:	6124      	str	r4, [r4, #16]
	listSET_LIST_ITEM_VALUE( &( pxNewTCB->xEventListItem ), ( TickType_t ) configMAX_PRIORITIES - ( TickType_t ) uxPriority ); /*lint !e961 MISRA exception as the casts are only redundant for some ports. */
 8003be2:	61a5      	str	r5, [r4, #24]
	listSET_LIST_ITEM_OWNER( &( pxNewTCB->xEventListItem ), pxNewTCB );
 8003be4:	6264      	str	r4, [r4, #36]	; 0x24
		pxNewTCB->ucNotifyState = taskNOT_WAITING_NOTIFICATION;
 8003be6:	f884 b04c 	strb.w	fp, [r4, #76]	; 0x4c
		pxNewTCB->pxTopOfStack = pxPortInitialiseStack( pxTopOfStack, pxTaskCode, pvParameters );
 8003bea:	464a      	mov	r2, r9
 8003bec:	4641      	mov	r1, r8
 8003bee:	4650      	mov	r0, sl
 8003bf0:	f7ff fa44 	bl	800307c <pxPortInitialiseStack>
 8003bf4:	6020      	str	r0, [r4, #0]
	if( ( void * ) pxCreatedTask != NULL )
 8003bf6:	b106      	cbz	r6, 8003bfa <xTaskCreate+0x9a>
		*pxCreatedTask = ( TaskHandle_t ) pxNewTCB;
 8003bf8:	6034      	str	r4, [r6, #0]
	taskENTER_CRITICAL();
 8003bfa:	f7ff fa63 	bl	80030c4 <vPortEnterCritical>
		uxCurrentNumberOfTasks++;
 8003bfe:	4b36      	ldr	r3, [pc, #216]	; (8003cd8 <xTaskCreate+0x178>)
		if( pxCurrentTCB == NULL )
 8003c00:	4e36      	ldr	r6, [pc, #216]	; (8003cdc <xTaskCreate+0x17c>)
		uxCurrentNumberOfTasks++;
 8003c02:	681a      	ldr	r2, [r3, #0]
 8003c04:	f8df 8110 	ldr.w	r8, [pc, #272]	; 8003d18 <xTaskCreate+0x1b8>
 8003c08:	3201      	adds	r2, #1
 8003c0a:	601a      	str	r2, [r3, #0]
		if( pxCurrentTCB == NULL )
 8003c0c:	6832      	ldr	r2, [r6, #0]
 8003c0e:	2a00      	cmp	r2, #0
 8003c10:	d157      	bne.n	8003cc2 <xTaskCreate+0x162>
			pxCurrentTCB = pxNewTCB;
 8003c12:	6034      	str	r4, [r6, #0]
			if( uxCurrentNumberOfTasks == ( UBaseType_t ) 1 )
 8003c14:	681b      	ldr	r3, [r3, #0]
 8003c16:	2b01      	cmp	r3, #1
 8003c18:	d125      	bne.n	8003c66 <xTaskCreate+0x106>
		vListInitialise( &( pxReadyTasksLists[ uxPriority ] ) );
 8003c1a:	4831      	ldr	r0, [pc, #196]	; (8003ce0 <xTaskCreate+0x180>)
 8003c1c:	f7ff f9bb 	bl	8002f96 <vListInitialise>
 8003c20:	4830      	ldr	r0, [pc, #192]	; (8003ce4 <xTaskCreate+0x184>)
 8003c22:	f7ff f9b8 	bl	8002f96 <vListInitialise>
 8003c26:	4830      	ldr	r0, [pc, #192]	; (8003ce8 <xTaskCreate+0x188>)
 8003c28:	f7ff f9b5 	bl	8002f96 <vListInitialise>
	vListInitialise( &xDelayedTaskList1 );
 8003c2c:	f8df 90ec 	ldr.w	r9, [pc, #236]	; 8003d1c <xTaskCreate+0x1bc>
		vListInitialise( &( pxReadyTasksLists[ uxPriority ] ) );
 8003c30:	482e      	ldr	r0, [pc, #184]	; (8003cec <xTaskCreate+0x18c>)
 8003c32:	f7ff f9b0 	bl	8002f96 <vListInitialise>
	vListInitialise( &xDelayedTaskList2 );
 8003c36:	4d2e      	ldr	r5, [pc, #184]	; (8003cf0 <xTaskCreate+0x190>)
		vListInitialise( &( pxReadyTasksLists[ uxPriority ] ) );
 8003c38:	482e      	ldr	r0, [pc, #184]	; (8003cf4 <xTaskCreate+0x194>)
 8003c3a:	f7ff f9ac 	bl	8002f96 <vListInitialise>
	vListInitialise( &xDelayedTaskList1 );
 8003c3e:	4648      	mov	r0, r9
 8003c40:	f7ff f9a9 	bl	8002f96 <vListInitialise>
	vListInitialise( &xDelayedTaskList2 );
 8003c44:	4628      	mov	r0, r5
 8003c46:	f7ff f9a6 	bl	8002f96 <vListInitialise>
	vListInitialise( &xPendingReadyList );
 8003c4a:	482b      	ldr	r0, [pc, #172]	; (8003cf8 <xTaskCreate+0x198>)
 8003c4c:	f7ff f9a3 	bl	8002f96 <vListInitialise>
		vListInitialise( &xTasksWaitingTermination );
 8003c50:	482a      	ldr	r0, [pc, #168]	; (8003cfc <xTaskCreate+0x19c>)
 8003c52:	f7ff f9a0 	bl	8002f96 <vListInitialise>
		vListInitialise( &xSuspendedTaskList );
 8003c56:	482a      	ldr	r0, [pc, #168]	; (8003d00 <xTaskCreate+0x1a0>)
 8003c58:	f7ff f99d 	bl	8002f96 <vListInitialise>
	pxDelayedTaskList = &xDelayedTaskList1;
 8003c5c:	4b29      	ldr	r3, [pc, #164]	; (8003d04 <xTaskCreate+0x1a4>)
 8003c5e:	f8c3 9000 	str.w	r9, [r3]
	pxOverflowDelayedTaskList = &xDelayedTaskList2;
 8003c62:	4b29      	ldr	r3, [pc, #164]	; (8003d08 <xTaskCreate+0x1a8>)
 8003c64:	601d      	str	r5, [r3, #0]
		prvAddTaskToReadyList( pxNewTCB );
 8003c66:	2501      	movs	r5, #1
		uxTaskNumber++;
 8003c68:	4a28      	ldr	r2, [pc, #160]	; (8003d0c <xTaskCreate+0x1ac>)
		prvAddTaskToReadyList( pxNewTCB );
 8003c6a:	4929      	ldr	r1, [pc, #164]	; (8003d10 <xTaskCreate+0x1b0>)
		uxTaskNumber++;
 8003c6c:	6813      	ldr	r3, [r2, #0]
		prvAddTaskToReadyList( pxNewTCB );
 8003c6e:	6808      	ldr	r0, [r1, #0]
		uxTaskNumber++;
 8003c70:	3301      	adds	r3, #1
 8003c72:	6013      	str	r3, [r2, #0]
		prvAddTaskToReadyList( pxNewTCB );
 8003c74:	6ae2      	ldr	r2, [r4, #44]	; 0x2c
 8003c76:	fa05 f302 	lsl.w	r3, r5, r2
 8003c7a:	4303      	orrs	r3, r0
 8003c7c:	2014      	movs	r0, #20
 8003c7e:	600b      	str	r3, [r1, #0]
 8003c80:	4b17      	ldr	r3, [pc, #92]	; (8003ce0 <xTaskCreate+0x180>)
 8003c82:	4639      	mov	r1, r7
 8003c84:	fb00 3002 	mla	r0, r0, r2, r3
 8003c88:	f7ff f993 	bl	8002fb2 <vListInsertEnd>
	taskEXIT_CRITICAL();
 8003c8c:	f7ff fa3c 	bl	8003108 <vPortExitCritical>
	if( xSchedulerRunning != pdFALSE )
 8003c90:	f8d8 3000 	ldr.w	r3, [r8]
 8003c94:	b163      	cbz	r3, 8003cb0 <xTaskCreate+0x150>
		if( pxCurrentTCB->uxPriority < pxNewTCB->uxPriority )
 8003c96:	6833      	ldr	r3, [r6, #0]
 8003c98:	6ada      	ldr	r2, [r3, #44]	; 0x2c
 8003c9a:	6ae3      	ldr	r3, [r4, #44]	; 0x2c
 8003c9c:	429a      	cmp	r2, r3
 8003c9e:	d207      	bcs.n	8003cb0 <xTaskCreate+0x150>
			taskYIELD_IF_USING_PREEMPTION();
 8003ca0:	f04f 5280 	mov.w	r2, #268435456	; 0x10000000
 8003ca4:	4b1b      	ldr	r3, [pc, #108]	; (8003d14 <xTaskCreate+0x1b4>)
 8003ca6:	601a      	str	r2, [r3, #0]
 8003ca8:	f3bf 8f4f 	dsb	sy
 8003cac:	f3bf 8f6f 	isb	sy
	}
 8003cb0:	4628      	mov	r0, r5
 8003cb2:	e8bd 8ff8 	ldmia.w	sp!, {r3, r4, r5, r6, r7, r8, r9, sl, fp, pc}
					vPortFree( pxStack );
 8003cb6:	4628      	mov	r0, r5
 8003cb8:	f7ff fbc0 	bl	800343c <vPortFree>
			xReturn = errCOULD_NOT_ALLOCATE_REQUIRED_MEMORY;
 8003cbc:	f04f 35ff 	mov.w	r5, #4294967295
 8003cc0:	e7f6      	b.n	8003cb0 <xTaskCreate+0x150>
			if( xSchedulerRunning == pdFALSE )
 8003cc2:	f8d8 3000 	ldr.w	r3, [r8]
 8003cc6:	2b00      	cmp	r3, #0
 8003cc8:	d1cd      	bne.n	8003c66 <xTaskCreate+0x106>
				if( pxCurrentTCB->uxPriority <= pxNewTCB->uxPriority )
 8003cca:	6833      	ldr	r3, [r6, #0]
 8003ccc:	6ada      	ldr	r2, [r3, #44]	; 0x2c
 8003cce:	6ae3      	ldr	r3, [r4, #44]	; 0x2c
 8003cd0:	429a      	cmp	r2, r3
					pxCurrentTCB = pxNewTCB;
 8003cd2:	bf98      	it	ls
 8003cd4:	6034      	strls	r4, [r6, #0]
 8003cd6:	e7c6      	b.n	8003c66 <xTaskCreate+0x106>
 8003cd8:	200043e4 	.word	0x200043e4
 8003cdc:	20004374 	.word	0x20004374
 8003ce0:	20004380 	.word	0x20004380
 8003ce4:	20004394 	.word	0x20004394
 8003ce8:	200043a8 	.word	0x200043a8
 8003cec:	200043bc 	.word	0x200043bc
 8003cf0:	20004410 	.word	0x20004410
 8003cf4:	200043d0 	.word	0x200043d0
 8003cf8:	20004430 	.word	0x20004430
 8003cfc:	2000445c 	.word	0x2000445c
 8003d00:	20004448 	.word	0x20004448
 8003d04:	20004378 	.word	0x20004378
 8003d08:	2000437c 	.word	0x2000437c
 8003d0c:	200043f4 	.word	0x200043f4
 8003d10:	200043f8 	.word	0x200043f8
 8003d14:	e000ed04 	.word	0xe000ed04
 8003d18:	20004444 	.word	0x20004444
 8003d1c:	200043fc 	.word	0x200043fc

08003d20 <vTaskDelete>:
	{
 8003d20:	b570      	push	{r4, r5, r6, lr}
 8003d22:	4604      	mov	r4, r0
 8003d24:	4d2a      	ldr	r5, [pc, #168]	; (8003dd0 <vTaskDelete+0xb0>)
		taskENTER_CRITICAL();
 8003d26:	f7ff f9cd 	bl	80030c4 <vPortEnterCritical>
			pxTCB = prvGetTCBFromHandle( xTaskToDelete );
 8003d2a:	b904      	cbnz	r4, 8003d2e <vTaskDelete+0xe>
 8003d2c:	682c      	ldr	r4, [r5, #0]
			if( uxListRemove( &( pxTCB->xStateListItem ) ) == ( UBaseType_t ) 0 )
 8003d2e:	1d26      	adds	r6, r4, #4
 8003d30:	4630      	mov	r0, r6
 8003d32:	f7ff f961 	bl	8002ff8 <uxListRemove>
 8003d36:	b960      	cbnz	r0, 8003d52 <vTaskDelete+0x32>
				taskRESET_READY_PRIORITY( pxTCB->uxPriority );
 8003d38:	2114      	movs	r1, #20
 8003d3a:	6ae0      	ldr	r0, [r4, #44]	; 0x2c
 8003d3c:	4b25      	ldr	r3, [pc, #148]	; (8003dd4 <vTaskDelete+0xb4>)
 8003d3e:	4341      	muls	r1, r0
 8003d40:	585b      	ldr	r3, [r3, r1]
 8003d42:	b933      	cbnz	r3, 8003d52 <vTaskDelete+0x32>
 8003d44:	2201      	movs	r2, #1
 8003d46:	4924      	ldr	r1, [pc, #144]	; (8003dd8 <vTaskDelete+0xb8>)
 8003d48:	4082      	lsls	r2, r0
 8003d4a:	680b      	ldr	r3, [r1, #0]
 8003d4c:	ea23 0302 	bic.w	r3, r3, r2
 8003d50:	600b      	str	r3, [r1, #0]
			if( listLIST_ITEM_CONTAINER( &( pxTCB->xEventListItem ) ) != NULL )
 8003d52:	6aa3      	ldr	r3, [r4, #40]	; 0x28
 8003d54:	b11b      	cbz	r3, 8003d5e <vTaskDelete+0x3e>
				( void ) uxListRemove( &( pxTCB->xEventListItem ) );
 8003d56:	f104 0018 	add.w	r0, r4, #24
 8003d5a:	f7ff f94d 	bl	8002ff8 <uxListRemove>
			uxTaskNumber++;
 8003d5e:	4a1f      	ldr	r2, [pc, #124]	; (8003ddc <vTaskDelete+0xbc>)
 8003d60:	6813      	ldr	r3, [r2, #0]
 8003d62:	3301      	adds	r3, #1
 8003d64:	6013      	str	r3, [r2, #0]
			if( pxTCB == pxCurrentTCB )
 8003d66:	682b      	ldr	r3, [r5, #0]
 8003d68:	429c      	cmp	r4, r3
 8003d6a:	d11b      	bne.n	8003da4 <vTaskDelete+0x84>
				vListInsertEnd( &xTasksWaitingTermination, &( pxTCB->xStateListItem ) );
 8003d6c:	4631      	mov	r1, r6
 8003d6e:	481c      	ldr	r0, [pc, #112]	; (8003de0 <vTaskDelete+0xc0>)
 8003d70:	f7ff f91f 	bl	8002fb2 <vListInsertEnd>
				++uxDeletedTasksWaitingCleanUp;
 8003d74:	4a1b      	ldr	r2, [pc, #108]	; (8003de4 <vTaskDelete+0xc4>)
 8003d76:	6813      	ldr	r3, [r2, #0]
 8003d78:	3301      	adds	r3, #1
 8003d7a:	6013      	str	r3, [r2, #0]
		taskEXIT_CRITICAL();
 8003d7c:	f7ff f9c4 	bl	8003108 <vPortExitCritical>
		if( xSchedulerRunning != pdFALSE )
 8003d80:	4b19      	ldr	r3, [pc, #100]	; (8003de8 <vTaskDelete+0xc8>)
 8003d82:	681b      	ldr	r3, [r3, #0]
 8003d84:	b31b      	cbz	r3, 8003dce <vTaskDelete+0xae>
			if( pxTCB == pxCurrentTCB )
 8003d86:	682b      	ldr	r3, [r5, #0]
 8003d88:	429c      	cmp	r4, r3
 8003d8a:	d120      	bne.n	8003dce <vTaskDelete+0xae>
				configASSERT( uxSchedulerSuspended == 0 );
 8003d8c:	4b17      	ldr	r3, [pc, #92]	; (8003dec <vTaskDelete+0xcc>)
 8003d8e:	681b      	ldr	r3, [r3, #0]
 8003d90:	b1ab      	cbz	r3, 8003dbe <vTaskDelete+0x9e>
 8003d92:	f04f 0350 	mov.w	r3, #80	; 0x50
 8003d96:	f383 8811 	msr	BASEPRI, r3
 8003d9a:	f3bf 8f6f 	isb	sy
 8003d9e:	f3bf 8f4f 	dsb	sy
 8003da2:	e7fe      	b.n	8003da2 <vTaskDelete+0x82>
				--uxCurrentNumberOfTasks;
 8003da4:	4a12      	ldr	r2, [pc, #72]	; (8003df0 <vTaskDelete+0xd0>)
			vPortFree( pxTCB->pxStack );
 8003da6:	6b20      	ldr	r0, [r4, #48]	; 0x30
				--uxCurrentNumberOfTasks;
 8003da8:	6813      	ldr	r3, [r2, #0]
 8003daa:	3b01      	subs	r3, #1
 8003dac:	6013      	str	r3, [r2, #0]
			vPortFree( pxTCB->pxStack );
 8003dae:	f7ff fb45 	bl	800343c <vPortFree>
			vPortFree( pxTCB );
 8003db2:	4620      	mov	r0, r4
 8003db4:	f7ff fb42 	bl	800343c <vPortFree>
				prvResetNextTaskUnblockTime();
 8003db8:	f7ff fe44 	bl	8003a44 <prvResetNextTaskUnblockTime>
 8003dbc:	e7de      	b.n	8003d7c <vTaskDelete+0x5c>
				portYIELD_WITHIN_API();
 8003dbe:	f04f 5280 	mov.w	r2, #268435456	; 0x10000000
 8003dc2:	4b0c      	ldr	r3, [pc, #48]	; (8003df4 <vTaskDelete+0xd4>)
 8003dc4:	601a      	str	r2, [r3, #0]
 8003dc6:	f3bf 8f4f 	dsb	sy
 8003dca:	f3bf 8f6f 	isb	sy
 8003dce:	bd70      	pop	{r4, r5, r6, pc}
 8003dd0:	20004374 	.word	0x20004374
 8003dd4:	20004380 	.word	0x20004380
 8003dd8:	200043f8 	.word	0x200043f8
 8003ddc:	200043f4 	.word	0x200043f4
 8003de0:	2000445c 	.word	0x2000445c
 8003de4:	200043e8 	.word	0x200043e8
 8003de8:	20004444 	.word	0x20004444
 8003dec:	200043f0 	.word	0x200043f0
 8003df0:	200043e4 	.word	0x200043e4
 8003df4:	e000ed04 	.word	0xe000ed04

08003df8 <vTaskStartScheduler>:
{
 8003df8:	b513      	push	{r0, r1, r4, lr}
		xReturn = xTaskCreate(	prvIdleTask,
 8003dfa:	2400      	movs	r4, #0
 8003dfc:	4b18      	ldr	r3, [pc, #96]	; (8003e60 <vTaskStartScheduler+0x68>)
 8003dfe:	9400      	str	r4, [sp, #0]
 8003e00:	9301      	str	r3, [sp, #4]
 8003e02:	2246      	movs	r2, #70	; 0x46
 8003e04:	4623      	mov	r3, r4
 8003e06:	4917      	ldr	r1, [pc, #92]	; (8003e64 <vTaskStartScheduler+0x6c>)
 8003e08:	4817      	ldr	r0, [pc, #92]	; (8003e68 <vTaskStartScheduler+0x70>)
 8003e0a:	f7ff fea9 	bl	8003b60 <xTaskCreate>
		if( xReturn == pdPASS )
 8003e0e:	2801      	cmp	r0, #1
 8003e10:	d118      	bne.n	8003e44 <vTaskStartScheduler+0x4c>
			xReturn = xTimerCreateTimerTask();
 8003e12:	f000 fbfd 	bl	8004610 <xTimerCreateTimerTask>
	if( xReturn == pdPASS )
 8003e16:	2801      	cmp	r0, #1
 8003e18:	d114      	bne.n	8003e44 <vTaskStartScheduler+0x4c>
 8003e1a:	f04f 0350 	mov.w	r3, #80	; 0x50
 8003e1e:	f383 8811 	msr	BASEPRI, r3
 8003e22:	f3bf 8f6f 	isb	sy
 8003e26:	f3bf 8f4f 	dsb	sy
		xNextTaskUnblockTime = portMAX_DELAY;
 8003e2a:	f04f 32ff 	mov.w	r2, #4294967295
 8003e2e:	4b0f      	ldr	r3, [pc, #60]	; (8003e6c <vTaskStartScheduler+0x74>)
 8003e30:	601a      	str	r2, [r3, #0]
		xSchedulerRunning = pdTRUE;
 8003e32:	4b0f      	ldr	r3, [pc, #60]	; (8003e70 <vTaskStartScheduler+0x78>)
 8003e34:	6018      	str	r0, [r3, #0]
		xTickCount = ( TickType_t ) 0U;
 8003e36:	4b0f      	ldr	r3, [pc, #60]	; (8003e74 <vTaskStartScheduler+0x7c>)
 8003e38:	601c      	str	r4, [r3, #0]
}
 8003e3a:	b002      	add	sp, #8
 8003e3c:	e8bd 4010 	ldmia.w	sp!, {r4, lr}
		if( xPortStartScheduler() != pdFALSE )
 8003e40:	f7ff b9c2 	b.w	80031c8 <xPortStartScheduler>
		configASSERT( xReturn != errCOULD_NOT_ALLOCATE_REQUIRED_MEMORY );
 8003e44:	3001      	adds	r0, #1
 8003e46:	d108      	bne.n	8003e5a <vTaskStartScheduler+0x62>
 8003e48:	f04f 0350 	mov.w	r3, #80	; 0x50
 8003e4c:	f383 8811 	msr	BASEPRI, r3
 8003e50:	f3bf 8f6f 	isb	sy
 8003e54:	f3bf 8f4f 	dsb	sy
 8003e58:	e7fe      	b.n	8003e58 <vTaskStartScheduler+0x60>
}
 8003e5a:	b002      	add	sp, #8
 8003e5c:	bd10      	pop	{r4, pc}
 8003e5e:	bf00      	nop
 8003e60:	20004424 	.word	0x20004424
 8003e64:	080080c3 	.word	0x080080c3
 8003e68:	08003af5 	.word	0x08003af5
 8003e6c:	20004428 	.word	0x20004428
 8003e70:	20004444 	.word	0x20004444
 8003e74:	20004470 	.word	0x20004470

08003e78 <vTaskSuspendAll>:
	++uxSchedulerSuspended;
 8003e78:	4a02      	ldr	r2, [pc, #8]	; (8003e84 <vTaskSuspendAll+0xc>)
 8003e7a:	6813      	ldr	r3, [r2, #0]
 8003e7c:	3301      	adds	r3, #1
 8003e7e:	6013      	str	r3, [r2, #0]
 8003e80:	4770      	bx	lr
 8003e82:	bf00      	nop
 8003e84:	200043f0 	.word	0x200043f0

08003e88 <xTaskGetTickCount>:
		xTicks = xTickCount;
 8003e88:	4b01      	ldr	r3, [pc, #4]	; (8003e90 <xTaskGetTickCount+0x8>)
 8003e8a:	6818      	ldr	r0, [r3, #0]
}
 8003e8c:	4770      	bx	lr
 8003e8e:	bf00      	nop
 8003e90:	20004470 	.word	0x20004470

08003e94 <xTaskIncrementTick>:
{
 8003e94:	e92d 4ff8 	stmdb	sp!, {r3, r4, r5, r6, r7, r8, r9, sl, fp, lr}
	if( uxSchedulerSuspended == ( UBaseType_t ) pdFALSE )
 8003e98:	4b3c      	ldr	r3, [pc, #240]	; (8003f8c <xTaskIncrementTick+0xf8>)
 8003e9a:	681b      	ldr	r3, [r3, #0]
 8003e9c:	2b00      	cmp	r3, #0
 8003e9e:	d153      	bne.n	8003f48 <xTaskIncrementTick+0xb4>
		const TickType_t xConstTickCount = xTickCount + ( TickType_t ) 1;
 8003ea0:	4b3b      	ldr	r3, [pc, #236]	; (8003f90 <xTaskIncrementTick+0xfc>)
 8003ea2:	681c      	ldr	r4, [r3, #0]
 8003ea4:	3401      	adds	r4, #1
		xTickCount = xConstTickCount;
 8003ea6:	601c      	str	r4, [r3, #0]
		if( xConstTickCount == ( TickType_t ) 0U ) /*lint !e774 'if' does not always evaluate to false as it is looking for an overflow. */
 8003ea8:	b9bc      	cbnz	r4, 8003eda <xTaskIncrementTick+0x46>
			taskSWITCH_DELAYED_LISTS();
 8003eaa:	4b3a      	ldr	r3, [pc, #232]	; (8003f94 <xTaskIncrementTick+0x100>)
 8003eac:	681a      	ldr	r2, [r3, #0]
 8003eae:	6812      	ldr	r2, [r2, #0]
 8003eb0:	b142      	cbz	r2, 8003ec4 <xTaskIncrementTick+0x30>
 8003eb2:	f04f 0350 	mov.w	r3, #80	; 0x50
 8003eb6:	f383 8811 	msr	BASEPRI, r3
 8003eba:	f3bf 8f6f 	isb	sy
 8003ebe:	f3bf 8f4f 	dsb	sy
 8003ec2:	e7fe      	b.n	8003ec2 <xTaskIncrementTick+0x2e>
 8003ec4:	4a34      	ldr	r2, [pc, #208]	; (8003f98 <xTaskIncrementTick+0x104>)
 8003ec6:	6819      	ldr	r1, [r3, #0]
 8003ec8:	6810      	ldr	r0, [r2, #0]
 8003eca:	6018      	str	r0, [r3, #0]
 8003ecc:	6011      	str	r1, [r2, #0]
 8003ece:	4a33      	ldr	r2, [pc, #204]	; (8003f9c <xTaskIncrementTick+0x108>)
 8003ed0:	6813      	ldr	r3, [r2, #0]
 8003ed2:	3301      	adds	r3, #1
 8003ed4:	6013      	str	r3, [r2, #0]
 8003ed6:	f7ff fdb5 	bl	8003a44 <prvResetNextTaskUnblockTime>
		if( xConstTickCount >= xNextTaskUnblockTime )
 8003eda:	4d31      	ldr	r5, [pc, #196]	; (8003fa0 <xTaskIncrementTick+0x10c>)
 8003edc:	f04f 0b00 	mov.w	fp, #0
 8003ee0:	682b      	ldr	r3, [r5, #0]
 8003ee2:	4f30      	ldr	r7, [pc, #192]	; (8003fa4 <xTaskIncrementTick+0x110>)
 8003ee4:	429c      	cmp	r4, r3
 8003ee6:	d33e      	bcc.n	8003f66 <xTaskIncrementTick+0xd2>
				if( listLIST_IS_EMPTY( pxDelayedTaskList ) != pdFALSE )
 8003ee8:	f8df 80a8 	ldr.w	r8, [pc, #168]	; 8003f94 <xTaskIncrementTick+0x100>
					prvAddTaskToReadyList( pxTCB );
 8003eec:	f8df 90c4 	ldr.w	r9, [pc, #196]	; 8003fb4 <xTaskIncrementTick+0x120>
				if( listLIST_IS_EMPTY( pxDelayedTaskList ) != pdFALSE )
 8003ef0:	f8d8 2000 	ldr.w	r2, [r8]
 8003ef4:	6812      	ldr	r2, [r2, #0]
 8003ef6:	bb72      	cbnz	r2, 8003f56 <xTaskIncrementTick+0xc2>
					xNextTaskUnblockTime = portMAX_DELAY; /*lint !e961 MISRA exception as the casts are only redundant for some ports. */
 8003ef8:	f04f 32ff 	mov.w	r2, #4294967295
 8003efc:	602a      	str	r2, [r5, #0]
					break;
 8003efe:	e032      	b.n	8003f66 <xTaskIncrementTick+0xd2>
					( void ) uxListRemove( &( pxTCB->xStateListItem ) );
 8003f00:	f106 0a04 	add.w	sl, r6, #4
 8003f04:	4650      	mov	r0, sl
 8003f06:	f7ff f877 	bl	8002ff8 <uxListRemove>
					if( listLIST_ITEM_CONTAINER( &( pxTCB->xEventListItem ) ) != NULL )
 8003f0a:	6ab1      	ldr	r1, [r6, #40]	; 0x28
 8003f0c:	b119      	cbz	r1, 8003f16 <xTaskIncrementTick+0x82>
						( void ) uxListRemove( &( pxTCB->xEventListItem ) );
 8003f0e:	f106 0018 	add.w	r0, r6, #24
 8003f12:	f7ff f871 	bl	8002ff8 <uxListRemove>
					prvAddTaskToReadyList( pxTCB );
 8003f16:	2201      	movs	r2, #1
 8003f18:	f04f 0e14 	mov.w	lr, #20
 8003f1c:	6af0      	ldr	r0, [r6, #44]	; 0x2c
 8003f1e:	f8d9 3000 	ldr.w	r3, [r9]
 8003f22:	fa02 f100 	lsl.w	r1, r2, r0
 8003f26:	4319      	orrs	r1, r3
 8003f28:	4b1f      	ldr	r3, [pc, #124]	; (8003fa8 <xTaskIncrementTick+0x114>)
 8003f2a:	f8c9 1000 	str.w	r1, [r9]
 8003f2e:	fb0e 3000 	mla	r0, lr, r0, r3
 8003f32:	4651      	mov	r1, sl
 8003f34:	f7ff f83d 	bl	8002fb2 <vListInsertEnd>
						if( pxTCB->uxPriority >= pxCurrentTCB->uxPriority )
 8003f38:	6838      	ldr	r0, [r7, #0]
 8003f3a:	6af1      	ldr	r1, [r6, #44]	; 0x2c
 8003f3c:	6ac2      	ldr	r2, [r0, #44]	; 0x2c
							xSwitchRequired = pdTRUE;
 8003f3e:	4291      	cmp	r1, r2
 8003f40:	bf28      	it	cs
 8003f42:	f04f 0b01 	movcs.w	fp, #1
 8003f46:	e7d3      	b.n	8003ef0 <xTaskIncrementTick+0x5c>
		++uxPendedTicks;
 8003f48:	4a18      	ldr	r2, [pc, #96]	; (8003fac <xTaskIncrementTick+0x118>)
BaseType_t xSwitchRequired = pdFALSE;
 8003f4a:	f04f 0b00 	mov.w	fp, #0
		++uxPendedTicks;
 8003f4e:	6813      	ldr	r3, [r2, #0]
 8003f50:	3301      	adds	r3, #1
 8003f52:	6013      	str	r3, [r2, #0]
 8003f54:	e011      	b.n	8003f7a <xTaskIncrementTick+0xe6>
					pxTCB = ( TCB_t * ) listGET_OWNER_OF_HEAD_ENTRY( pxDelayedTaskList );
 8003f56:	f8d8 2000 	ldr.w	r2, [r8]
 8003f5a:	68d2      	ldr	r2, [r2, #12]
 8003f5c:	68d6      	ldr	r6, [r2, #12]
					xItemValue = listGET_LIST_ITEM_VALUE( &( pxTCB->xStateListItem ) );
 8003f5e:	6871      	ldr	r1, [r6, #4]
					if( xConstTickCount < xItemValue )
 8003f60:	428c      	cmp	r4, r1
 8003f62:	d2cd      	bcs.n	8003f00 <xTaskIncrementTick+0x6c>
						xNextTaskUnblockTime = xItemValue;
 8003f64:	6029      	str	r1, [r5, #0]
			if( listCURRENT_LIST_LENGTH( &( pxReadyTasksLists[ pxCurrentTCB->uxPriority ] ) ) > ( UBaseType_t ) 1 )
 8003f66:	683a      	ldr	r2, [r7, #0]
 8003f68:	4b0f      	ldr	r3, [pc, #60]	; (8003fa8 <xTaskIncrementTick+0x114>)
 8003f6a:	6ad1      	ldr	r1, [r2, #44]	; 0x2c
 8003f6c:	2214      	movs	r2, #20
 8003f6e:	434a      	muls	r2, r1
 8003f70:	589a      	ldr	r2, [r3, r2]
				xSwitchRequired = pdTRUE;
 8003f72:	2a02      	cmp	r2, #2
 8003f74:	bf28      	it	cs
 8003f76:	f04f 0b01 	movcs.w	fp, #1
		if( xYieldPending != pdFALSE )
 8003f7a:	4a0d      	ldr	r2, [pc, #52]	; (8003fb0 <xTaskIncrementTick+0x11c>)
 8003f7c:	6812      	ldr	r2, [r2, #0]
			xSwitchRequired = pdTRUE;
 8003f7e:	2a00      	cmp	r2, #0
 8003f80:	bf18      	it	ne
 8003f82:	f04f 0b01 	movne.w	fp, #1
}
 8003f86:	4658      	mov	r0, fp
 8003f88:	e8bd 8ff8 	ldmia.w	sp!, {r3, r4, r5, r6, r7, r8, r9, sl, fp, pc}
 8003f8c:	200043f0 	.word	0x200043f0
 8003f90:	20004470 	.word	0x20004470
 8003f94:	20004378 	.word	0x20004378
 8003f98:	2000437c 	.word	0x2000437c
 8003f9c:	2000442c 	.word	0x2000442c
 8003fa0:	20004428 	.word	0x20004428
 8003fa4:	20004374 	.word	0x20004374
 8003fa8:	20004380 	.word	0x20004380
 8003fac:	200043ec 	.word	0x200043ec
 8003fb0:	20004474 	.word	0x20004474
 8003fb4:	200043f8 	.word	0x200043f8

08003fb8 <xTaskResumeAll>:
{
 8003fb8:	e92d 43f8 	stmdb	sp!, {r3, r4, r5, r6, r7, r8, r9, lr}
	configASSERT( uxSchedulerSuspended );
 8003fbc:	4c31      	ldr	r4, [pc, #196]	; (8004084 <xTaskResumeAll+0xcc>)
 8003fbe:	6823      	ldr	r3, [r4, #0]
 8003fc0:	b943      	cbnz	r3, 8003fd4 <xTaskResumeAll+0x1c>
 8003fc2:	f04f 0350 	mov.w	r3, #80	; 0x50
 8003fc6:	f383 8811 	msr	BASEPRI, r3
 8003fca:	f3bf 8f6f 	isb	sy
 8003fce:	f3bf 8f4f 	dsb	sy
 8003fd2:	e7fe      	b.n	8003fd2 <xTaskResumeAll+0x1a>
	taskENTER_CRITICAL();
 8003fd4:	f7ff f876 	bl	80030c4 <vPortEnterCritical>
		--uxSchedulerSuspended;
 8003fd8:	6823      	ldr	r3, [r4, #0]
 8003fda:	3b01      	subs	r3, #1
 8003fdc:	6023      	str	r3, [r4, #0]
		if( uxSchedulerSuspended == ( UBaseType_t ) pdFALSE )
 8003fde:	6824      	ldr	r4, [r4, #0]
 8003fe0:	b12c      	cbz	r4, 8003fee <xTaskResumeAll+0x36>
BaseType_t xAlreadyYielded = pdFALSE;
 8003fe2:	2400      	movs	r4, #0
	taskEXIT_CRITICAL();
 8003fe4:	f7ff f890 	bl	8003108 <vPortExitCritical>
}
 8003fe8:	4620      	mov	r0, r4
 8003fea:	e8bd 83f8 	ldmia.w	sp!, {r3, r4, r5, r6, r7, r8, r9, pc}
			if( uxCurrentNumberOfTasks > ( UBaseType_t ) 0U )
 8003fee:	4b26      	ldr	r3, [pc, #152]	; (8004088 <xTaskResumeAll+0xd0>)
 8003ff0:	681b      	ldr	r3, [r3, #0]
 8003ff2:	2b00      	cmp	r3, #0
 8003ff4:	d0f5      	beq.n	8003fe2 <xTaskResumeAll+0x2a>
				while( listLIST_IS_EMPTY( &xPendingReadyList ) == pdFALSE )
 8003ff6:	f8df 90a8 	ldr.w	r9, [pc, #168]	; 80040a0 <xTaskResumeAll+0xe8>
					prvAddTaskToReadyList( pxTCB );
 8003ffa:	4f24      	ldr	r7, [pc, #144]	; (800408c <xTaskResumeAll+0xd4>)
 8003ffc:	f8df 80a4 	ldr.w	r8, [pc, #164]	; 80040a4 <xTaskResumeAll+0xec>
				while( listLIST_IS_EMPTY( &xPendingReadyList ) == pdFALSE )
 8004000:	f8d9 3000 	ldr.w	r3, [r9]
 8004004:	b9e3      	cbnz	r3, 8004040 <xTaskResumeAll+0x88>
				if( pxTCB != NULL )
 8004006:	b10c      	cbz	r4, 800400c <xTaskResumeAll+0x54>
					prvResetNextTaskUnblockTime();
 8004008:	f7ff fd1c 	bl	8003a44 <prvResetNextTaskUnblockTime>
					UBaseType_t uxPendedCounts = uxPendedTicks; /* Non-volatile copy. */
 800400c:	4d20      	ldr	r5, [pc, #128]	; (8004090 <xTaskResumeAll+0xd8>)
 800400e:	682c      	ldr	r4, [r5, #0]
					if( uxPendedCounts > ( UBaseType_t ) 0U )
 8004010:	b144      	cbz	r4, 8004024 <xTaskResumeAll+0x6c>
								xYieldPending = pdTRUE;
 8004012:	2701      	movs	r7, #1
 8004014:	4e1f      	ldr	r6, [pc, #124]	; (8004094 <xTaskResumeAll+0xdc>)
							if( xTaskIncrementTick() != pdFALSE )
 8004016:	f7ff ff3d 	bl	8003e94 <xTaskIncrementTick>
 800401a:	b100      	cbz	r0, 800401e <xTaskResumeAll+0x66>
								xYieldPending = pdTRUE;
 800401c:	6037      	str	r7, [r6, #0]
						} while( uxPendedCounts > ( UBaseType_t ) 0U );
 800401e:	3c01      	subs	r4, #1
 8004020:	d1f9      	bne.n	8004016 <xTaskResumeAll+0x5e>
						uxPendedTicks = 0;
 8004022:	602c      	str	r4, [r5, #0]
				if( xYieldPending != pdFALSE )
 8004024:	4b1b      	ldr	r3, [pc, #108]	; (8004094 <xTaskResumeAll+0xdc>)
 8004026:	681b      	ldr	r3, [r3, #0]
 8004028:	2b00      	cmp	r3, #0
 800402a:	d0da      	beq.n	8003fe2 <xTaskResumeAll+0x2a>
					taskYIELD_IF_USING_PREEMPTION();
 800402c:	f04f 5280 	mov.w	r2, #268435456	; 0x10000000
 8004030:	4b19      	ldr	r3, [pc, #100]	; (8004098 <xTaskResumeAll+0xe0>)
 8004032:	601a      	str	r2, [r3, #0]
 8004034:	f3bf 8f4f 	dsb	sy
 8004038:	f3bf 8f6f 	isb	sy
						xAlreadyYielded = pdTRUE;
 800403c:	2401      	movs	r4, #1
 800403e:	e7d1      	b.n	8003fe4 <xTaskResumeAll+0x2c>
					pxTCB = ( TCB_t * ) listGET_OWNER_OF_HEAD_ENTRY( ( &xPendingReadyList ) );
 8004040:	f8d9 300c 	ldr.w	r3, [r9, #12]
					prvAddTaskToReadyList( pxTCB );
 8004044:	2501      	movs	r5, #1
					pxTCB = ( TCB_t * ) listGET_OWNER_OF_HEAD_ENTRY( ( &xPendingReadyList ) );
 8004046:	68dc      	ldr	r4, [r3, #12]
					( void ) uxListRemove( &( pxTCB->xStateListItem ) );
 8004048:	1d26      	adds	r6, r4, #4
					( void ) uxListRemove( &( pxTCB->xEventListItem ) );
 800404a:	f104 0018 	add.w	r0, r4, #24
 800404e:	f7fe ffd3 	bl	8002ff8 <uxListRemove>
					( void ) uxListRemove( &( pxTCB->xStateListItem ) );
 8004052:	4630      	mov	r0, r6
 8004054:	f7fe ffd0 	bl	8002ff8 <uxListRemove>
					prvAddTaskToReadyList( pxTCB );
 8004058:	2014      	movs	r0, #20
 800405a:	6ae2      	ldr	r2, [r4, #44]	; 0x2c
 800405c:	6839      	ldr	r1, [r7, #0]
 800405e:	fa05 f302 	lsl.w	r3, r5, r2
 8004062:	430b      	orrs	r3, r1
 8004064:	fb00 8002 	mla	r0, r0, r2, r8
 8004068:	4631      	mov	r1, r6
 800406a:	603b      	str	r3, [r7, #0]
 800406c:	f7fe ffa1 	bl	8002fb2 <vListInsertEnd>
					if( pxTCB->uxPriority >= pxCurrentTCB->uxPriority )
 8004070:	4b0a      	ldr	r3, [pc, #40]	; (800409c <xTaskResumeAll+0xe4>)
 8004072:	6ae2      	ldr	r2, [r4, #44]	; 0x2c
 8004074:	681b      	ldr	r3, [r3, #0]
 8004076:	6adb      	ldr	r3, [r3, #44]	; 0x2c
 8004078:	429a      	cmp	r2, r3
						xYieldPending = pdTRUE;
 800407a:	bf24      	itt	cs
 800407c:	4b05      	ldrcs	r3, [pc, #20]	; (8004094 <xTaskResumeAll+0xdc>)
 800407e:	601d      	strcs	r5, [r3, #0]
 8004080:	e7be      	b.n	8004000 <xTaskResumeAll+0x48>
 8004082:	bf00      	nop
 8004084:	200043f0 	.word	0x200043f0
 8004088:	200043e4 	.word	0x200043e4
 800408c:	200043f8 	.word	0x200043f8
 8004090:	200043ec 	.word	0x200043ec
 8004094:	20004474 	.word	0x20004474
 8004098:	e000ed04 	.word	0xe000ed04
 800409c:	20004374 	.word	0x20004374
 80040a0:	20004430 	.word	0x20004430
 80040a4:	20004380 	.word	0x20004380

080040a8 <vTaskDelay>:
	{
 80040a8:	b508      	push	{r3, lr}
		if( xTicksToDelay > ( TickType_t ) 0U )
 80040aa:	b940      	cbnz	r0, 80040be <vTaskDelay+0x16>
			portYIELD_WITHIN_API();
 80040ac:	f04f 5280 	mov.w	r2, #268435456	; 0x10000000
 80040b0:	4b0d      	ldr	r3, [pc, #52]	; (80040e8 <vTaskDelay+0x40>)
 80040b2:	601a      	str	r2, [r3, #0]
 80040b4:	f3bf 8f4f 	dsb	sy
 80040b8:	f3bf 8f6f 	isb	sy
 80040bc:	bd08      	pop	{r3, pc}
			configASSERT( uxSchedulerSuspended == 0 );
 80040be:	4b0b      	ldr	r3, [pc, #44]	; (80040ec <vTaskDelay+0x44>)
 80040c0:	6819      	ldr	r1, [r3, #0]
 80040c2:	b141      	cbz	r1, 80040d6 <vTaskDelay+0x2e>
 80040c4:	f04f 0350 	mov.w	r3, #80	; 0x50
 80040c8:	f383 8811 	msr	BASEPRI, r3
 80040cc:	f3bf 8f6f 	isb	sy
 80040d0:	f3bf 8f4f 	dsb	sy
 80040d4:	e7fe      	b.n	80040d4 <vTaskDelay+0x2c>
			vTaskSuspendAll();
 80040d6:	f7ff fecf 	bl	8003e78 <vTaskSuspendAll>
				prvAddCurrentTaskToDelayedList( xTicksToDelay, pdFALSE );
 80040da:	f7ff fcc5 	bl	8003a68 <prvAddCurrentTaskToDelayedList>
			xAlreadyYielded = xTaskResumeAll();
 80040de:	f7ff ff6b 	bl	8003fb8 <xTaskResumeAll>
		if( xAlreadyYielded == pdFALSE )
 80040e2:	2800      	cmp	r0, #0
 80040e4:	d0e2      	beq.n	80040ac <vTaskDelay+0x4>
 80040e6:	bd08      	pop	{r3, pc}
 80040e8:	e000ed04 	.word	0xe000ed04
 80040ec:	200043f0 	.word	0x200043f0

080040f0 <vTaskSwitchContext>:
	if( uxSchedulerSuspended != ( UBaseType_t ) pdFALSE )
 80040f0:	4b17      	ldr	r3, [pc, #92]	; (8004150 <vTaskSwitchContext+0x60>)
{
 80040f2:	b510      	push	{r4, lr}
	if( uxSchedulerSuspended != ( UBaseType_t ) pdFALSE )
 80040f4:	681a      	ldr	r2, [r3, #0]
 80040f6:	4b17      	ldr	r3, [pc, #92]	; (8004154 <vTaskSwitchContext+0x64>)
 80040f8:	b112      	cbz	r2, 8004100 <vTaskSwitchContext+0x10>
		xYieldPending = pdTRUE;
 80040fa:	2201      	movs	r2, #1
		taskSELECT_HIGHEST_PRIORITY_TASK();
 80040fc:	601a      	str	r2, [r3, #0]
 80040fe:	bd10      	pop	{r4, pc}
		xYieldPending = pdFALSE;
 8004100:	601a      	str	r2, [r3, #0]
		taskSELECT_HIGHEST_PRIORITY_TASK();
 8004102:	4b15      	ldr	r3, [pc, #84]	; (8004158 <vTaskSwitchContext+0x68>)
 8004104:	681b      	ldr	r3, [r3, #0]
		__asm volatile ( "clz %0, %1" : "=r" ( ucReturn ) : "r" ( ulBitmap ) : "memory" );
 8004106:	fab3 f383 	clz	r3, r3
 800410a:	2214      	movs	r2, #20
 800410c:	b2db      	uxtb	r3, r3
 800410e:	f1c3 031f 	rsb	r3, r3, #31
 8004112:	435a      	muls	r2, r3
 8004114:	4911      	ldr	r1, [pc, #68]	; (800415c <vTaskSwitchContext+0x6c>)
 8004116:	588c      	ldr	r4, [r1, r2]
 8004118:	1888      	adds	r0, r1, r2
 800411a:	b944      	cbnz	r4, 800412e <vTaskSwitchContext+0x3e>
	__asm volatile
 800411c:	f04f 0350 	mov.w	r3, #80	; 0x50
 8004120:	f383 8811 	msr	BASEPRI, r3
 8004124:	f3bf 8f6f 	isb	sy
 8004128:	f3bf 8f4f 	dsb	sy
 800412c:	e7fe      	b.n	800412c <vTaskSwitchContext+0x3c>
 800412e:	6844      	ldr	r4, [r0, #4]
 8004130:	3208      	adds	r2, #8
 8004132:	6864      	ldr	r4, [r4, #4]
 8004134:	440a      	add	r2, r1
 8004136:	4294      	cmp	r4, r2
 8004138:	bf08      	it	eq
 800413a:	6862      	ldreq	r2, [r4, #4]
 800413c:	6044      	str	r4, [r0, #4]
 800413e:	bf08      	it	eq
 8004140:	6042      	streq	r2, [r0, #4]
 8004142:	2214      	movs	r2, #20
 8004144:	fb02 1303 	mla	r3, r2, r3, r1
 8004148:	685b      	ldr	r3, [r3, #4]
 800414a:	68da      	ldr	r2, [r3, #12]
 800414c:	4b04      	ldr	r3, [pc, #16]	; (8004160 <vTaskSwitchContext+0x70>)
 800414e:	e7d5      	b.n	80040fc <vTaskSwitchContext+0xc>
 8004150:	200043f0 	.word	0x200043f0
 8004154:	20004474 	.word	0x20004474
 8004158:	200043f8 	.word	0x200043f8
 800415c:	20004380 	.word	0x20004380
 8004160:	20004374 	.word	0x20004374

08004164 <vTaskSuspend>:
	{
 8004164:	b570      	push	{r4, r5, r6, lr}
 8004166:	4604      	mov	r4, r0
 8004168:	4e2c      	ldr	r6, [pc, #176]	; (800421c <vTaskSuspend+0xb8>)
		taskENTER_CRITICAL();
 800416a:	f7fe ffab 	bl	80030c4 <vPortEnterCritical>
			pxTCB = prvGetTCBFromHandle( xTaskToSuspend );
 800416e:	b904      	cbnz	r4, 8004172 <vTaskSuspend+0xe>
 8004170:	6834      	ldr	r4, [r6, #0]
			if( uxListRemove( &( pxTCB->xStateListItem ) ) == ( UBaseType_t ) 0 )
 8004172:	1d25      	adds	r5, r4, #4
 8004174:	4628      	mov	r0, r5
 8004176:	f7fe ff3f 	bl	8002ff8 <uxListRemove>
 800417a:	b960      	cbnz	r0, 8004196 <vTaskSuspend+0x32>
				taskRESET_READY_PRIORITY( pxTCB->uxPriority );
 800417c:	2114      	movs	r1, #20
 800417e:	6ae0      	ldr	r0, [r4, #44]	; 0x2c
 8004180:	4b27      	ldr	r3, [pc, #156]	; (8004220 <vTaskSuspend+0xbc>)
 8004182:	4341      	muls	r1, r0
 8004184:	585b      	ldr	r3, [r3, r1]
 8004186:	b933      	cbnz	r3, 8004196 <vTaskSuspend+0x32>
 8004188:	2201      	movs	r2, #1
 800418a:	4926      	ldr	r1, [pc, #152]	; (8004224 <vTaskSuspend+0xc0>)
 800418c:	4082      	lsls	r2, r0
 800418e:	680b      	ldr	r3, [r1, #0]
 8004190:	ea23 0302 	bic.w	r3, r3, r2
 8004194:	600b      	str	r3, [r1, #0]
			if( listLIST_ITEM_CONTAINER( &( pxTCB->xEventListItem ) ) != NULL )
 8004196:	6aa3      	ldr	r3, [r4, #40]	; 0x28
 8004198:	b11b      	cbz	r3, 80041a2 <vTaskSuspend+0x3e>
				( void ) uxListRemove( &( pxTCB->xEventListItem ) );
 800419a:	f104 0018 	add.w	r0, r4, #24
 800419e:	f7fe ff2b 	bl	8002ff8 <uxListRemove>
			vListInsertEnd( &xSuspendedTaskList, &( pxTCB->xStateListItem ) );
 80041a2:	4629      	mov	r1, r5
 80041a4:	4820      	ldr	r0, [pc, #128]	; (8004228 <vTaskSuspend+0xc4>)
 80041a6:	f7fe ff04 	bl	8002fb2 <vListInsertEnd>
				if( pxTCB->ucNotifyState == taskWAITING_NOTIFICATION )
 80041aa:	f894 304c 	ldrb.w	r3, [r4, #76]	; 0x4c
		if( xSchedulerRunning != pdFALSE )
 80041ae:	4d1f      	ldr	r5, [pc, #124]	; (800422c <vTaskSuspend+0xc8>)
				if( pxTCB->ucNotifyState == taskWAITING_NOTIFICATION )
 80041b0:	2b01      	cmp	r3, #1
					pxTCB->ucNotifyState = taskNOT_WAITING_NOTIFICATION;
 80041b2:	bf04      	itt	eq
 80041b4:	2300      	moveq	r3, #0
 80041b6:	f884 304c 	strbeq.w	r3, [r4, #76]	; 0x4c
		taskEXIT_CRITICAL();
 80041ba:	f7fe ffa5 	bl	8003108 <vPortExitCritical>
		if( xSchedulerRunning != pdFALSE )
 80041be:	682a      	ldr	r2, [r5, #0]
 80041c0:	b12a      	cbz	r2, 80041ce <vTaskSuspend+0x6a>
			taskENTER_CRITICAL();
 80041c2:	f7fe ff7f 	bl	80030c4 <vPortEnterCritical>
				prvResetNextTaskUnblockTime();
 80041c6:	f7ff fc3d 	bl	8003a44 <prvResetNextTaskUnblockTime>
			taskEXIT_CRITICAL();
 80041ca:	f7fe ff9d 	bl	8003108 <vPortExitCritical>
		if( pxTCB == pxCurrentTCB )
 80041ce:	6833      	ldr	r3, [r6, #0]
 80041d0:	429c      	cmp	r4, r3
 80041d2:	d122      	bne.n	800421a <vTaskSuspend+0xb6>
			if( xSchedulerRunning != pdFALSE )
 80041d4:	682b      	ldr	r3, [r5, #0]
 80041d6:	b1a3      	cbz	r3, 8004202 <vTaskSuspend+0x9e>
				configASSERT( uxSchedulerSuspended == 0 );
 80041d8:	4b15      	ldr	r3, [pc, #84]	; (8004230 <vTaskSuspend+0xcc>)
 80041da:	681b      	ldr	r3, [r3, #0]
 80041dc:	b143      	cbz	r3, 80041f0 <vTaskSuspend+0x8c>
 80041de:	f04f 0350 	mov.w	r3, #80	; 0x50
 80041e2:	f383 8811 	msr	BASEPRI, r3
 80041e6:	f3bf 8f6f 	isb	sy
 80041ea:	f3bf 8f4f 	dsb	sy
 80041ee:	e7fe      	b.n	80041ee <vTaskSuspend+0x8a>
				portYIELD_WITHIN_API();
 80041f0:	f04f 5280 	mov.w	r2, #268435456	; 0x10000000
 80041f4:	4b0f      	ldr	r3, [pc, #60]	; (8004234 <vTaskSuspend+0xd0>)
 80041f6:	601a      	str	r2, [r3, #0]
 80041f8:	f3bf 8f4f 	dsb	sy
 80041fc:	f3bf 8f6f 	isb	sy
 8004200:	bd70      	pop	{r4, r5, r6, pc}
				if( listCURRENT_LIST_LENGTH( &xSuspendedTaskList ) == uxCurrentNumberOfTasks )
 8004202:	4a09      	ldr	r2, [pc, #36]	; (8004228 <vTaskSuspend+0xc4>)
 8004204:	6811      	ldr	r1, [r2, #0]
 8004206:	4a0c      	ldr	r2, [pc, #48]	; (8004238 <vTaskSuspend+0xd4>)
 8004208:	6812      	ldr	r2, [r2, #0]
 800420a:	4291      	cmp	r1, r2
 800420c:	d101      	bne.n	8004212 <vTaskSuspend+0xae>
					pxCurrentTCB = NULL;
 800420e:	6033      	str	r3, [r6, #0]
 8004210:	bd70      	pop	{r4, r5, r6, pc}
	}
 8004212:	e8bd 4070 	ldmia.w	sp!, {r4, r5, r6, lr}
					vTaskSwitchContext();
 8004216:	f7ff bf6b 	b.w	80040f0 <vTaskSwitchContext>
 800421a:	bd70      	pop	{r4, r5, r6, pc}
 800421c:	20004374 	.word	0x20004374
 8004220:	20004380 	.word	0x20004380
 8004224:	200043f8 	.word	0x200043f8
 8004228:	20004448 	.word	0x20004448
 800422c:	20004444 	.word	0x20004444
 8004230:	200043f0 	.word	0x200043f0
 8004234:	e000ed04 	.word	0xe000ed04
 8004238:	200043e4 	.word	0x200043e4

0800423c <vTaskPlaceOnEventList>:
{
 800423c:	b510      	push	{r4, lr}
 800423e:	460c      	mov	r4, r1
	configASSERT( pxEventList );
 8004240:	b940      	cbnz	r0, 8004254 <vTaskPlaceOnEventList+0x18>
 8004242:	f04f 0350 	mov.w	r3, #80	; 0x50
 8004246:	f383 8811 	msr	BASEPRI, r3
 800424a:	f3bf 8f6f 	isb	sy
 800424e:	f3bf 8f4f 	dsb	sy
 8004252:	e7fe      	b.n	8004252 <vTaskPlaceOnEventList+0x16>
	vListInsert( pxEventList, &( pxCurrentTCB->xEventListItem ) );
 8004254:	4b05      	ldr	r3, [pc, #20]	; (800426c <vTaskPlaceOnEventList+0x30>)
 8004256:	6819      	ldr	r1, [r3, #0]
 8004258:	3118      	adds	r1, #24
 800425a:	f7fe feb6 	bl	8002fca <vListInsert>
	prvAddCurrentTaskToDelayedList( xTicksToWait, pdTRUE );
 800425e:	4620      	mov	r0, r4
}
 8004260:	e8bd 4010 	ldmia.w	sp!, {r4, lr}
	prvAddCurrentTaskToDelayedList( xTicksToWait, pdTRUE );
 8004264:	2101      	movs	r1, #1
 8004266:	f7ff bbff 	b.w	8003a68 <prvAddCurrentTaskToDelayedList>
 800426a:	bf00      	nop
 800426c:	20004374 	.word	0x20004374

08004270 <vTaskPlaceOnUnorderedEventList>:
{
 8004270:	b510      	push	{r4, lr}
 8004272:	4614      	mov	r4, r2
	configASSERT( pxEventList );
 8004274:	b940      	cbnz	r0, 8004288 <vTaskPlaceOnUnorderedEventList+0x18>
 8004276:	f04f 0350 	mov.w	r3, #80	; 0x50
 800427a:	f383 8811 	msr	BASEPRI, r3
 800427e:	f3bf 8f6f 	isb	sy
 8004282:	f3bf 8f4f 	dsb	sy
 8004286:	e7fe      	b.n	8004286 <vTaskPlaceOnUnorderedEventList+0x16>
	configASSERT( uxSchedulerSuspended != 0 );
 8004288:	4b0d      	ldr	r3, [pc, #52]	; (80042c0 <vTaskPlaceOnUnorderedEventList+0x50>)
 800428a:	681b      	ldr	r3, [r3, #0]
 800428c:	b943      	cbnz	r3, 80042a0 <vTaskPlaceOnUnorderedEventList+0x30>
 800428e:	f04f 0350 	mov.w	r3, #80	; 0x50
 8004292:	f383 8811 	msr	BASEPRI, r3
 8004296:	f3bf 8f6f 	isb	sy
 800429a:	f3bf 8f4f 	dsb	sy
 800429e:	e7fe      	b.n	800429e <vTaskPlaceOnUnorderedEventList+0x2e>
	listSET_LIST_ITEM_VALUE( &( pxCurrentTCB->xEventListItem ), xItemValue | taskEVENT_LIST_ITEM_VALUE_IN_USE );
 80042a0:	4b08      	ldr	r3, [pc, #32]	; (80042c4 <vTaskPlaceOnUnorderedEventList+0x54>)
 80042a2:	f041 4100 	orr.w	r1, r1, #2147483648	; 0x80000000
 80042a6:	681a      	ldr	r2, [r3, #0]
 80042a8:	6191      	str	r1, [r2, #24]
	vListInsertEnd( pxEventList, &( pxCurrentTCB->xEventListItem ) );
 80042aa:	6819      	ldr	r1, [r3, #0]
 80042ac:	3118      	adds	r1, #24
 80042ae:	f7fe fe80 	bl	8002fb2 <vListInsertEnd>
	prvAddCurrentTaskToDelayedList( xTicksToWait, pdTRUE );
 80042b2:	4620      	mov	r0, r4
}
 80042b4:	e8bd 4010 	ldmia.w	sp!, {r4, lr}
	prvAddCurrentTaskToDelayedList( xTicksToWait, pdTRUE );
 80042b8:	2101      	movs	r1, #1
 80042ba:	f7ff bbd5 	b.w	8003a68 <prvAddCurrentTaskToDelayedList>
 80042be:	bf00      	nop
 80042c0:	200043f0 	.word	0x200043f0
 80042c4:	20004374 	.word	0x20004374

080042c8 <vTaskPlaceOnEventListRestricted>:
	{
 80042c8:	b538      	push	{r3, r4, r5, lr}
 80042ca:	460d      	mov	r5, r1
 80042cc:	4614      	mov	r4, r2
		configASSERT( pxEventList );
 80042ce:	b940      	cbnz	r0, 80042e2 <vTaskPlaceOnEventListRestricted+0x1a>
 80042d0:	f04f 0350 	mov.w	r3, #80	; 0x50
 80042d4:	f383 8811 	msr	BASEPRI, r3
 80042d8:	f3bf 8f6f 	isb	sy
 80042dc:	f3bf 8f4f 	dsb	sy
 80042e0:	e7fe      	b.n	80042e0 <vTaskPlaceOnEventListRestricted+0x18>
		vListInsertEnd( pxEventList, &( pxCurrentTCB->xEventListItem ) );
 80042e2:	4b08      	ldr	r3, [pc, #32]	; (8004304 <vTaskPlaceOnEventListRestricted+0x3c>)
 80042e4:	6819      	ldr	r1, [r3, #0]
 80042e6:	3118      	adds	r1, #24
 80042e8:	f7fe fe63 	bl	8002fb2 <vListInsertEnd>
			xTicksToWait = portMAX_DELAY;
 80042ec:	2c00      	cmp	r4, #0
		prvAddCurrentTaskToDelayedList( xTicksToWait, xWaitIndefinitely );
 80042ee:	4621      	mov	r1, r4
 80042f0:	bf08      	it	eq
 80042f2:	4628      	moveq	r0, r5
	}
 80042f4:	e8bd 4038 	ldmia.w	sp!, {r3, r4, r5, lr}
		prvAddCurrentTaskToDelayedList( xTicksToWait, xWaitIndefinitely );
 80042f8:	bf18      	it	ne
 80042fa:	f04f 30ff 	movne.w	r0, #4294967295
 80042fe:	f7ff bbb3 	b.w	8003a68 <prvAddCurrentTaskToDelayedList>
 8004302:	bf00      	nop
 8004304:	20004374 	.word	0x20004374

08004308 <xTaskRemoveFromEventList>:
{
 8004308:	b538      	push	{r3, r4, r5, lr}
	pxUnblockedTCB = ( TCB_t * ) listGET_OWNER_OF_HEAD_ENTRY( pxEventList );
 800430a:	68c3      	ldr	r3, [r0, #12]
 800430c:	68dc      	ldr	r4, [r3, #12]
	configASSERT( pxUnblockedTCB );
 800430e:	b944      	cbnz	r4, 8004322 <xTaskRemoveFromEventList+0x1a>
 8004310:	f04f 0350 	mov.w	r3, #80	; 0x50
 8004314:	f383 8811 	msr	BASEPRI, r3
 8004318:	f3bf 8f6f 	isb	sy
 800431c:	f3bf 8f4f 	dsb	sy
 8004320:	e7fe      	b.n	8004320 <xTaskRemoveFromEventList+0x18>
	( void ) uxListRemove( &( pxUnblockedTCB->xEventListItem ) );
 8004322:	f104 0518 	add.w	r5, r4, #24
 8004326:	4628      	mov	r0, r5
 8004328:	f7fe fe66 	bl	8002ff8 <uxListRemove>
	if( uxSchedulerSuspended == ( UBaseType_t ) pdFALSE )
 800432c:	4b11      	ldr	r3, [pc, #68]	; (8004374 <xTaskRemoveFromEventList+0x6c>)
 800432e:	681b      	ldr	r3, [r3, #0]
 8004330:	b9e3      	cbnz	r3, 800436c <xTaskRemoveFromEventList+0x64>
		( void ) uxListRemove( &( pxUnblockedTCB->xStateListItem ) );
 8004332:	1d25      	adds	r5, r4, #4
 8004334:	4628      	mov	r0, r5
 8004336:	f7fe fe5f 	bl	8002ff8 <uxListRemove>
		prvAddTaskToReadyList( pxUnblockedTCB );
 800433a:	2301      	movs	r3, #1
 800433c:	490e      	ldr	r1, [pc, #56]	; (8004378 <xTaskRemoveFromEventList+0x70>)
 800433e:	6ae2      	ldr	r2, [r4, #44]	; 0x2c
 8004340:	6808      	ldr	r0, [r1, #0]
 8004342:	4093      	lsls	r3, r2
 8004344:	4303      	orrs	r3, r0
 8004346:	2014      	movs	r0, #20
 8004348:	600b      	str	r3, [r1, #0]
 800434a:	4629      	mov	r1, r5
 800434c:	4b0b      	ldr	r3, [pc, #44]	; (800437c <xTaskRemoveFromEventList+0x74>)
 800434e:	fb00 3002 	mla	r0, r0, r2, r3
		vListInsertEnd( &( xPendingReadyList ), &( pxUnblockedTCB->xEventListItem ) );
 8004352:	f7fe fe2e 	bl	8002fb2 <vListInsertEnd>
	if( pxUnblockedTCB->uxPriority > pxCurrentTCB->uxPriority )
 8004356:	4b0a      	ldr	r3, [pc, #40]	; (8004380 <xTaskRemoveFromEventList+0x78>)
 8004358:	6ae2      	ldr	r2, [r4, #44]	; 0x2c
 800435a:	681b      	ldr	r3, [r3, #0]
 800435c:	6adb      	ldr	r3, [r3, #44]	; 0x2c
 800435e:	429a      	cmp	r2, r3
		xYieldPending = pdTRUE;
 8004360:	bf85      	ittet	hi
 8004362:	2001      	movhi	r0, #1
 8004364:	4b07      	ldrhi	r3, [pc, #28]	; (8004384 <xTaskRemoveFromEventList+0x7c>)
		xReturn = pdFALSE;
 8004366:	2000      	movls	r0, #0
		xYieldPending = pdTRUE;
 8004368:	6018      	strhi	r0, [r3, #0]
}
 800436a:	bd38      	pop	{r3, r4, r5, pc}
		vListInsertEnd( &( xPendingReadyList ), &( pxUnblockedTCB->xEventListItem ) );
 800436c:	4629      	mov	r1, r5
 800436e:	4806      	ldr	r0, [pc, #24]	; (8004388 <xTaskRemoveFromEventList+0x80>)
 8004370:	e7ef      	b.n	8004352 <xTaskRemoveFromEventList+0x4a>
 8004372:	bf00      	nop
 8004374:	200043f0 	.word	0x200043f0
 8004378:	200043f8 	.word	0x200043f8
 800437c:	20004380 	.word	0x20004380
 8004380:	20004374 	.word	0x20004374
 8004384:	20004474 	.word	0x20004474
 8004388:	20004430 	.word	0x20004430

0800438c <vTaskRemoveFromUnorderedEventList>:
	configASSERT( uxSchedulerSuspended != pdFALSE );
 800438c:	4a1c      	ldr	r2, [pc, #112]	; (8004400 <vTaskRemoveFromUnorderedEventList+0x74>)
{
 800438e:	b570      	push	{r4, r5, r6, lr}
	configASSERT( uxSchedulerSuspended != pdFALSE );
 8004390:	6812      	ldr	r2, [r2, #0]
 8004392:	b942      	cbnz	r2, 80043a6 <vTaskRemoveFromUnorderedEventList+0x1a>
 8004394:	f04f 0350 	mov.w	r3, #80	; 0x50
 8004398:	f383 8811 	msr	BASEPRI, r3
 800439c:	f3bf 8f6f 	isb	sy
 80043a0:	f3bf 8f4f 	dsb	sy
 80043a4:	e7fe      	b.n	80043a4 <vTaskRemoveFromUnorderedEventList+0x18>
	pxUnblockedTCB = ( TCB_t * ) listGET_LIST_ITEM_OWNER( pxEventListItem );
 80043a6:	68c4      	ldr	r4, [r0, #12]
	listSET_LIST_ITEM_VALUE( pxEventListItem, xItemValue | taskEVENT_LIST_ITEM_VALUE_IN_USE );
 80043a8:	f041 4100 	orr.w	r1, r1, #2147483648	; 0x80000000
 80043ac:	6001      	str	r1, [r0, #0]
	configASSERT( pxUnblockedTCB );
 80043ae:	b944      	cbnz	r4, 80043c2 <vTaskRemoveFromUnorderedEventList+0x36>
 80043b0:	f04f 0350 	mov.w	r3, #80	; 0x50
 80043b4:	f383 8811 	msr	BASEPRI, r3
 80043b8:	f3bf 8f6f 	isb	sy
 80043bc:	f3bf 8f4f 	dsb	sy
 80043c0:	e7fe      	b.n	80043c0 <vTaskRemoveFromUnorderedEventList+0x34>
	prvAddTaskToReadyList( pxUnblockedTCB );
 80043c2:	2501      	movs	r5, #1
	( void ) uxListRemove( &( pxUnblockedTCB->xStateListItem ) );
 80043c4:	1d26      	adds	r6, r4, #4
	( void ) uxListRemove( pxEventListItem );
 80043c6:	f7fe fe17 	bl	8002ff8 <uxListRemove>
	( void ) uxListRemove( &( pxUnblockedTCB->xStateListItem ) );
 80043ca:	4630      	mov	r0, r6
 80043cc:	f7fe fe14 	bl	8002ff8 <uxListRemove>
	prvAddTaskToReadyList( pxUnblockedTCB );
 80043d0:	490c      	ldr	r1, [pc, #48]	; (8004404 <vTaskRemoveFromUnorderedEventList+0x78>)
 80043d2:	6ae2      	ldr	r2, [r4, #44]	; 0x2c
 80043d4:	6808      	ldr	r0, [r1, #0]
 80043d6:	fa05 f302 	lsl.w	r3, r5, r2
 80043da:	4303      	orrs	r3, r0
 80043dc:	2014      	movs	r0, #20
 80043de:	600b      	str	r3, [r1, #0]
 80043e0:	4b09      	ldr	r3, [pc, #36]	; (8004408 <vTaskRemoveFromUnorderedEventList+0x7c>)
 80043e2:	4631      	mov	r1, r6
 80043e4:	fb00 3002 	mla	r0, r0, r2, r3
 80043e8:	f7fe fde3 	bl	8002fb2 <vListInsertEnd>
	if( pxUnblockedTCB->uxPriority > pxCurrentTCB->uxPriority )
 80043ec:	4b07      	ldr	r3, [pc, #28]	; (800440c <vTaskRemoveFromUnorderedEventList+0x80>)
 80043ee:	6ae2      	ldr	r2, [r4, #44]	; 0x2c
 80043f0:	681b      	ldr	r3, [r3, #0]
 80043f2:	6adb      	ldr	r3, [r3, #44]	; 0x2c
 80043f4:	429a      	cmp	r2, r3
		xYieldPending = pdTRUE;
 80043f6:	bf84      	itt	hi
 80043f8:	4b05      	ldrhi	r3, [pc, #20]	; (8004410 <vTaskRemoveFromUnorderedEventList+0x84>)
 80043fa:	601d      	strhi	r5, [r3, #0]
 80043fc:	bd70      	pop	{r4, r5, r6, pc}
 80043fe:	bf00      	nop
 8004400:	200043f0 	.word	0x200043f0
 8004404:	200043f8 	.word	0x200043f8
 8004408:	20004380 	.word	0x20004380
 800440c:	20004374 	.word	0x20004374
 8004410:	20004474 	.word	0x20004474

08004414 <vTaskInternalSetTimeOutState>:
	pxTimeOut->xOverflowCount = xNumOfOverflows;
 8004414:	4b03      	ldr	r3, [pc, #12]	; (8004424 <vTaskInternalSetTimeOutState+0x10>)
 8004416:	681b      	ldr	r3, [r3, #0]
 8004418:	6003      	str	r3, [r0, #0]
	pxTimeOut->xTimeOnEntering = xTickCount;
 800441a:	4b03      	ldr	r3, [pc, #12]	; (8004428 <vTaskInternalSetTimeOutState+0x14>)
 800441c:	681b      	ldr	r3, [r3, #0]
 800441e:	6043      	str	r3, [r0, #4]
 8004420:	4770      	bx	lr
 8004422:	bf00      	nop
 8004424:	2000442c 	.word	0x2000442c
 8004428:	20004470 	.word	0x20004470

0800442c <xTaskCheckForTimeOut>:
{
 800442c:	b570      	push	{r4, r5, r6, lr}
 800442e:	460c      	mov	r4, r1
	configASSERT( pxTimeOut );
 8004430:	4605      	mov	r5, r0
 8004432:	b940      	cbnz	r0, 8004446 <xTaskCheckForTimeOut+0x1a>
 8004434:	f04f 0350 	mov.w	r3, #80	; 0x50
 8004438:	f383 8811 	msr	BASEPRI, r3
 800443c:	f3bf 8f6f 	isb	sy
 8004440:	f3bf 8f4f 	dsb	sy
 8004444:	e7fe      	b.n	8004444 <xTaskCheckForTimeOut+0x18>
	configASSERT( pxTicksToWait );
 8004446:	b941      	cbnz	r1, 800445a <xTaskCheckForTimeOut+0x2e>
 8004448:	f04f 0350 	mov.w	r3, #80	; 0x50
 800444c:	f383 8811 	msr	BASEPRI, r3
 8004450:	f3bf 8f6f 	isb	sy
 8004454:	f3bf 8f4f 	dsb	sy
 8004458:	e7fe      	b.n	8004458 <xTaskCheckForTimeOut+0x2c>
	taskENTER_CRITICAL();
 800445a:	f7fe fe33 	bl	80030c4 <vPortEnterCritical>
		const TickType_t xConstTickCount = xTickCount;
 800445e:	4b0f      	ldr	r3, [pc, #60]	; (800449c <xTaskCheckForTimeOut+0x70>)
		const TickType_t xElapsedTime = xConstTickCount - pxTimeOut->xTimeOnEntering;
 8004460:	6869      	ldr	r1, [r5, #4]
		const TickType_t xConstTickCount = xTickCount;
 8004462:	681a      	ldr	r2, [r3, #0]
			if( *pxTicksToWait == portMAX_DELAY )
 8004464:	6823      	ldr	r3, [r4, #0]
 8004466:	1c58      	adds	r0, r3, #1
 8004468:	d00e      	beq.n	8004488 <xTaskCheckForTimeOut+0x5c>
		if( ( xNumOfOverflows != pxTimeOut->xOverflowCount ) && ( xConstTickCount >= pxTimeOut->xTimeOnEntering ) ) /*lint !e525 Indentation preferred as is to make code within pre-processor directives clearer. */
 800446a:	480d      	ldr	r0, [pc, #52]	; (80044a0 <xTaskCheckForTimeOut+0x74>)
 800446c:	682e      	ldr	r6, [r5, #0]
 800446e:	6800      	ldr	r0, [r0, #0]
 8004470:	4286      	cmp	r6, r0
 8004472:	d001      	beq.n	8004478 <xTaskCheckForTimeOut+0x4c>
 8004474:	428a      	cmp	r2, r1
 8004476:	d20e      	bcs.n	8004496 <xTaskCheckForTimeOut+0x6a>
		const TickType_t xElapsedTime = xConstTickCount - pxTimeOut->xTimeOnEntering;
 8004478:	1a52      	subs	r2, r2, r1
		else if( xElapsedTime < *pxTicksToWait ) /*lint !e961 Explicit casting is only redundant with some compilers, whereas others require it to prevent integer conversion errors. */
 800447a:	429a      	cmp	r2, r3
 800447c:	d209      	bcs.n	8004492 <xTaskCheckForTimeOut+0x66>
			*pxTicksToWait -= xElapsedTime;
 800447e:	1a9b      	subs	r3, r3, r2
 8004480:	6023      	str	r3, [r4, #0]
			vTaskInternalSetTimeOutState( pxTimeOut );
 8004482:	4628      	mov	r0, r5
 8004484:	f7ff ffc6 	bl	8004414 <vTaskInternalSetTimeOutState>
				xReturn = pdFALSE;
 8004488:	2400      	movs	r4, #0
	taskEXIT_CRITICAL();
 800448a:	f7fe fe3d 	bl	8003108 <vPortExitCritical>
}
 800448e:	4620      	mov	r0, r4
 8004490:	bd70      	pop	{r4, r5, r6, pc}
			*pxTicksToWait = 0;
 8004492:	2300      	movs	r3, #0
 8004494:	6023      	str	r3, [r4, #0]
			xReturn = pdTRUE;
 8004496:	2401      	movs	r4, #1
 8004498:	e7f7      	b.n	800448a <xTaskCheckForTimeOut+0x5e>
 800449a:	bf00      	nop
 800449c:	20004470 	.word	0x20004470
 80044a0:	2000442c 	.word	0x2000442c

080044a4 <vTaskMissedYield>:
	xYieldPending = pdTRUE;
 80044a4:	2201      	movs	r2, #1
 80044a6:	4b01      	ldr	r3, [pc, #4]	; (80044ac <vTaskMissedYield+0x8>)
 80044a8:	601a      	str	r2, [r3, #0]
 80044aa:	4770      	bx	lr
 80044ac:	20004474 	.word	0x20004474

080044b0 <xTaskGetSchedulerState>:
		if( xSchedulerRunning == pdFALSE )
 80044b0:	4b05      	ldr	r3, [pc, #20]	; (80044c8 <xTaskGetSchedulerState+0x18>)
 80044b2:	681b      	ldr	r3, [r3, #0]
 80044b4:	b133      	cbz	r3, 80044c4 <xTaskGetSchedulerState+0x14>
			if( uxSchedulerSuspended == ( UBaseType_t ) pdFALSE )
 80044b6:	4b05      	ldr	r3, [pc, #20]	; (80044cc <xTaskGetSchedulerState+0x1c>)
 80044b8:	681b      	ldr	r3, [r3, #0]
 80044ba:	2b00      	cmp	r3, #0
				xReturn = taskSCHEDULER_SUSPENDED;
 80044bc:	bf0c      	ite	eq
 80044be:	2002      	moveq	r0, #2
 80044c0:	2000      	movne	r0, #0
 80044c2:	4770      	bx	lr
			xReturn = taskSCHEDULER_NOT_STARTED;
 80044c4:	2001      	movs	r0, #1
	}
 80044c6:	4770      	bx	lr
 80044c8:	20004444 	.word	0x20004444
 80044cc:	200043f0 	.word	0x200043f0

080044d0 <xTaskPriorityDisinherit>:
	{
 80044d0:	b5f8      	push	{r3, r4, r5, r6, r7, lr}
		if( pxMutexHolder != NULL )
 80044d2:	4604      	mov	r4, r0
 80044d4:	b908      	cbnz	r0, 80044da <xTaskPriorityDisinherit+0xa>
	BaseType_t xReturn = pdFALSE;
 80044d6:	2000      	movs	r0, #0
 80044d8:	bdf8      	pop	{r3, r4, r5, r6, r7, pc}
			configASSERT( pxTCB == pxCurrentTCB );
 80044da:	4b22      	ldr	r3, [pc, #136]	; (8004564 <xTaskPriorityDisinherit+0x94>)
 80044dc:	681b      	ldr	r3, [r3, #0]
 80044de:	4298      	cmp	r0, r3
 80044e0:	d008      	beq.n	80044f4 <xTaskPriorityDisinherit+0x24>
 80044e2:	f04f 0350 	mov.w	r3, #80	; 0x50
 80044e6:	f383 8811 	msr	BASEPRI, r3
 80044ea:	f3bf 8f6f 	isb	sy
 80044ee:	f3bf 8f4f 	dsb	sy
 80044f2:	e7fe      	b.n	80044f2 <xTaskPriorityDisinherit+0x22>
			configASSERT( pxTCB->uxMutexesHeld );
 80044f4:	6c43      	ldr	r3, [r0, #68]	; 0x44
 80044f6:	b943      	cbnz	r3, 800450a <xTaskPriorityDisinherit+0x3a>
 80044f8:	f04f 0350 	mov.w	r3, #80	; 0x50
 80044fc:	f383 8811 	msr	BASEPRI, r3
 8004500:	f3bf 8f6f 	isb	sy
 8004504:	f3bf 8f4f 	dsb	sy
 8004508:	e7fe      	b.n	8004508 <xTaskPriorityDisinherit+0x38>
			if( pxTCB->uxPriority != pxTCB->uxBasePriority )
 800450a:	6ac1      	ldr	r1, [r0, #44]	; 0x2c
 800450c:	6c02      	ldr	r2, [r0, #64]	; 0x40
			( pxTCB->uxMutexesHeld )--;
 800450e:	3b01      	subs	r3, #1
			if( pxTCB->uxPriority != pxTCB->uxBasePriority )
 8004510:	4291      	cmp	r1, r2
			( pxTCB->uxMutexesHeld )--;
 8004512:	6443      	str	r3, [r0, #68]	; 0x44
			if( pxTCB->uxPriority != pxTCB->uxBasePriority )
 8004514:	d0df      	beq.n	80044d6 <xTaskPriorityDisinherit+0x6>
				if( pxTCB->uxMutexesHeld == ( UBaseType_t ) 0 )
 8004516:	2b00      	cmp	r3, #0
 8004518:	d1dd      	bne.n	80044d6 <xTaskPriorityDisinherit+0x6>
					if( uxListRemove( &( pxTCB->xStateListItem ) ) == ( UBaseType_t ) 0 )
 800451a:	1d05      	adds	r5, r0, #4
 800451c:	4628      	mov	r0, r5
 800451e:	f7fe fd6b 	bl	8002ff8 <uxListRemove>
 8004522:	4e11      	ldr	r6, [pc, #68]	; (8004568 <xTaskPriorityDisinherit+0x98>)
 8004524:	4a11      	ldr	r2, [pc, #68]	; (800456c <xTaskPriorityDisinherit+0x9c>)
 8004526:	b950      	cbnz	r0, 800453e <xTaskPriorityDisinherit+0x6e>
						taskRESET_READY_PRIORITY( pxTCB->uxPriority );
 8004528:	2114      	movs	r1, #20
 800452a:	6ae7      	ldr	r7, [r4, #44]	; 0x2c
 800452c:	4379      	muls	r1, r7
 800452e:	5873      	ldr	r3, [r6, r1]
 8004530:	b92b      	cbnz	r3, 800453e <xTaskPriorityDisinherit+0x6e>
 8004532:	2001      	movs	r0, #1
 8004534:	6813      	ldr	r3, [r2, #0]
 8004536:	40b8      	lsls	r0, r7
 8004538:	ea23 0300 	bic.w	r3, r3, r0
 800453c:	6013      	str	r3, [r2, #0]
					pxTCB->uxPriority = pxTCB->uxBasePriority;
 800453e:	6c23      	ldr	r3, [r4, #64]	; 0x40
					listSET_LIST_ITEM_VALUE( &( pxTCB->xEventListItem ), ( TickType_t ) configMAX_PRIORITIES - ( TickType_t ) pxTCB->uxPriority ); /*lint !e961 MISRA exception as the casts are only redundant for some ports. */
 8004540:	f1c3 0105 	rsb	r1, r3, #5
					pxTCB->uxPriority = pxTCB->uxBasePriority;
 8004544:	62e3      	str	r3, [r4, #44]	; 0x2c
					listSET_LIST_ITEM_VALUE( &( pxTCB->xEventListItem ), ( TickType_t ) configMAX_PRIORITIES - ( TickType_t ) pxTCB->uxPriority ); /*lint !e961 MISRA exception as the casts are only redundant for some ports. */
 8004546:	61a1      	str	r1, [r4, #24]
					prvAddTaskToReadyList( pxTCB );
 8004548:	2401      	movs	r4, #1
 800454a:	6811      	ldr	r1, [r2, #0]
 800454c:	fa04 f003 	lsl.w	r0, r4, r3
 8004550:	4308      	orrs	r0, r1
 8004552:	6010      	str	r0, [r2, #0]
 8004554:	2014      	movs	r0, #20
 8004556:	4629      	mov	r1, r5
 8004558:	fb00 6003 	mla	r0, r0, r3, r6
 800455c:	f7fe fd29 	bl	8002fb2 <vListInsertEnd>
					xReturn = pdTRUE;
 8004560:	4620      	mov	r0, r4
	}
 8004562:	bdf8      	pop	{r3, r4, r5, r6, r7, pc}
 8004564:	20004374 	.word	0x20004374
 8004568:	20004380 	.word	0x20004380
 800456c:	200043f8 	.word	0x200043f8

08004570 <uxTaskResetEventItemValue>:
	uxReturn = listGET_LIST_ITEM_VALUE( &( pxCurrentTCB->xEventListItem ) );
 8004570:	4b04      	ldr	r3, [pc, #16]	; (8004584 <uxTaskResetEventItemValue+0x14>)
 8004572:	681a      	ldr	r2, [r3, #0]
 8004574:	6990      	ldr	r0, [r2, #24]
	listSET_LIST_ITEM_VALUE( &( pxCurrentTCB->xEventListItem ), ( ( TickType_t ) configMAX_PRIORITIES - ( TickType_t ) pxCurrentTCB->uxPriority ) ); /*lint !e961 MISRA exception as the casts are only redundant for some ports. */
 8004576:	681a      	ldr	r2, [r3, #0]
 8004578:	681b      	ldr	r3, [r3, #0]
 800457a:	6adb      	ldr	r3, [r3, #44]	; 0x2c
 800457c:	f1c3 0305 	rsb	r3, r3, #5
 8004580:	6193      	str	r3, [r2, #24]
}
 8004582:	4770      	bx	lr
 8004584:	20004374 	.word	0x20004374

08004588 <prvCheckForValidListAndQueue>:
	pxOverflowTimerList = pxTemp;
}
/*-----------------------------------------------------------*/

static void prvCheckForValidListAndQueue( void )
{
 8004588:	b5f8      	push	{r3, r4, r5, r6, r7, lr}
	/* Check that the list from which active timers are referenced, and the
	queue used to communicate with the timer service, have been
	initialised. */
	taskENTER_CRITICAL();
	{
		if( xTimerQueue == NULL )
 800458a:	4c0d      	ldr	r4, [pc, #52]	; (80045c0 <prvCheckForValidListAndQueue+0x38>)
	taskENTER_CRITICAL();
 800458c:	f7fe fd9a 	bl	80030c4 <vPortEnterCritical>
		if( xTimerQueue == NULL )
 8004590:	6825      	ldr	r5, [r4, #0]
 8004592:	b98d      	cbnz	r5, 80045b8 <prvCheckForValidListAndQueue+0x30>
		{
			vListInitialise( &xActiveTimerList1 );
 8004594:	4f0b      	ldr	r7, [pc, #44]	; (80045c4 <prvCheckForValidListAndQueue+0x3c>)
			vListInitialise( &xActiveTimerList2 );
 8004596:	4e0c      	ldr	r6, [pc, #48]	; (80045c8 <prvCheckForValidListAndQueue+0x40>)
			vListInitialise( &xActiveTimerList1 );
 8004598:	4638      	mov	r0, r7
 800459a:	f7fe fcfc 	bl	8002f96 <vListInitialise>
			vListInitialise( &xActiveTimerList2 );
 800459e:	4630      	mov	r0, r6
 80045a0:	f7fe fcf9 	bl	8002f96 <vListInitialise>
			pxCurrentTimerList = &xActiveTimerList1;
 80045a4:	4b09      	ldr	r3, [pc, #36]	; (80045cc <prvCheckForValidListAndQueue+0x44>)

				xTimerQueue = xQueueCreateStatic( ( UBaseType_t ) configTIMER_QUEUE_LENGTH, ( UBaseType_t ) sizeof( DaemonTaskMessage_t ), &( ucStaticTimerQueueStorage[ 0 ] ), &xStaticTimerQueue );
			}
			#else
			{
				xTimerQueue = xQueueCreate( ( UBaseType_t ) configTIMER_QUEUE_LENGTH, sizeof( DaemonTaskMessage_t ) );
 80045a6:	462a      	mov	r2, r5
			pxCurrentTimerList = &xActiveTimerList1;
 80045a8:	601f      	str	r7, [r3, #0]
			pxOverflowTimerList = &xActiveTimerList2;
 80045aa:	4b09      	ldr	r3, [pc, #36]	; (80045d0 <prvCheckForValidListAndQueue+0x48>)
				xTimerQueue = xQueueCreate( ( UBaseType_t ) configTIMER_QUEUE_LENGTH, sizeof( DaemonTaskMessage_t ) );
 80045ac:	210c      	movs	r1, #12
 80045ae:	2005      	movs	r0, #5
			pxOverflowTimerList = &xActiveTimerList2;
 80045b0:	601e      	str	r6, [r3, #0]
				xTimerQueue = xQueueCreate( ( UBaseType_t ) configTIMER_QUEUE_LENGTH, sizeof( DaemonTaskMessage_t ) );
 80045b2:	f7ff f845 	bl	8003640 <xQueueGenericCreate>
 80045b6:	6020      	str	r0, [r4, #0]
		{
			mtCOVERAGE_TEST_MARKER();
		}
	}
	taskEXIT_CRITICAL();
}
 80045b8:	e8bd 40f8 	ldmia.w	sp!, {r3, r4, r5, r6, r7, lr}
	taskEXIT_CRITICAL();
 80045bc:	f7fe bda4 	b.w	8003108 <vPortExitCritical>
 80045c0:	200044ac 	.word	0x200044ac
 80045c4:	20004480 	.word	0x20004480
 80045c8:	20004494 	.word	0x20004494
 80045cc:	20004478 	.word	0x20004478
 80045d0:	2000447c 	.word	0x2000447c

080045d4 <prvInsertTimerInActiveList>:
	if( xNextExpiryTime <= xTimeNow )
 80045d4:	4291      	cmp	r1, r2
{
 80045d6:	b508      	push	{r3, lr}
	listSET_LIST_ITEM_VALUE( &( pxTimer->xTimerListItem ), xNextExpiryTime );
 80045d8:	6041      	str	r1, [r0, #4]
	listSET_LIST_ITEM_OWNER( &( pxTimer->xTimerListItem ), pxTimer );
 80045da:	6100      	str	r0, [r0, #16]
	if( xNextExpiryTime <= xTimeNow )
 80045dc:	d80a      	bhi.n	80045f4 <prvInsertTimerInActiveList+0x20>
		if( ( ( TickType_t ) ( xTimeNow - xCommandTime ) ) >= pxTimer->xTimerPeriodInTicks ) /*lint !e961 MISRA exception as the casts are only redundant for some ports. */
 80045de:	1ad2      	subs	r2, r2, r3
 80045e0:	6983      	ldr	r3, [r0, #24]
 80045e2:	429a      	cmp	r2, r3
 80045e4:	d20d      	bcs.n	8004602 <prvInsertTimerInActiveList+0x2e>
			vListInsert( pxOverflowTimerList, &( pxTimer->xTimerListItem ) );
 80045e6:	4b08      	ldr	r3, [pc, #32]	; (8004608 <prvInsertTimerInActiveList+0x34>)
 80045e8:	1d01      	adds	r1, r0, #4
			vListInsert( pxCurrentTimerList, &( pxTimer->xTimerListItem ) );
 80045ea:	6818      	ldr	r0, [r3, #0]
 80045ec:	f7fe fced 	bl	8002fca <vListInsert>
BaseType_t xProcessTimerNow = pdFALSE;
 80045f0:	2000      	movs	r0, #0
 80045f2:	bd08      	pop	{r3, pc}
		if( ( xTimeNow < xCommandTime ) && ( xNextExpiryTime >= xCommandTime ) )
 80045f4:	429a      	cmp	r2, r3
 80045f6:	d201      	bcs.n	80045fc <prvInsertTimerInActiveList+0x28>
 80045f8:	4299      	cmp	r1, r3
 80045fa:	d202      	bcs.n	8004602 <prvInsertTimerInActiveList+0x2e>
			vListInsert( pxCurrentTimerList, &( pxTimer->xTimerListItem ) );
 80045fc:	1d01      	adds	r1, r0, #4
 80045fe:	4b03      	ldr	r3, [pc, #12]	; (800460c <prvInsertTimerInActiveList+0x38>)
 8004600:	e7f3      	b.n	80045ea <prvInsertTimerInActiveList+0x16>
			xProcessTimerNow = pdTRUE;
 8004602:	2001      	movs	r0, #1
}
 8004604:	bd08      	pop	{r3, pc}
 8004606:	bf00      	nop
 8004608:	2000447c 	.word	0x2000447c
 800460c:	20004478 	.word	0x20004478

08004610 <xTimerCreateTimerTask>:
{
 8004610:	b507      	push	{r0, r1, r2, lr}
	prvCheckForValidListAndQueue();
 8004612:	f7ff ffb9 	bl	8004588 <prvCheckForValidListAndQueue>
	if( xTimerQueue != NULL )
 8004616:	4b0d      	ldr	r3, [pc, #52]	; (800464c <xTimerCreateTimerTask+0x3c>)
 8004618:	681b      	ldr	r3, [r3, #0]
 800461a:	b943      	cbnz	r3, 800462e <xTimerCreateTimerTask+0x1e>
 800461c:	f04f 0350 	mov.w	r3, #80	; 0x50
 8004620:	f383 8811 	msr	BASEPRI, r3
 8004624:	f3bf 8f6f 	isb	sy
 8004628:	f3bf 8f4f 	dsb	sy
 800462c:	e7fe      	b.n	800462c <xTimerCreateTimerTask+0x1c>
			xReturn = xTaskCreate(	prvTimerTask,
 800462e:	4b08      	ldr	r3, [pc, #32]	; (8004650 <xTimerCreateTimerTask+0x40>)
 8004630:	2246      	movs	r2, #70	; 0x46
 8004632:	9301      	str	r3, [sp, #4]
 8004634:	2303      	movs	r3, #3
 8004636:	4907      	ldr	r1, [pc, #28]	; (8004654 <xTimerCreateTimerTask+0x44>)
 8004638:	9300      	str	r3, [sp, #0]
 800463a:	4807      	ldr	r0, [pc, #28]	; (8004658 <xTimerCreateTimerTask+0x48>)
 800463c:	2300      	movs	r3, #0
 800463e:	f7ff fa8f 	bl	8003b60 <xTaskCreate>
	configASSERT( xReturn );
 8004642:	2800      	cmp	r0, #0
 8004644:	d0ea      	beq.n	800461c <xTimerCreateTimerTask+0xc>
}
 8004646:	b003      	add	sp, #12
 8004648:	f85d fb04 	ldr.w	pc, [sp], #4
 800464c:	200044ac 	.word	0x200044ac
 8004650:	200044b0 	.word	0x200044b0
 8004654:	080080c8 	.word	0x080080c8
 8004658:	08004731 	.word	0x08004731

0800465c <xTimerGenericCommand>:
{
 800465c:	b530      	push	{r4, r5, lr}
 800465e:	4615      	mov	r5, r2
 8004660:	b085      	sub	sp, #20
 8004662:	461a      	mov	r2, r3
	configASSERT( xTimer );
 8004664:	4603      	mov	r3, r0
 8004666:	b940      	cbnz	r0, 800467a <xTimerGenericCommand+0x1e>
 8004668:	f04f 0350 	mov.w	r3, #80	; 0x50
 800466c:	f383 8811 	msr	BASEPRI, r3
 8004670:	f3bf 8f6f 	isb	sy
 8004674:	f3bf 8f4f 	dsb	sy
 8004678:	e7fe      	b.n	8004678 <xTimerGenericCommand+0x1c>
	if( xTimerQueue != NULL )
 800467a:	4c0d      	ldr	r4, [pc, #52]	; (80046b0 <xTimerGenericCommand+0x54>)
 800467c:	6820      	ldr	r0, [r4, #0]
 800467e:	b178      	cbz	r0, 80046a0 <xTimerGenericCommand+0x44>
		if( xCommandID < tmrFIRST_FROM_ISR_COMMAND )
 8004680:	2905      	cmp	r1, #5
		xMessage.xMessageID = xCommandID;
 8004682:	9101      	str	r1, [sp, #4]
		xMessage.u.xTimerParameters.xMessageValue = xOptionalValue;
 8004684:	9502      	str	r5, [sp, #8]
		xMessage.u.xTimerParameters.pxTimer = ( Timer_t * ) xTimer;
 8004686:	9303      	str	r3, [sp, #12]
		if( xCommandID < tmrFIRST_FROM_ISR_COMMAND )
 8004688:	dc0c      	bgt.n	80046a4 <xTimerGenericCommand+0x48>
			if( xTaskGetSchedulerState() == taskSCHEDULER_RUNNING )
 800468a:	f7ff ff11 	bl	80044b0 <xTaskGetSchedulerState>
				xReturn = xQueueSendToBack( xTimerQueue, &xMessage, xTicksToWait );
 800468e:	2300      	movs	r3, #0
			if( xTaskGetSchedulerState() == taskSCHEDULER_RUNNING )
 8004690:	2802      	cmp	r0, #2
				xReturn = xQueueSendToBack( xTimerQueue, &xMessage, xTicksToWait );
 8004692:	bf0c      	ite	eq
 8004694:	9a08      	ldreq	r2, [sp, #32]
				xReturn = xQueueSendToBack( xTimerQueue, &xMessage, tmrNO_DELAY );
 8004696:	461a      	movne	r2, r3
 8004698:	a901      	add	r1, sp, #4
 800469a:	6820      	ldr	r0, [r4, #0]
 800469c:	f7fe fff2 	bl	8003684 <xQueueGenericSend>
}
 80046a0:	b005      	add	sp, #20
 80046a2:	bd30      	pop	{r4, r5, pc}
			xReturn = xQueueSendToBackFromISR( xTimerQueue, &xMessage, pxHigherPriorityTaskWoken );
 80046a4:	2300      	movs	r3, #0
 80046a6:	a901      	add	r1, sp, #4
 80046a8:	f7ff f8a2 	bl	80037f0 <xQueueGenericSendFromISR>
 80046ac:	e7f8      	b.n	80046a0 <xTimerGenericCommand+0x44>
 80046ae:	bf00      	nop
 80046b0:	200044ac 	.word	0x200044ac

080046b4 <prvSwitchTimerLists>:
{
 80046b4:	e92d 41f3 	stmdb	sp!, {r0, r1, r4, r5, r6, r7, r8, lr}
				xResult = xTimerGenericCommand( pxTimer, tmrCOMMAND_START_DONT_TRACE, xNextExpireTime, NULL, tmrNO_DELAY );
 80046b8:	f04f 0800 	mov.w	r8, #0
	while( listLIST_IS_EMPTY( pxCurrentTimerList ) == pdFALSE )
 80046bc:	4d1a      	ldr	r5, [pc, #104]	; (8004728 <prvSwitchTimerLists+0x74>)
 80046be:	682b      	ldr	r3, [r5, #0]
 80046c0:	681a      	ldr	r2, [r3, #0]
 80046c2:	b932      	cbnz	r2, 80046d2 <prvSwitchTimerLists+0x1e>
	pxCurrentTimerList = pxOverflowTimerList;
 80046c4:	4a19      	ldr	r2, [pc, #100]	; (800472c <prvSwitchTimerLists+0x78>)
 80046c6:	6811      	ldr	r1, [r2, #0]
	pxOverflowTimerList = pxTemp;
 80046c8:	6013      	str	r3, [r2, #0]
	pxCurrentTimerList = pxOverflowTimerList;
 80046ca:	6029      	str	r1, [r5, #0]
}
 80046cc:	b002      	add	sp, #8
 80046ce:	e8bd 81f0 	ldmia.w	sp!, {r4, r5, r6, r7, r8, pc}
		xNextExpireTime = listGET_ITEM_VALUE_OF_HEAD_ENTRY( pxCurrentTimerList );
 80046d2:	68db      	ldr	r3, [r3, #12]
		pxTimer = ( Timer_t * ) listGET_OWNER_OF_HEAD_ENTRY( pxCurrentTimerList );
 80046d4:	68dc      	ldr	r4, [r3, #12]
		xNextExpireTime = listGET_ITEM_VALUE_OF_HEAD_ENTRY( pxCurrentTimerList );
 80046d6:	681e      	ldr	r6, [r3, #0]
		( void ) uxListRemove( &( pxTimer->xTimerListItem ) );
 80046d8:	1d27      	adds	r7, r4, #4
 80046da:	4638      	mov	r0, r7
 80046dc:	f7fe fc8c 	bl	8002ff8 <uxListRemove>
		pxTimer->pxCallbackFunction( ( TimerHandle_t ) pxTimer );
 80046e0:	6a63      	ldr	r3, [r4, #36]	; 0x24
 80046e2:	4620      	mov	r0, r4
 80046e4:	4798      	blx	r3
		if( pxTimer->uxAutoReload == ( UBaseType_t ) pdTRUE )
 80046e6:	69e3      	ldr	r3, [r4, #28]
 80046e8:	2b01      	cmp	r3, #1
 80046ea:	d1e8      	bne.n	80046be <prvSwitchTimerLists+0xa>
			xReloadTime = ( xNextExpireTime + pxTimer->xTimerPeriodInTicks );
 80046ec:	69a3      	ldr	r3, [r4, #24]
 80046ee:	4433      	add	r3, r6
			if( xReloadTime > xNextExpireTime )
 80046f0:	429e      	cmp	r6, r3
 80046f2:	d206      	bcs.n	8004702 <prvSwitchTimerLists+0x4e>
				listSET_LIST_ITEM_VALUE( &( pxTimer->xTimerListItem ), xReloadTime );
 80046f4:	6063      	str	r3, [r4, #4]
				listSET_LIST_ITEM_OWNER( &( pxTimer->xTimerListItem ), pxTimer );
 80046f6:	6124      	str	r4, [r4, #16]
				vListInsert( pxCurrentTimerList, &( pxTimer->xTimerListItem ) );
 80046f8:	4639      	mov	r1, r7
 80046fa:	6828      	ldr	r0, [r5, #0]
 80046fc:	f7fe fc65 	bl	8002fca <vListInsert>
 8004700:	e7dd      	b.n	80046be <prvSwitchTimerLists+0xa>
				xResult = xTimerGenericCommand( pxTimer, tmrCOMMAND_START_DONT_TRACE, xNextExpireTime, NULL, tmrNO_DELAY );
 8004702:	2300      	movs	r3, #0
 8004704:	f8cd 8000 	str.w	r8, [sp]
 8004708:	4632      	mov	r2, r6
 800470a:	4619      	mov	r1, r3
 800470c:	4620      	mov	r0, r4
 800470e:	f7ff ffa5 	bl	800465c <xTimerGenericCommand>
				configASSERT( xResult );
 8004712:	2800      	cmp	r0, #0
 8004714:	d1d3      	bne.n	80046be <prvSwitchTimerLists+0xa>
 8004716:	f04f 0350 	mov.w	r3, #80	; 0x50
 800471a:	f383 8811 	msr	BASEPRI, r3
 800471e:	f3bf 8f6f 	isb	sy
 8004722:	f3bf 8f4f 	dsb	sy
 8004726:	e7fe      	b.n	8004726 <prvSwitchTimerLists+0x72>
 8004728:	20004478 	.word	0x20004478
 800472c:	2000447c 	.word	0x2000447c

08004730 <prvTimerTask>:
{
 8004730:	e92d 4ff0 	stmdb	sp!, {r4, r5, r6, r7, r8, r9, sl, fp, lr}
	*pxListWasEmpty = listLIST_IS_EMPTY( pxCurrentTimerList );
 8004734:	4d6c      	ldr	r5, [pc, #432]	; (80048e8 <prvTimerTask+0x1b8>)
					portYIELD_WITHIN_API();
 8004736:	f8df 81c0 	ldr.w	r8, [pc, #448]	; 80048f8 <prvTimerTask+0x1c8>
 800473a:	462f      	mov	r7, r5
{
 800473c:	b089      	sub	sp, #36	; 0x24
	*pxListWasEmpty = listLIST_IS_EMPTY( pxCurrentTimerList );
 800473e:	682b      	ldr	r3, [r5, #0]
 8004740:	f8d3 b000 	ldr.w	fp, [r3]
	if( *pxListWasEmpty == pdFALSE )
 8004744:	f1bb 0f00 	cmp.w	fp, #0
 8004748:	d042      	beq.n	80047d0 <prvTimerTask+0xa0>
		xNextExpireTime = listGET_ITEM_VALUE_OF_HEAD_ENTRY( pxCurrentTimerList );
 800474a:	68db      	ldr	r3, [r3, #12]
 800474c:	f8d3 9000 	ldr.w	r9, [r3]
	vTaskSuspendAll();
 8004750:	f7ff fb92 	bl	8003e78 <vTaskSuspendAll>
	xTimeNow = xTaskGetTickCount();
 8004754:	f7ff fb98 	bl	8003e88 <xTaskGetTickCount>
	if( xTimeNow < xLastTime )
 8004758:	4b64      	ldr	r3, [pc, #400]	; (80048ec <prvTimerTask+0x1bc>)
	xTimeNow = xTaskGetTickCount();
 800475a:	4682      	mov	sl, r0
	if( xTimeNow < xLastTime )
 800475c:	681a      	ldr	r2, [r3, #0]
 800475e:	461e      	mov	r6, r3
 8004760:	4290      	cmp	r0, r2
 8004762:	d237      	bcs.n	80047d4 <prvTimerTask+0xa4>
		*pxTimerListsWereSwitched = pdTRUE;
 8004764:	2401      	movs	r4, #1
 8004766:	9303      	str	r3, [sp, #12]
		prvSwitchTimerLists();
 8004768:	f7ff ffa4 	bl	80046b4 <prvSwitchTimerLists>
 800476c:	9b03      	ldr	r3, [sp, #12]
	xLastTime = xTimeNow;
 800476e:	f8c3 a000 	str.w	sl, [r3]
		if( xTimerListsWereSwitched == pdFALSE )
 8004772:	2c00      	cmp	r4, #0
 8004774:	d17d      	bne.n	8004872 <prvTimerTask+0x142>
			if( ( xListWasEmpty == pdFALSE ) && ( xNextExpireTime <= xTimeNow ) )
 8004776:	f1bb 0f00 	cmp.w	fp, #0
 800477a:	d05f      	beq.n	800483c <prvTimerTask+0x10c>
 800477c:	45d1      	cmp	r9, sl
 800477e:	d876      	bhi.n	800486e <prvTimerTask+0x13e>
				( void ) xTaskResumeAll();
 8004780:	f7ff fc1a 	bl	8003fb8 <xTaskResumeAll>
Timer_t * const pxTimer = ( Timer_t * ) listGET_OWNER_OF_HEAD_ENTRY( pxCurrentTimerList );
 8004784:	683b      	ldr	r3, [r7, #0]
 8004786:	68db      	ldr	r3, [r3, #12]
 8004788:	f8d3 b00c 	ldr.w	fp, [r3, #12]
	( void ) uxListRemove( &( pxTimer->xTimerListItem ) );
 800478c:	f10b 0004 	add.w	r0, fp, #4
 8004790:	f7fe fc32 	bl	8002ff8 <uxListRemove>
	if( pxTimer->uxAutoReload == ( UBaseType_t ) pdTRUE )
 8004794:	f8db 301c 	ldr.w	r3, [fp, #28]
 8004798:	2b01      	cmp	r3, #1
 800479a:	d11d      	bne.n	80047d8 <prvTimerTask+0xa8>
		if( prvInsertTimerInActiveList( pxTimer, ( xNextExpireTime + pxTimer->xTimerPeriodInTicks ), xTimeNow, xNextExpireTime ) != pdFALSE )
 800479c:	f8db 1018 	ldr.w	r1, [fp, #24]
 80047a0:	464b      	mov	r3, r9
 80047a2:	4652      	mov	r2, sl
 80047a4:	4449      	add	r1, r9
 80047a6:	4658      	mov	r0, fp
 80047a8:	f7ff ff14 	bl	80045d4 <prvInsertTimerInActiveList>
 80047ac:	b1a0      	cbz	r0, 80047d8 <prvTimerTask+0xa8>
			xResult = xTimerGenericCommand( pxTimer, tmrCOMMAND_START_DONT_TRACE, xNextExpireTime, NULL, tmrNO_DELAY );
 80047ae:	9400      	str	r4, [sp, #0]
 80047b0:	4623      	mov	r3, r4
 80047b2:	464a      	mov	r2, r9
 80047b4:	4621      	mov	r1, r4
 80047b6:	4658      	mov	r0, fp
 80047b8:	f7ff ff50 	bl	800465c <xTimerGenericCommand>
			configASSERT( xResult );
 80047bc:	b960      	cbnz	r0, 80047d8 <prvTimerTask+0xa8>
 80047be:	f04f 0350 	mov.w	r3, #80	; 0x50
 80047c2:	f383 8811 	msr	BASEPRI, r3
 80047c6:	f3bf 8f6f 	isb	sy
 80047ca:	f3bf 8f4f 	dsb	sy
 80047ce:	e7fe      	b.n	80047ce <prvTimerTask+0x9e>
		xNextExpireTime = ( TickType_t ) 0U;
 80047d0:	46d9      	mov	r9, fp
 80047d2:	e7bd      	b.n	8004750 <prvTimerTask+0x20>
		*pxTimerListsWereSwitched = pdFALSE;
 80047d4:	2400      	movs	r4, #0
 80047d6:	e7ca      	b.n	800476e <prvTimerTask+0x3e>
	pxTimer->pxCallbackFunction( ( TimerHandle_t ) pxTimer );
 80047d8:	f8db 3024 	ldr.w	r3, [fp, #36]	; 0x24
 80047dc:	4658      	mov	r0, fp
 80047de:	4798      	blx	r3
	while( xQueueReceive( xTimerQueue, &xMessage, tmrNO_DELAY ) != pdFAIL ) /*lint !e603 xMessage does not have to be initialised as it is passed out, not in, and it is not used unless xQueueReceive() returns pdTRUE. */
 80047e0:	f8df 9110 	ldr.w	r9, [pc, #272]	; 80048f4 <prvTimerTask+0x1c4>
 80047e4:	2200      	movs	r2, #0
 80047e6:	a905      	add	r1, sp, #20
 80047e8:	f8d9 0000 	ldr.w	r0, [r9]
 80047ec:	f7ff f862 	bl	80038b4 <xQueueReceive>
 80047f0:	2800      	cmp	r0, #0
 80047f2:	d0a4      	beq.n	800473e <prvTimerTask+0xe>
		if( xMessage.xMessageID >= ( BaseType_t ) 0 )
 80047f4:	9b05      	ldr	r3, [sp, #20]
 80047f6:	2b00      	cmp	r3, #0
 80047f8:	dbf4      	blt.n	80047e4 <prvTimerTask+0xb4>
			pxTimer = xMessage.u.xTimerParameters.pxTimer;
 80047fa:	9c07      	ldr	r4, [sp, #28]
			if( listIS_CONTAINED_WITHIN( NULL, &( pxTimer->xTimerListItem ) ) == pdFALSE ) /*lint !e961. The cast is only redundant when NULL is passed into the macro. */
 80047fc:	6963      	ldr	r3, [r4, #20]
 80047fe:	b113      	cbz	r3, 8004806 <prvTimerTask+0xd6>
				( void ) uxListRemove( &( pxTimer->xTimerListItem ) );
 8004800:	1d20      	adds	r0, r4, #4
 8004802:	f7fe fbf9 	bl	8002ff8 <uxListRemove>
	xTimeNow = xTaskGetTickCount();
 8004806:	f7ff fb3f 	bl	8003e88 <xTaskGetTickCount>
	if( xTimeNow < xLastTime )
 800480a:	6833      	ldr	r3, [r6, #0]
	xTimeNow = xTaskGetTickCount();
 800480c:	4683      	mov	fp, r0
	if( xTimeNow < xLastTime )
 800480e:	4298      	cmp	r0, r3
 8004810:	d201      	bcs.n	8004816 <prvTimerTask+0xe6>
		prvSwitchTimerLists();
 8004812:	f7ff ff4f 	bl	80046b4 <prvSwitchTimerLists>
 8004816:	9a05      	ldr	r2, [sp, #20]
	xLastTime = xTimeNow;
 8004818:	f8c6 b000 	str.w	fp, [r6]
 800481c:	2a09      	cmp	r2, #9
 800481e:	d8e1      	bhi.n	80047e4 <prvTimerTask+0xb4>
 8004820:	2301      	movs	r3, #1
 8004822:	4093      	lsls	r3, r2
 8004824:	f413 7a04 	ands.w	sl, r3, #528	; 0x210
 8004828:	d14a      	bne.n	80048c0 <prvTimerTask+0x190>
 800482a:	f013 0fc7 	tst.w	r3, #199	; 0xc7
 800482e:	d123      	bne.n	8004878 <prvTimerTask+0x148>
 8004830:	069b      	lsls	r3, r3, #26
 8004832:	d5d7      	bpl.n	80047e4 <prvTimerTask+0xb4>
						vPortFree( pxTimer );
 8004834:	4620      	mov	r0, r4
 8004836:	f7fe fe01 	bl	800343c <vPortFree>
 800483a:	e7d3      	b.n	80047e4 <prvTimerTask+0xb4>
					xListWasEmpty = listLIST_IS_EMPTY( pxOverflowTimerList );
 800483c:	4b2c      	ldr	r3, [pc, #176]	; (80048f0 <prvTimerTask+0x1c0>)
 800483e:	681b      	ldr	r3, [r3, #0]
 8004840:	681a      	ldr	r2, [r3, #0]
 8004842:	fab2 f282 	clz	r2, r2
 8004846:	0952      	lsrs	r2, r2, #5
				vQueueWaitForMessageRestricted( xTimerQueue, ( xNextExpireTime - xTimeNow ), xListWasEmpty );
 8004848:	4b2a      	ldr	r3, [pc, #168]	; (80048f4 <prvTimerTask+0x1c4>)
 800484a:	eba9 010a 	sub.w	r1, r9, sl
 800484e:	6818      	ldr	r0, [r3, #0]
 8004850:	f7ff f8d4 	bl	80039fc <vQueueWaitForMessageRestricted>
				if( xTaskResumeAll() == pdFALSE )
 8004854:	f7ff fbb0 	bl	8003fb8 <xTaskResumeAll>
 8004858:	2800      	cmp	r0, #0
 800485a:	d1c1      	bne.n	80047e0 <prvTimerTask+0xb0>
					portYIELD_WITHIN_API();
 800485c:	f04f 5380 	mov.w	r3, #268435456	; 0x10000000
 8004860:	f8c8 3000 	str.w	r3, [r8]
 8004864:	f3bf 8f4f 	dsb	sy
 8004868:	f3bf 8f6f 	isb	sy
 800486c:	e7b8      	b.n	80047e0 <prvTimerTask+0xb0>
			if( ( xListWasEmpty == pdFALSE ) && ( xNextExpireTime <= xTimeNow ) )
 800486e:	4622      	mov	r2, r4
 8004870:	e7ea      	b.n	8004848 <prvTimerTask+0x118>
			( void ) xTaskResumeAll();
 8004872:	f7ff fba1 	bl	8003fb8 <xTaskResumeAll>
 8004876:	e7b3      	b.n	80047e0 <prvTimerTask+0xb0>
					if( prvInsertTimerInActiveList( pxTimer,  xMessage.u.xTimerParameters.xMessageValue + pxTimer->xTimerPeriodInTicks, xTimeNow, xMessage.u.xTimerParameters.xMessageValue ) != pdFALSE )
 8004878:	69a1      	ldr	r1, [r4, #24]
 800487a:	9b06      	ldr	r3, [sp, #24]
 800487c:	465a      	mov	r2, fp
 800487e:	4419      	add	r1, r3
 8004880:	4620      	mov	r0, r4
 8004882:	f7ff fea7 	bl	80045d4 <prvInsertTimerInActiveList>
 8004886:	2800      	cmp	r0, #0
 8004888:	d0ac      	beq.n	80047e4 <prvTimerTask+0xb4>
						pxTimer->pxCallbackFunction( ( TimerHandle_t ) pxTimer );
 800488a:	6a63      	ldr	r3, [r4, #36]	; 0x24
 800488c:	4620      	mov	r0, r4
 800488e:	4798      	blx	r3
						if( pxTimer->uxAutoReload == ( UBaseType_t ) pdTRUE )
 8004890:	69e3      	ldr	r3, [r4, #28]
 8004892:	2b01      	cmp	r3, #1
 8004894:	d1a6      	bne.n	80047e4 <prvTimerTask+0xb4>
							xResult = xTimerGenericCommand( pxTimer, tmrCOMMAND_START_DONT_TRACE, xMessage.u.xTimerParameters.xMessageValue + pxTimer->xTimerPeriodInTicks, NULL, tmrNO_DELAY );
 8004896:	69a2      	ldr	r2, [r4, #24]
 8004898:	9906      	ldr	r1, [sp, #24]
 800489a:	f8cd a000 	str.w	sl, [sp]
 800489e:	440a      	add	r2, r1
 80048a0:	4653      	mov	r3, sl
 80048a2:	4651      	mov	r1, sl
 80048a4:	4620      	mov	r0, r4
 80048a6:	f7ff fed9 	bl	800465c <xTimerGenericCommand>
							configASSERT( xResult );
 80048aa:	2800      	cmp	r0, #0
 80048ac:	d19a      	bne.n	80047e4 <prvTimerTask+0xb4>
 80048ae:	f04f 0350 	mov.w	r3, #80	; 0x50
 80048b2:	f383 8811 	msr	BASEPRI, r3
 80048b6:	f3bf 8f6f 	isb	sy
 80048ba:	f3bf 8f4f 	dsb	sy
 80048be:	e7fe      	b.n	80048be <prvTimerTask+0x18e>
					pxTimer->xTimerPeriodInTicks = xMessage.u.xTimerParameters.xMessageValue;
 80048c0:	9906      	ldr	r1, [sp, #24]
 80048c2:	61a1      	str	r1, [r4, #24]
					configASSERT( ( pxTimer->xTimerPeriodInTicks > 0 ) );
 80048c4:	b941      	cbnz	r1, 80048d8 <prvTimerTask+0x1a8>
 80048c6:	f04f 0350 	mov.w	r3, #80	; 0x50
 80048ca:	f383 8811 	msr	BASEPRI, r3
 80048ce:	f3bf 8f6f 	isb	sy
 80048d2:	f3bf 8f4f 	dsb	sy
 80048d6:	e7fe      	b.n	80048d6 <prvTimerTask+0x1a6>
					( void ) prvInsertTimerInActiveList( pxTimer, ( xTimeNow + pxTimer->xTimerPeriodInTicks ), xTimeNow, xTimeNow );
 80048d8:	465b      	mov	r3, fp
 80048da:	465a      	mov	r2, fp
 80048dc:	4459      	add	r1, fp
 80048de:	4620      	mov	r0, r4
 80048e0:	f7ff fe78 	bl	80045d4 <prvInsertTimerInActiveList>
 80048e4:	e77e      	b.n	80047e4 <prvTimerTask+0xb4>
 80048e6:	bf00      	nop
 80048e8:	20004478 	.word	0x20004478
 80048ec:	200044a8 	.word	0x200044a8
 80048f0:	2000447c 	.word	0x2000447c
 80048f4:	200044ac 	.word	0x200044ac
 80048f8:	e000ed04 	.word	0xe000ed04

080048fc <gotoTimeSettingUI>:
"5.",
},
};

void gotoTimeSettingUI(void)
{
 80048fc:	b507      	push	{r0, r1, r2, lr}
	exitMenu();
 80048fe:	f000 f84f 	bl	80049a0 <exitMenu>
	xTaskCreate((TaskFunction_t  )(RTCUI_Task),         	  	//Task Function
 8004902:	4b08      	ldr	r3, [pc, #32]	; (8004924 <gotoTimeSettingUI+0x28>)
 8004904:	2280      	movs	r2, #128	; 0x80
 8004906:	9301      	str	r3, [sp, #4]
 8004908:	2303      	movs	r3, #3
 800490a:	4907      	ldr	r1, [pc, #28]	; (8004928 <gotoTimeSettingUI+0x2c>)
 800490c:	9300      	str	r3, [sp, #0]
 800490e:	4807      	ldr	r0, [pc, #28]	; (800492c <gotoTimeSettingUI+0x30>)
 8004910:	2300      	movs	r3, #0
 8004912:	f7ff f925 	bl	8003b60 <xTaskCreate>
				(const char*     ) "RTCUI_Task",		      	//Task Name
				(uint16_t        ) RTCUI_TASK_STACK_SIZE, 	//Task Stack Size
				(void *          ) NULL,				    //Task Fuction Parameter
				(UBaseType_t     ) RTCUI_TASK_PRIORITY, 		//Task Priority
				(TaskHandle_t    ) &RTCUITaskHandler);	    //Task Handler
	vTaskSuspend(MenuTaskHandler);
 8004916:	4b06      	ldr	r3, [pc, #24]	; (8004930 <gotoTimeSettingUI+0x34>)
 8004918:	6818      	ldr	r0, [r3, #0]
}
 800491a:	b003      	add	sp, #12
 800491c:	f85d eb04 	ldr.w	lr, [sp], #4
	vTaskSuspend(MenuTaskHandler);
 8004920:	f7ff bc20 	b.w	8004164 <vTaskSuspend>
 8004924:	20004650 	.word	0x20004650
 8004928:	080080f0 	.word	0x080080f0
 800492c:	08004b8d 	.word	0x08004b8d
 8004930:	20004648 	.word	0x20004648

08004934 <mainMenuInit>:



/**/
void mainMenuInit(void)
{	
 8004934:	2100      	movs	r1, #0
 8004936:	4b0e      	ldr	r3, [pc, #56]	; (8004970 <mainMenuInit+0x3c>)
 8004938:	b5f0      	push	{r4, r5, r6, r7, lr}
 800493a:	4618      	mov	r0, r3
	for(int i=0; i<MAIN_MENU_ITEMNUM; i++)
	{
		mainMenu[i].menuItemCount = MAIN_MENU_ITEMNUM;
 800493c:	2705      	movs	r7, #5
		mainMenu[i].isSelect = false;
 800493e:	460a      	mov	r2, r1
		mainMenu[i].icoSelected = finger_img;
 8004940:	4e0c      	ldr	r6, [pc, #48]	; (8004974 <mainMenuInit+0x40>)
		mainMenu[i].icoUnselected = NULL;
		mainMenu[i].title = mainMenuLanguage[1][i];
 8004942:	4d0d      	ldr	r5, [pc, #52]	; (8004978 <mainMenuInit+0x44>)
 8004944:	186c      	adds	r4, r5, r1
 8004946:	6964      	ldr	r4, [r4, #20]
 8004948:	3104      	adds	r1, #4
	for(int i=0; i<MAIN_MENU_ITEMNUM; i++)
 800494a:	2914      	cmp	r1, #20
		mainMenu[i].menuItemCount = MAIN_MENU_ITEMNUM;
 800494c:	705f      	strb	r7, [r3, #1]
		mainMenu[i].isSelect = false;
 800494e:	709a      	strb	r2, [r3, #2]
		mainMenu[i].icoSelected = finger_img;
 8004950:	605e      	str	r6, [r3, #4]
		mainMenu[i].icoUnselected = NULL;
 8004952:	609a      	str	r2, [r3, #8]
		mainMenu[i].title = mainMenuLanguage[1][i];
 8004954:	60dc      	str	r4, [r3, #12]
		mainMenu[i].Function = NULL;
 8004956:	611a      	str	r2, [r3, #16]
		mainMenu[i].parentMenu = NULL;
 8004958:	615a      	str	r2, [r3, #20]
		mainMenu[i].childrenMenu = NULL;
 800495a:	619a      	str	r2, [r3, #24]
 800495c:	f103 031c 	add.w	r3, r3, #28
	for(int i=0; i<MAIN_MENU_ITEMNUM; i++)
 8004960:	d1f0      	bne.n	8004944 <mainMenuInit+0x10>
	}
	mainMenu[0].isSelect = true;
 8004962:	2301      	movs	r3, #1
 8004964:	7083      	strb	r3, [r0, #2]
	mainMenu[0].Function = gotoTimeSettingUI;
 8004966:	4b05      	ldr	r3, [pc, #20]	; (800497c <mainMenuInit+0x48>)
	mainMenu[0].childrenMenu = NULL;
 8004968:	6182      	str	r2, [r0, #24]
	mainMenu[0].Function = gotoTimeSettingUI;
 800496a:	6103      	str	r3, [r0, #16]
	mainMenu[0].childrenMenu = NULL;
 800496c:	bdf0      	pop	{r4, r5, r6, r7, pc}
 800496e:	bf00      	nop
 8004970:	200045bc 	.word	0x200045bc
 8004974:	080080d0 	.word	0x080080d0
 8004978:	20000018 	.word	0x20000018
 800497c:	080048fd 	.word	0x080048fd

08004980 <getMenuSelectitem>:
//  menuMenu
//   : menu
//-=-=-=-=-=-=-=-=-=-=-=-=-=-=-=-=-=-=-=-=-=-=-=-=-=-=-=-=-=-=-=-=-=-
uint8_t getMenuSelectitem(MenuItem_Typedef menu[]) {
	int i;
	for (i = 0; i < menu->menuItemCount; i++) {
 8004980:	2300      	movs	r3, #0
		if (menu[i].isSelect == true)
 8004982:	211c      	movs	r1, #28
uint8_t getMenuSelectitem(MenuItem_Typedef menu[]) {
 8004984:	b510      	push	{r4, lr}
	for (i = 0; i < menu->menuItemCount; i++) {
 8004986:	7842      	ldrb	r2, [r0, #1]
 8004988:	4293      	cmp	r3, r2
 800498a:	db01      	blt.n	8004990 <getMenuSelectitem+0x10>
			break;
	}
	return i;
 800498c:	b2d8      	uxtb	r0, r3
}
 800498e:	bd10      	pop	{r4, pc}
		if (menu[i].isSelect == true)
 8004990:	fb01 0403 	mla	r4, r1, r3, r0
 8004994:	78a4      	ldrb	r4, [r4, #2]
 8004996:	2c00      	cmp	r4, #0
 8004998:	d1f8      	bne.n	800498c <getMenuSelectitem+0xc>
	for (i = 0; i < menu->menuItemCount; i++) {
 800499a:	3301      	adds	r3, #1
 800499c:	e7f4      	b.n	8004988 <getMenuSelectitem+0x8>
	...

080049a0 <exitMenu>:
//-=-=-=-=-=-=-=-=-=-=-=-=-=-=-=-=-=-=-=-=-=-=-=-=-=-=-=-=-=-=-=-=-=-
//  menu
//-=-=-=-=-=-=-=-=-=-=-=-=-=-=-=-=-=-=-=-=-=-=-=-=-=-=-=-=-=-=-=-=-=-
void exitMenu(void) {
	CurMenu = mainMenu;
 80049a0:	4a05      	ldr	r2, [pc, #20]	; (80049b8 <exitMenu+0x18>)
 80049a2:	4b06      	ldr	r3, [pc, #24]	; (80049bc <exitMenu+0x1c>)
 80049a4:	601a      	str	r2, [r3, #0]
	MenuWindow.title = defaultTitle;
 80049a6:	4b06      	ldr	r3, [pc, #24]	; (80049c0 <exitMenu+0x20>)
 80049a8:	681a      	ldr	r2, [r3, #0]
 80049aa:	4b06      	ldr	r3, [pc, #24]	; (80049c4 <exitMenu+0x24>)
 80049ac:	619a      	str	r2, [r3, #24]
	//setShow_ui(MAIN_UI);
	isChangeMenu = true;
 80049ae:	2201      	movs	r2, #1
 80049b0:	4b05      	ldr	r3, [pc, #20]	; (80049c8 <exitMenu+0x28>)
 80049b2:	701a      	strb	r2, [r3, #0]
 80049b4:	4770      	bx	lr
 80049b6:	bf00      	nop
 80049b8:	200045bc 	.word	0x200045bc
 80049bc:	20000054 	.word	0x20000054
 80049c0:	20000094 	.word	0x20000094
 80049c4:	20000078 	.word	0x20000078
 80049c8:	20000098 	.word	0x20000098

080049cc <DisplayMenuInit>:
		exitMenu();
	}
}

/**/
void DisplayMenuInit(MenuItem_Typedef* menu) {
 80049cc:	e92d 43f8 	stmdb	sp!, {r3, r4, r5, r6, r7, r8, r9, lr}
	uint8_t topitem;
	uint8_t showItems;

	if (isChangeMenu == false)
 80049d0:	4f20      	ldr	r7, [pc, #128]	; (8004a54 <DisplayMenuInit+0x88>)
void DisplayMenuInit(MenuItem_Typedef* menu) {
 80049d2:	4606      	mov	r6, r0
	if (isChangeMenu == false)
 80049d4:	783b      	ldrb	r3, [r7, #0]
 80049d6:	2b00      	cmp	r3, #0
 80049d8:	d02f      	beq.n	8004a3a <DisplayMenuInit+0x6e>
		return;

	selected = getMenuSelectitem(menu);
 80049da:	f7ff ffd1 	bl	8004980 <getMenuSelectitem>
 80049de:	4b1e      	ldr	r3, [pc, #120]	; (8004a58 <DisplayMenuInit+0x8c>)
	cur_sequence = selected;
	if (selected < menu->cursorPosition)
		menu->cursorPosition = 0;
	topitem = selected - menu->cursorPosition;
	if (menu->menuItemCount <= MenuWindow.itemsperpage)
 80049e0:	4d1e      	ldr	r5, [pc, #120]	; (8004a5c <DisplayMenuInit+0x90>)
	selected = getMenuSelectitem(menu);
 80049e2:	6018      	str	r0, [r3, #0]
	cur_sequence = selected;
 80049e4:	4b1e      	ldr	r3, [pc, #120]	; (8004a60 <DisplayMenuInit+0x94>)
	if (menu->menuItemCount <= MenuWindow.itemsperpage)
 80049e6:	7872      	ldrb	r2, [r6, #1]
	cur_sequence = selected;
 80049e8:	6018      	str	r0, [r3, #0]
	if (selected < menu->cursorPosition)
 80049ea:	f996 3000 	ldrsb.w	r3, [r6]
	showItems = MenuWindow.itemsperpage;
	if (menu->menuItemCount < MenuWindow.itemsperpage)
		showItems = menu->menuItemCount;
	for (int i = 0; i < showItems; i++) {
		MenuItem_Typedef* Item = &menu[topitem + i];
		GUI_MenuItemDraw(MEMU_POSX_1, MEMU_POSY_1 + i * 15, Item);
 80049ee:	f04f 091c 	mov.w	r9, #28
	if (selected < menu->cursorPosition)
 80049f2:	4298      	cmp	r0, r3
		menu->cursorPosition = 0;
 80049f4:	bfbc      	itt	lt
 80049f6:	2300      	movlt	r3, #0
 80049f8:	7033      	strblt	r3, [r6, #0]
	if (menu->menuItemCount <= MenuWindow.itemsperpage)
 80049fa:	692b      	ldr	r3, [r5, #16]
	topitem = selected - menu->cursorPosition;
 80049fc:	f996 4000 	ldrsb.w	r4, [r6]
	if (menu->menuItemCount <= MenuWindow.itemsperpage)
 8004a00:	429a      	cmp	r2, r3
		topitem = 0;
 8004a02:	bf92      	itee	ls
 8004a04:	2400      	movls	r4, #0
	topitem = selected - menu->cursorPosition;
 8004a06:	1b00      	subhi	r0, r0, r4
 8004a08:	b2c4      	uxtbhi	r4, r0
	GUI_WindowsDraw(&MenuWindow);
 8004a0a:	4814      	ldr	r0, [pc, #80]	; (8004a5c <DisplayMenuInit+0x90>)
	MenuWindow.topitem = topitem;
 8004a0c:	616c      	str	r4, [r5, #20]
	GUI_WindowsDraw(&MenuWindow);
 8004a0e:	f000 fb61 	bl	80050d4 <GUI_WindowsDraw>
	MenuScrollbar.topitem = topitem;
 8004a12:	4814      	ldr	r0, [pc, #80]	; (8004a64 <DisplayMenuInit+0x98>)
 8004a14:	6184      	str	r4, [r0, #24]
	MenuScrollbar.totalitems = menu->menuItemCount;
 8004a16:	7873      	ldrb	r3, [r6, #1]
 8004a18:	6103      	str	r3, [r0, #16]
	GUI_ScrollbarDraw(&MenuScrollbar);
 8004a1a:	f000 fa87 	bl	8004f2c <GUI_ScrollbarDraw>
	showItems = MenuWindow.itemsperpage;
 8004a1e:	692b      	ldr	r3, [r5, #16]
	for (int i = 0; i < showItems; i++) {
 8004a20:	2500      	movs	r5, #0
	if (menu->menuItemCount < MenuWindow.itemsperpage)
 8004a22:	f896 8001 	ldrb.w	r8, [r6, #1]
 8004a26:	4543      	cmp	r3, r8
	showItems = MenuWindow.itemsperpage;
 8004a28:	bf98      	it	ls
 8004a2a:	fa5f f883 	uxtbls.w	r8, r3
	for (int i = 0; i < showItems; i++) {
 8004a2e:	4545      	cmp	r5, r8
 8004a30:	db05      	blt.n	8004a3e <DisplayMenuInit+0x72>
	}

//	CurItem = menu + cur_sequence;
//	CurItem->isSelect = true;

	GUI_Refresh(); //
 8004a32:	f000 fa40 	bl	8004eb6 <GUI_Refresh>
	isChangeMenu = false;
 8004a36:	2300      	movs	r3, #0
 8004a38:	703b      	strb	r3, [r7, #0]
 8004a3a:	e8bd 83f8 	ldmia.w	sp!, {r3, r4, r5, r6, r7, r8, r9, pc}
		GUI_MenuItemDraw(MEMU_POSX_1, MEMU_POSY_1 + i * 15, Item);
 8004a3e:	1962      	adds	r2, r4, r5
 8004a40:	ebc5 1105 	rsb	r1, r5, r5, lsl #4
 8004a44:	fb09 6202 	mla	r2, r9, r2, r6
 8004a48:	3113      	adds	r1, #19
 8004a4a:	2014      	movs	r0, #20
 8004a4c:	f000 f9ce 	bl	8004dec <GUI_MenuItemDraw>
	for (int i = 0; i < showItems; i++) {
 8004a50:	3501      	adds	r5, #1
 8004a52:	e7ec      	b.n	8004a2e <DisplayMenuInit+0x62>
 8004a54:	20000098 	.word	0x20000098
 8004a58:	200044c0 	.word	0x200044c0
 8004a5c:	20000078 	.word	0x20000078
 8004a60:	200044bc 	.word	0x200044bc
 8004a64:	20000058 	.word	0x20000058

08004a68 <Menu_SetSelected>:
}


void Menu_SetSelected(int item_index,bool selected){
	//index
	CurItem = CurMenu + item_index;
 8004a68:	4b04      	ldr	r3, [pc, #16]	; (8004a7c <Menu_SetSelected+0x14>)
 8004a6a:	681a      	ldr	r2, [r3, #0]
 8004a6c:	231c      	movs	r3, #28
 8004a6e:	fb03 2000 	mla	r0, r3, r0, r2
 8004a72:	4b03      	ldr	r3, [pc, #12]	; (8004a80 <Menu_SetSelected+0x18>)
	CurItem->isSelect = selected;
 8004a74:	7081      	strb	r1, [r0, #2]
	CurItem = CurMenu + item_index;
 8004a76:	6018      	str	r0, [r3, #0]
	CurItem->isSelect = selected;
 8004a78:	4770      	bx	lr
 8004a7a:	bf00      	nop
 8004a7c:	20000054 	.word	0x20000054
 8004a80:	200044b4 	.word	0x200044b4

08004a84 <Menu_Task>:
}

/**/
void Menu_Task(void *pvParameters) {
 8004a84:	e92d 4ff7 	stmdb	sp!, {r0, r1, r2, r4, r5, r6, r7, r8, r9, sl, fp, lr}

	uint8_t showItems;
	Rotary_state rstate =state_no_changed;
	DisplayMenuInit(CurMenu);
 8004a88:	4c39      	ldr	r4, [pc, #228]	; (8004b70 <Menu_Task+0xec>)
	RotaryEcncorder_SetRange(0,CurMenu->menuItemCount-1);

	while(1){

			//
			if (EventGroupHandler != NULL) {
 8004a8a:	f8df 80fc 	ldr.w	r8, [pc, #252]	; 8004b88 <Menu_Task+0x104>
	DisplayMenuInit(CurMenu);
 8004a8e:	6820      	ldr	r0, [r4, #0]
 8004a90:	f7ff ff9c 	bl	80049cc <DisplayMenuInit>
	RotaryEcncorder_SetRange(0,CurMenu->menuItemCount-1);
 8004a94:	6823      	ldr	r3, [r4, #0]
 8004a96:	2000      	movs	r0, #0
 8004a98:	7859      	ldrb	r1, [r3, #1]
			val = xEventGroupWaitBits(EventGroupHandler,
									  BUTTON_PRESS_EVENT,
									  pdTRUE,
									  pdFALSE, 10 / portTICK_PERIOD_MS);
			if (val == BUTTON_PRESS_EVENT) {
				CurItem = CurMenu + cur_sequence;
 8004a9a:	4e36      	ldr	r6, [pc, #216]	; (8004b74 <Menu_Task+0xf0>)
	RotaryEcncorder_SetRange(0,CurMenu->menuItemCount-1);
 8004a9c:	3901      	subs	r1, #1
 8004a9e:	f7fc ff4b 	bl	8001938 <RotaryEcncorder_SetRange>
			if (EventGroupHandler != NULL) {
 8004aa2:	f8d8 0000 	ldr.w	r0, [r8]
 8004aa6:	b190      	cbz	r0, 8004ace <Menu_Task+0x4a>
			val = xEventGroupWaitBits(EventGroupHandler,
 8004aa8:	230a      	movs	r3, #10
 8004aaa:	2201      	movs	r2, #1
 8004aac:	9300      	str	r3, [sp, #0]
 8004aae:	4611      	mov	r1, r2
 8004ab0:	2300      	movs	r3, #0
 8004ab2:	f7fe f9a5 	bl	8002e00 <xEventGroupWaitBits>
			if (val == BUTTON_PRESS_EVENT) {
 8004ab6:	2801      	cmp	r0, #1
 8004ab8:	d109      	bne.n	8004ace <Menu_Task+0x4a>
				CurItem = CurMenu + cur_sequence;
 8004aba:	211c      	movs	r1, #28
 8004abc:	6822      	ldr	r2, [r4, #0]
 8004abe:	6833      	ldr	r3, [r6, #0]
 8004ac0:	fb01 2303 	mla	r3, r1, r3, r2
 8004ac4:	4a2c      	ldr	r2, [pc, #176]	; (8004b78 <Menu_Task+0xf4>)
 8004ac6:	6013      	str	r3, [r2, #0]
				if (CurItem->Function != NULL) {
 8004ac8:	691b      	ldr	r3, [r3, #16]
 8004aca:	b103      	cbz	r3, 8004ace <Menu_Task+0x4a>
					CurItem->Function();
 8004acc:	4798      	blx	r3
				}
			}
		}
			// 
			cur_rotateNum = RotaryEcncorder_GetCount();
 8004ace:	f7fc ff4d 	bl	800196c <RotaryEcncorder_GetCount>
 8004ad2:	4f2a      	ldr	r7, [pc, #168]	; (8004b7c <Menu_Task+0xf8>)
 8004ad4:	6038      	str	r0, [r7, #0]
			rstate = RotaryEcncorder_GetState();
 8004ad6:	f7fc ff65 	bl	80019a4 <RotaryEcncorder_GetState>
			switch(rstate){
 8004ada:	3801      	subs	r0, #1
 8004adc:	2801      	cmp	r0, #1
 8004ade:	d835      	bhi.n	8004b4c <Menu_Task+0xc8>
				case state_no_changed:
					break;
				case state_counter_clock_wise:
				case state_clock_wise:
					//
					GUI_RectangleFill(MenuWindow.x+1,MenuScrollbar.y,MenuScrollbar.x-1,MenuWindow.height-2,0);
 8004ae0:	f04f 0a00 	mov.w	sl, #0
 8004ae4:	4d26      	ldr	r5, [pc, #152]	; (8004b80 <Menu_Task+0xfc>)
 8004ae6:	f8df 909c 	ldr.w	r9, [pc, #156]	; 8004b84 <Menu_Task+0x100>
 8004aea:	68eb      	ldr	r3, [r5, #12]
 8004aec:	6828      	ldr	r0, [r5, #0]
 8004aee:	f8d9 2000 	ldr.w	r2, [r9]
 8004af2:	3b02      	subs	r3, #2
 8004af4:	3a01      	subs	r2, #1
 8004af6:	f8cd a000 	str.w	sl, [sp]
 8004afa:	f8d9 1004 	ldr.w	r1, [r9, #4]
 8004afe:	3001      	adds	r0, #1
 8004b00:	f000 f8d4 	bl	8004cac <GUI_RectangleFill>
					Menu_SetSelected(cur_sequence,false);
 8004b04:	4651      	mov	r1, sl
 8004b06:	6830      	ldr	r0, [r6, #0]
 8004b08:	f7ff ffae 	bl	8004a68 <Menu_SetSelected>
					cur_sequence = cur_rotateNum;
 8004b0c:	683f      	ldr	r7, [r7, #0]
					Menu_SetSelected(cur_sequence,true);
 8004b0e:	2101      	movs	r1, #1
 8004b10:	4638      	mov	r0, r7
					cur_sequence = cur_rotateNum;
 8004b12:	6037      	str	r7, [r6, #0]
					Menu_SetSelected(cur_sequence,true);
 8004b14:	f7ff ffa8 	bl	8004a68 <Menu_SetSelected>
					CurMenu->cursorPosition = cur_sequence;
 8004b18:	6823      	ldr	r3, [r4, #0]
 8004b1a:	46ab      	mov	fp, r5
 8004b1c:	701f      	strb	r7, [r3, #0]
					if (CurMenu->menuItemCount <= MenuWindow.itemsperpage) {
 8004b1e:	f893 a001 	ldrb.w	sl, [r3, #1]
 8004b22:	692b      	ldr	r3, [r5, #16]
 8004b24:	459a      	cmp	sl, r3
						showItems = CurMenu->menuItemCount;
					} else {
						showItems = MenuWindow.itemsperpage;
						MenuWindow.topitem = cur_sequence;
 8004b26:	bf88      	it	hi
 8004b28:	616f      	strhi	r7, [r5, #20]
					}
					for (int i = 0; i < showItems; i++) {
 8004b2a:	f04f 0500 	mov.w	r5, #0
						MenuItem_Typedef* Item = CurMenu + MenuWindow.topitem + i;
 8004b2e:	f04f 071c 	mov.w	r7, #28
						showItems = MenuWindow.itemsperpage;
 8004b32:	bf88      	it	hi
 8004b34:	fa5f fa83 	uxtbhi.w	sl, r3
					for (int i = 0; i < showItems; i++) {
 8004b38:	4555      	cmp	r5, sl
 8004b3a:	db0b      	blt.n	8004b54 <Menu_Task+0xd0>
						GUI_MenuItemDraw(MEMU_POSX_1, MEMU_POSY_1 + i * 15, Item);
					}
					MenuScrollbar.topitem = cur_sequence;
 8004b3c:	6833      	ldr	r3, [r6, #0]
					GUI_Scrollbar_SetPos(&MenuScrollbar);
 8004b3e:	4811      	ldr	r0, [pc, #68]	; (8004b84 <Menu_Task+0x100>)
					MenuScrollbar.topitem = cur_sequence;
 8004b40:	f8c9 3018 	str.w	r3, [r9, #24]
					GUI_Scrollbar_SetPos(&MenuScrollbar);
 8004b44:	f000 f9b9 	bl	8004eba <GUI_Scrollbar_SetPos>
					GUI_Refresh();
 8004b48:	f000 f9b5 	bl	8004eb6 <GUI_Refresh>
					break;
			}
			vTaskDelay(100/portTICK_PERIOD_MS);
 8004b4c:	2064      	movs	r0, #100	; 0x64
 8004b4e:	f7ff faab 	bl	80040a8 <vTaskDelay>
			if (EventGroupHandler != NULL) {
 8004b52:	e7a6      	b.n	8004aa2 <Menu_Task+0x1e>
						MenuItem_Typedef* Item = CurMenu + MenuWindow.topitem + i;
 8004b54:	f8db 2014 	ldr.w	r2, [fp, #20]
 8004b58:	6823      	ldr	r3, [r4, #0]
 8004b5a:	442a      	add	r2, r5
						GUI_MenuItemDraw(MEMU_POSX_1, MEMU_POSY_1 + i * 15, Item);
 8004b5c:	ebc5 1105 	rsb	r1, r5, r5, lsl #4
 8004b60:	fb07 3202 	mla	r2, r7, r2, r3
 8004b64:	3113      	adds	r1, #19
 8004b66:	2014      	movs	r0, #20
 8004b68:	f000 f940 	bl	8004dec <GUI_MenuItemDraw>
					for (int i = 0; i < showItems; i++) {
 8004b6c:	3501      	adds	r5, #1
 8004b6e:	e7e3      	b.n	8004b38 <Menu_Task+0xb4>
 8004b70:	20000054 	.word	0x20000054
 8004b74:	200044bc 	.word	0x200044bc
 8004b78:	200044b4 	.word	0x200044b4
 8004b7c:	200044b8 	.word	0x200044b8
 8004b80:	20000078 	.word	0x20000078
 8004b84:	20000058 	.word	0x20000058
 8004b88:	2000455c 	.word	0x2000455c

08004b8c <RTCUI_Task>:
char *date;

TaskHandle_t RTCUITaskHandler;

void RTCUI_Task(void *pvParameters)
{
 8004b8c:	b58f      	push	{r0, r1, r2, r3, r7, lr}
	GUI_ClearSCR();
 8004b8e:	f000 f963 	bl	8004e58 <GUI_ClearSCR>
	GUI_WindowsDraw(&RTCWindow);
 8004b92:	482c      	ldr	r0, [pc, #176]	; (8004c44 <RTCUI_Task+0xb8>)
 8004b94:	f000 fa9e 	bl	80050d4 <GUI_WindowsDraw>
//				vTaskSuspend(RTCUITaskHandler);
//				vTaskResume(MenuTaskHandler);
//			}
//		}

		if(HAL_RTC_GetTime(&hrtc,&rtcTime,RTC_FORMAT_BIN) == HAL_OK){
 8004b98:	4d2b      	ldr	r5, [pc, #172]	; (8004c48 <RTCUI_Task+0xbc>)
 8004b9a:	4f2c      	ldr	r7, [pc, #176]	; (8004c4c <RTCUI_Task+0xc0>)
 8004b9c:	2200      	movs	r2, #0
 8004b9e:	492a      	ldr	r1, [pc, #168]	; (8004c48 <RTCUI_Task+0xbc>)
 8004ba0:	4638      	mov	r0, r7
 8004ba2:	f7fd fd65 	bl	8002670 <HAL_RTC_GetTime>
 8004ba6:	b9f0      	cbnz	r0, 8004be6 <RTCUI_Task+0x5a>
			time = pvPortMalloc(sizeof(char) * 9);
 8004ba8:	2009      	movs	r0, #9
 8004baa:	f7fe fbb9 	bl	8003320 <pvPortMalloc>
 8004bae:	4c28      	ldr	r4, [pc, #160]	; (8004c50 <RTCUI_Task+0xc4>)
			snprintf(time,9,"%2d:%2d:%2d",rtcTime.Hours,rtcTime.Minutes,rtcTime.Seconds);
 8004bb0:	78aa      	ldrb	r2, [r5, #2]
			time = pvPortMalloc(sizeof(char) * 9);
 8004bb2:	6020      	str	r0, [r4, #0]
			snprintf(time,9,"%2d:%2d:%2d",rtcTime.Hours,rtcTime.Minutes,rtcTime.Seconds);
 8004bb4:	9201      	str	r2, [sp, #4]
 8004bb6:	786a      	ldrb	r2, [r5, #1]
 8004bb8:	782b      	ldrb	r3, [r5, #0]
 8004bba:	9200      	str	r2, [sp, #0]
 8004bbc:	2109      	movs	r1, #9
 8004bbe:	4a25      	ldr	r2, [pc, #148]	; (8004c54 <RTCUI_Task+0xc8>)
 8004bc0:	f000 fb3a 	bl	8005238 <snprintf>
			show_str_mid(RTCWindow.x, RTCWindow.y+30, time,12,12,1,RTCWindow.width);
 8004bc4:	4b1f      	ldr	r3, [pc, #124]	; (8004c44 <RTCUI_Task+0xb8>)
 8004bc6:	6859      	ldr	r1, [r3, #4]
 8004bc8:	8818      	ldrh	r0, [r3, #0]
 8004bca:	891b      	ldrh	r3, [r3, #8]
 8004bcc:	311e      	adds	r1, #30
 8004bce:	9302      	str	r3, [sp, #8]
 8004bd0:	2301      	movs	r3, #1
 8004bd2:	9301      	str	r3, [sp, #4]
 8004bd4:	230c      	movs	r3, #12
 8004bd6:	9300      	str	r3, [sp, #0]
 8004bd8:	6822      	ldr	r2, [r4, #0]
 8004bda:	b289      	uxth	r1, r1
 8004bdc:	f000 fa41 	bl	8005062 <show_str_mid>
			vPortFree(time);
 8004be0:	6820      	ldr	r0, [r4, #0]
 8004be2:	f7fe fc2b 	bl	800343c <vPortFree>
		}
		if(HAL_RTC_GetDate(&hrtc,&rtcDate,RTC_FORMAT_BIN) == HAL_OK){
 8004be6:	4c1c      	ldr	r4, [pc, #112]	; (8004c58 <RTCUI_Task+0xcc>)
 8004be8:	2200      	movs	r2, #0
 8004bea:	4621      	mov	r1, r4
 8004bec:	4638      	mov	r0, r7
 8004bee:	f7fd fe4d 	bl	800288c <HAL_RTC_GetDate>
 8004bf2:	bb00      	cbnz	r0, 8004c36 <RTCUI_Task+0xaa>
			date = pvPortMalloc(sizeof(char) * 11);
 8004bf4:	200b      	movs	r0, #11
 8004bf6:	f7fe fb93 	bl	8003320 <pvPortMalloc>
			snprintf(date,11,"%4d/%2d/%2d/",rtcDate.Year+2000,rtcDate.Month,rtcDate.Date);
 8004bfa:	78a2      	ldrb	r2, [r4, #2]
 8004bfc:	78e3      	ldrb	r3, [r4, #3]
 8004bfe:	9201      	str	r2, [sp, #4]
 8004c00:	7862      	ldrb	r2, [r4, #1]
			date = pvPortMalloc(sizeof(char) * 11);
 8004c02:	4e16      	ldr	r6, [pc, #88]	; (8004c5c <RTCUI_Task+0xd0>)
			snprintf(date,11,"%4d/%2d/%2d/",rtcDate.Year+2000,rtcDate.Month,rtcDate.Date);
 8004c04:	9200      	str	r2, [sp, #0]
 8004c06:	f503 63fa 	add.w	r3, r3, #2000	; 0x7d0
 8004c0a:	4a15      	ldr	r2, [pc, #84]	; (8004c60 <RTCUI_Task+0xd4>)
 8004c0c:	210b      	movs	r1, #11
			date = pvPortMalloc(sizeof(char) * 11);
 8004c0e:	6030      	str	r0, [r6, #0]
			snprintf(date,11,"%4d/%2d/%2d/",rtcDate.Year+2000,rtcDate.Month,rtcDate.Date);
 8004c10:	f000 fb12 	bl	8005238 <snprintf>
			show_str_mid(RTCWindow.x, RTCWindow.y+15, date,12,12,1,RTCWindow.width);
 8004c14:	4b0b      	ldr	r3, [pc, #44]	; (8004c44 <RTCUI_Task+0xb8>)
 8004c16:	6832      	ldr	r2, [r6, #0]
 8004c18:	6859      	ldr	r1, [r3, #4]
 8004c1a:	8818      	ldrh	r0, [r3, #0]
 8004c1c:	891b      	ldrh	r3, [r3, #8]
 8004c1e:	310f      	adds	r1, #15
 8004c20:	9302      	str	r3, [sp, #8]
 8004c22:	2301      	movs	r3, #1
 8004c24:	9301      	str	r3, [sp, #4]
 8004c26:	230c      	movs	r3, #12
 8004c28:	b289      	uxth	r1, r1
 8004c2a:	9300      	str	r3, [sp, #0]
 8004c2c:	f000 fa19 	bl	8005062 <show_str_mid>
			vPortFree(date);
 8004c30:	6830      	ldr	r0, [r6, #0]
 8004c32:	f7fe fc03 	bl	800343c <vPortFree>
		}


		GUI_Refresh();
 8004c36:	f000 f93e 	bl	8004eb6 <GUI_Refresh>
		vTaskDelay(100/portTICK_PERIOD_MS);
 8004c3a:	2064      	movs	r0, #100	; 0x64
 8004c3c:	f7ff fa34 	bl	80040a8 <vTaskDelay>
		if(HAL_RTC_GetTime(&hrtc,&rtcTime,RTC_FORMAT_BIN) == HAL_OK){
 8004c40:	e7ac      	b.n	8004b9c <RTCUI_Task+0x10>
 8004c42:	bf00      	nop
 8004c44:	2000009c 	.word	0x2000009c
 8004c48:	20004658 	.word	0x20004658
 8004c4c:	20004560 	.word	0x20004560
 8004c50:	20004654 	.word	0x20004654
 8004c54:	080081a5 	.word	0x080081a5
 8004c58:	2000464c 	.word	0x2000464c
 8004c5c:	2000465c 	.word	0x2000465c
 8004c60:	080081b1 	.word	0x080081b1

08004c64 <GUI_Rectangle>:
*           color	
* 
* 
****************************************************************************/
void  GUI_Rectangle(uint32_t x0, uint32_t y0, uint32_t x1, uint32_t y1, TCOLOR color)
{  
 8004c64:	e92d 41f0 	stmdb	sp!, {r4, r5, r6, r7, r8, lr}
 8004c68:	461c      	mov	r4, r3
 8004c6a:	f89d 5018 	ldrb.w	r5, [sp, #24]
	GUI_HLine(x0, y0, x1, color);
 8004c6e:	fa1f f880 	uxth.w	r8, r0
 8004c72:	b2cf      	uxtb	r7, r1
 8004c74:	b296      	uxth	r6, r2
	GUI_HLine(x0, y1, x1, color);
 8004c76:	b2e4      	uxtb	r4, r4
	GUI_HLine(x0, y0, x1, color);
 8004c78:	462b      	mov	r3, r5
 8004c7a:	4632      	mov	r2, r6
 8004c7c:	4639      	mov	r1, r7
 8004c7e:	4640      	mov	r0, r8
 8004c80:	f000 f8ef 	bl	8004e62 <GUI_HLine>
	GUI_HLine(x0, y1, x1, color);
 8004c84:	462b      	mov	r3, r5
 8004c86:	4632      	mov	r2, r6
 8004c88:	4621      	mov	r1, r4
 8004c8a:	4640      	mov	r0, r8
 8004c8c:	f000 f8e9 	bl	8004e62 <GUI_HLine>
	GUI_RLine(x0, y0, y1, color);
 8004c90:	462b      	mov	r3, r5
 8004c92:	4622      	mov	r2, r4
 8004c94:	4639      	mov	r1, r7
 8004c96:	4640      	mov	r0, r8
 8004c98:	f000 f8f8 	bl	8004e8c <GUI_RLine>
	GUI_RLine(x1, y0, y1, color);
 8004c9c:	462b      	mov	r3, r5
 8004c9e:	4622      	mov	r2, r4
 8004ca0:	4639      	mov	r1, r7
 8004ca2:	4630      	mov	r0, r6
}
 8004ca4:	e8bd 41f0 	ldmia.w	sp!, {r4, r5, r6, r7, r8, lr}
	GUI_RLine(x1, y0, y1, color);
 8004ca8:	f000 b8f0 	b.w	8004e8c <GUI_RLine>

08004cac <GUI_RectangleFill>:
*           color	
* 
* 
****************************************************************************/
void  GUI_RectangleFill(uint32_t x0, uint32_t y0, uint32_t x1, uint32_t y1, TCOLOR color)
{  
 8004cac:	e92d 41f0 	stmdb	sp!, {r4, r5, r6, r7, r8, lr}
	uint32_t  i;

	/* (x0,y0)(x1,y1) */
	if(x0>x1) 						// x0>x1x0x1
 8004cb0:	4290      	cmp	r0, r2
{  
 8004cb2:	460c      	mov	r4, r1
 8004cb4:	461f      	mov	r7, r3
 8004cb6:	f89d 8018 	ldrb.w	r8, [sp, #24]
	if(x0>x1) 						// x0>x1x0x1
 8004cba:	d82b      	bhi.n	8004d14 <GUI_RectangleFill+0x68>
	{  
		i = x0;
		x0 = x1;
		x1 = i;
	}
	if(y0>y1)						// y0>y1y0y1
 8004cbc:	4299      	cmp	r1, r3
 8004cbe:	d809      	bhi.n	8004cd4 <GUI_RectangleFill+0x28>
		y0 = y1;
		y1 = i;
	}

	/*  */
	if(y0==y1) 
 8004cc0:	42bc      	cmp	r4, r7
 8004cc2:	d109      	bne.n	8004cd8 <GUI_RectangleFill+0x2c>
	{  
		GUI_HLine(x0, y0, x1, color);
 8004cc4:	4643      	mov	r3, r8
 8004cc6:	b2e1      	uxtb	r1, r4
 8004cc8:	b292      	uxth	r2, r2
 8004cca:	b280      	uxth	r0, r0
	while(y0<=y1)						
	{  
		GUI_HLine(x0, y0, x1, color);	// 
		y0++;							// 
	}
}
 8004ccc:	e8bd 41f0 	ldmia.w	sp!, {r4, r5, r6, r7, r8, lr}
		GUI_HLine(x0, y0, x1, color);
 8004cd0:	f000 b8c7 	b.w	8004e62 <GUI_HLine>
 8004cd4:	463c      	mov	r4, r7
 8004cd6:	460f      	mov	r7, r1
	if(x0==x1) 
 8004cd8:	4290      	cmp	r0, r2
 8004cda:	d10d      	bne.n	8004cf8 <GUI_RectangleFill+0x4c>
		GUI_RLine(x0, y0, y1, color);
 8004cdc:	4643      	mov	r3, r8
 8004cde:	b2fa      	uxtb	r2, r7
 8004ce0:	b2e1      	uxtb	r1, r4
 8004ce2:	b280      	uxth	r0, r0
}
 8004ce4:	e8bd 41f0 	ldmia.w	sp!, {r4, r5, r6, r7, r8, lr}
		GUI_RLine(x0, y0, y1, color);
 8004ce8:	f000 b8d0 	b.w	8004e8c <GUI_RLine>
	if(y0>y1)						// y0>y1y0y1
 8004cec:	463b      	mov	r3, r7
 8004cee:	4627      	mov	r7, r4
 8004cf0:	461c      	mov	r4, r3
 8004cf2:	4603      	mov	r3, r0
 8004cf4:	4610      	mov	r0, r2
 8004cf6:	461a      	mov	r2, r3
		GUI_HLine(x0, y0, x1, color);	// 
 8004cf8:	b296      	uxth	r6, r2
 8004cfa:	b285      	uxth	r5, r0
	while(y0<=y1)						
 8004cfc:	42bc      	cmp	r4, r7
 8004cfe:	d901      	bls.n	8004d04 <GUI_RectangleFill+0x58>
 8004d00:	e8bd 81f0 	ldmia.w	sp!, {r4, r5, r6, r7, r8, pc}
		GUI_HLine(x0, y0, x1, color);	// 
 8004d04:	b2e1      	uxtb	r1, r4
 8004d06:	4643      	mov	r3, r8
 8004d08:	4632      	mov	r2, r6
 8004d0a:	4628      	mov	r0, r5
 8004d0c:	f000 f8a9 	bl	8004e62 <GUI_HLine>
		y0++;							// 
 8004d10:	3401      	adds	r4, #1
 8004d12:	e7f3      	b.n	8004cfc <GUI_RectangleFill+0x50>
	if(y0>y1)						// y0>y1y0y1
 8004d14:	4299      	cmp	r1, r3
 8004d16:	d8e9      	bhi.n	8004cec <GUI_RectangleFill+0x40>
 8004d18:	4603      	mov	r3, r0
 8004d1a:	4610      	mov	r0, r2
 8004d1c:	461a      	mov	r2, r3
 8004d1e:	e7cf      	b.n	8004cc0 <GUI_RectangleFill+0x14>

08004d20 <GUI_Line>:
*           color	(LCM01)
* 
* 
****************************************************************************/
void  GUI_Line(uint32_t x0, uint32_t y0, uint32_t x1, uint32_t y1, TCOLOR color)
{  
 8004d20:	e92d 4ff7 	stmdb	sp!, {r0, r1, r2, r4, r5, r6, r7, r8, r9, sl, fp, lr}
 8004d24:	4699      	mov	r9, r3
	int8_t    dy_sym;				// y-11
	int32_t   dx_x2;				// dx*2
	int32_t   dy_x2;				// dy*2
	int32_t   di;					// 

	dx = x1-x0;						// 
 8004d26:	1a13      	subs	r3, r2, r0
	dy = y1-y0;
	/*  */
	if(dx>0)						// x
 8004d28:	2b00      	cmp	r3, #0
{  
 8004d2a:	4604      	mov	r4, r0
 8004d2c:	460d      	mov	r5, r1
 8004d2e:	4692      	mov	sl, r2
 8004d30:	f89d 6030 	ldrb.w	r6, [sp, #48]	; 0x30
	dy = y1-y0;
 8004d34:	eba9 0201 	sub.w	r2, r9, r1
 8004d38:	b280      	uxth	r0, r0
 8004d3a:	b2c9      	uxtb	r1, r1
	if(dx>0)						// x
 8004d3c:	dc08      	bgt.n	8004d50 <GUI_Line+0x30>
	{  
		dx_sym = 1;					// dx>0dx_sym=1
	}
	else
	{  
		if(dx<0)
 8004d3e:	d113      	bne.n	8004d68 <GUI_Line+0x48>
			dx_sym = -1;			// dx<0dx_sym=-1
		else
		{  							// dx==0
			GUI_RLine(x0, y0, y1, color);
 8004d40:	4633      	mov	r3, r6
 8004d42:	fa5f f289 	uxtb.w	r2, r9
				x0 += dx_sym;
			}
		}
		GUI_Point(x0, y0, color);		// 
	} 
}
 8004d46:	b003      	add	sp, #12
 8004d48:	e8bd 4ff0 	ldmia.w	sp!, {r4, r5, r6, r7, r8, r9, sl, fp, lr}
			GUI_RLine(x0, y0, y1, color);
 8004d4c:	f000 b89e 	b.w	8004e8c <GUI_RLine>
		dx_sym = 1;					// dx>0dx_sym=1
 8004d50:	2701      	movs	r7, #1
	if(dy>0)						// y
 8004d52:	2a00      	cmp	r2, #0
 8004d54:	dc0b      	bgt.n	8004d6e <GUI_Line+0x4e>
		if(dy<0)
 8004d56:	d124      	bne.n	8004da2 <GUI_Line+0x82>
			GUI_HLine(x0, y0, x1, color);
 8004d58:	4633      	mov	r3, r6
 8004d5a:	fa1f f28a 	uxth.w	r2, sl
}
 8004d5e:	b003      	add	sp, #12
 8004d60:	e8bd 4ff0 	ldmia.w	sp!, {r4, r5, r6, r7, r8, r9, sl, fp, lr}
			GUI_HLine(x0, y0, x1, color);
 8004d64:	f000 b87d 	b.w	8004e62 <GUI_HLine>
			dx_sym = -1;			// dx<0dx_sym=-1
 8004d68:	f04f 37ff 	mov.w	r7, #4294967295
 8004d6c:	e7f1      	b.n	8004d52 <GUI_Line+0x32>
		dy_sym = 1;					// dy>0dy_sym=1
 8004d6e:	f04f 0801 	mov.w	r8, #1
	dx = dx_sym * dx;
 8004d72:	fb03 f107 	mul.w	r1, r3, r7
	dy = dy_sym * dy;
 8004d76:	fb02 f208 	mul.w	r2, r2, r8
	if(dx>=dy)						// dx>=dyx
 8004d7a:	4291      	cmp	r1, r2
	dx_x2 = dx*2;
 8004d7c:	ea4f 0b41 	mov.w	fp, r1, lsl #1
	dy_x2 = dy*2;
 8004d80:	ea4f 0342 	mov.w	r3, r2, lsl #1
	if(dx>=dy)						// dx>=dyx
 8004d84:	db1d      	blt.n	8004dc2 <GUI_Line+0xa2>
		di = dy_x2 - dx;
 8004d86:	eba3 0901 	sub.w	r9, r3, r1
				di += dy_x2 - dx_x2;
 8004d8a:	eba9 0b01 	sub.w	fp, r9, r1
		while(x0!=x1)
 8004d8e:	4554      	cmp	r4, sl
 8004d90:	b2e9      	uxtb	r1, r5
 8004d92:	b2a0      	uxth	r0, r4
 8004d94:	d108      	bne.n	8004da8 <GUI_Line+0x88>
		GUI_Point(x0, y0, color);		// 
 8004d96:	4632      	mov	r2, r6
}
 8004d98:	b003      	add	sp, #12
 8004d9a:	e8bd 4ff0 	ldmia.w	sp!, {r4, r5, r6, r7, r8, r9, sl, fp, lr}
		GUI_Point(x0, y0, color);		// 
 8004d9e:	f000 b85d 	b.w	8004e5c <GUI_Point>
			dy_sym = -1;			// dy<0dy_sym=-1
 8004da2:	f04f 38ff 	mov.w	r8, #4294967295
 8004da6:	e7e4      	b.n	8004d72 <GUI_Line+0x52>
			GUI_Point(x0, y0, color);
 8004da8:	4632      	mov	r2, r6
 8004daa:	9301      	str	r3, [sp, #4]
 8004dac:	f000 f856 	bl	8004e5c <GUI_Point>
			if(di<0)
 8004db0:	9b01      	ldr	r3, [sp, #4]
 8004db2:	f1b9 0f00 	cmp.w	r9, #0
 8004db6:	443c      	add	r4, r7
				di += dy_x2;		// 
 8004db8:	bfb2      	itee	lt
 8004dba:	4499      	addlt	r9, r3
				di += dy_x2 - dx_x2;
 8004dbc:	44d9      	addge	r9, fp
				y0 += dy_sym;
 8004dbe:	4445      	addge	r5, r8
 8004dc0:	e7e5      	b.n	8004d8e <GUI_Line+0x6e>
		di = dx_x2 - dy;
 8004dc2:	ebab 0a02 	sub.w	sl, fp, r2
				di += dx_x2 - dy_x2;
 8004dc6:	ebaa 0302 	sub.w	r3, sl, r2
		while(y0!=y1)
 8004dca:	454d      	cmp	r5, r9
 8004dcc:	b2e9      	uxtb	r1, r5
 8004dce:	b2a0      	uxth	r0, r4
 8004dd0:	d0e1      	beq.n	8004d96 <GUI_Line+0x76>
			GUI_Point(x0, y0, color);
 8004dd2:	4632      	mov	r2, r6
 8004dd4:	9301      	str	r3, [sp, #4]
 8004dd6:	f000 f841 	bl	8004e5c <GUI_Point>
			if(di<0)
 8004dda:	9b01      	ldr	r3, [sp, #4]
 8004ddc:	f1ba 0f00 	cmp.w	sl, #0
 8004de0:	4445      	add	r5, r8
				di += dx_x2;
 8004de2:	bfb2      	itee	lt
 8004de4:	44da      	addlt	sl, fp
				di += dx_x2 - dy_x2;
 8004de6:	449a      	addge	sl, r3
				x0 += dx_sym;
 8004de8:	19e4      	addge	r4, r4, r7
 8004dea:	e7ee      	b.n	8004dca <GUI_Line+0xaa>

08004dec <GUI_MenuItemDraw>:
* 
* ico		
* 01
****************************************************************************/
uint8_t  GUI_MenuItemDraw(uint32_t x, uint32_t y, MenuItem_Typedef *item)
{  
 8004dec:	b5f7      	push	{r0, r1, r2, r4, r5, r6, r7, lr}
	if( x>GUI_LCM_XMAX || y>GUI_LCM_YMAX) return(0);
	if(y<2) return(0);
 8004dee:	f1a1 0e02 	sub.w	lr, r1, #2
 8004df2:	f1be 0f3e 	cmp.w	lr, #62	; 0x3e
{  
 8004df6:	4615      	mov	r5, r2
	if(y<2) return(0);
 8004df8:	d82a      	bhi.n	8004e50 <GUI_MenuItemDraw+0x64>
	if(x<18) return(0);
 8004dfa:	f1a0 0412 	sub.w	r4, r0, #18
 8004dfe:	2cee      	cmp	r4, #238	; 0xee
 8004e00:	d826      	bhi.n	8004e50 <GUI_MenuItemDraw+0x64>
	if( (item->title)==NULL )  return(0);
 8004e02:	68d3      	ldr	r3, [r2, #12]
 8004e04:	b333      	cbz	r3, 8004e54 <GUI_MenuItemDraw+0x68>

	if(item->isSelect == false)
 8004e06:	7893      	ldrb	r3, [r2, #2]
 8004e08:	b28f      	uxth	r7, r1
 8004e0a:	b286      	uxth	r6, r0
 8004e0c:	b9a3      	cbnz	r3, 8004e38 <GUI_MenuItemDraw+0x4c>
	{  
		if(item->icoUnselected != NULL)
 8004e0e:	6892      	ldr	r2, [r2, #8]
 8004e10:	b132      	cbz	r2, 8004e20 <GUI_MenuItemDraw+0x34>
			OLED_ShowPicture(x-18, y-2, (uint8_t *)item->icoUnselected ,16, 16);
 8004e12:	2310      	movs	r3, #16
 8004e14:	fa5f f18e 	uxtb.w	r1, lr
 8004e18:	9300      	str	r3, [sp, #0]
 8004e1a:	b2e0      	uxtb	r0, r4
 8004e1c:	f7fc fbd4 	bl	80015c8 <OLED_ShowPicture>
		show_str(x, y,(uint8_t *) item->title,12,12,1);
 8004e20:	2401      	movs	r4, #1
 8004e22:	9401      	str	r4, [sp, #4]
	}
	else
	{  
		if(item->icoSelected != NULL)
			OLED_ShowPicture(x-18, y-2, (uint8_t *)item->icoSelected ,16, 16);
		show_str(x,y,(uint8_t *) item->title, 12,12,0);
 8004e24:	230c      	movs	r3, #12
 8004e26:	4630      	mov	r0, r6
 8004e28:	9300      	str	r3, [sp, #0]
 8004e2a:	68ea      	ldr	r2, [r5, #12]
 8004e2c:	4639      	mov	r1, r7
 8004e2e:	f000 f8df 	bl	8004ff0 <show_str>
	}
	return(1);
 8004e32:	2001      	movs	r0, #1
}
 8004e34:	b003      	add	sp, #12
 8004e36:	bdf0      	pop	{r4, r5, r6, r7, pc}
		if(item->icoSelected != NULL)
 8004e38:	6852      	ldr	r2, [r2, #4]
 8004e3a:	b132      	cbz	r2, 8004e4a <GUI_MenuItemDraw+0x5e>
			OLED_ShowPicture(x-18, y-2, (uint8_t *)item->icoSelected ,16, 16);
 8004e3c:	2310      	movs	r3, #16
 8004e3e:	fa5f f18e 	uxtb.w	r1, lr
 8004e42:	9300      	str	r3, [sp, #0]
 8004e44:	b2e0      	uxtb	r0, r4
 8004e46:	f7fc fbbf 	bl	80015c8 <OLED_ShowPicture>
		show_str(x,y,(uint8_t *) item->title, 12,12,0);
 8004e4a:	2300      	movs	r3, #0
 8004e4c:	9301      	str	r3, [sp, #4]
 8004e4e:	e7e9      	b.n	8004e24 <GUI_MenuItemDraw+0x38>
	if(y<2) return(0);
 8004e50:	2000      	movs	r0, #0
 8004e52:	e7ef      	b.n	8004e34 <GUI_MenuItemDraw+0x48>
 8004e54:	4618      	mov	r0, r3
 8004e56:	e7ed      	b.n	8004e34 <GUI_MenuItemDraw+0x48>

08004e58 <GUI_ClearSCR>:
* 
* LCM
****************************************************************************/
void  GUI_ClearSCR()
{
	OLED_Clear();
 8004e58:	f7fc bb52 	b.w	8001500 <OLED_Clear>

08004e5c <GUI_Point>:
*          )
* LCM
****************************************************************************/
void  GUI_Point(uint16_t x, uint8_t y, TCOLOR color)
{
	OLED_DrawPoint(x,y,color);
 8004e5c:	b2c0      	uxtb	r0, r0
 8004e5e:	f7fc bad7 	b.w	8001410 <OLED_DrawPoint>

08004e62 <GUI_HLine>:
*      8LCM
****************************************************************************/
void  GUI_HLine(uint16_t x0, uint8_t y0, uint16_t x1, TCOLOR color)
{
	uint8_t  temp;
	if(x0>x1)               // x0x1
 8004e62:	4290      	cmp	r0, r2
{
 8004e64:	b5f8      	push	{r3, r4, r5, r6, r7, lr}
 8004e66:	461f      	mov	r7, r3
 8004e68:	bf88      	it	hi
 8004e6a:	b2d3      	uxtbhi	r3, r2
 8004e6c:	4604      	mov	r4, r0
 8004e6e:	4615      	mov	r5, r2
 8004e70:	460e      	mov	r6, r1
	if(x0>x1)               // x0x1
 8004e72:	bf84      	itt	hi
 8004e74:	4605      	movhi	r5, r0
	{
		temp = x1;
		x1 = x0;
		x0 = temp;
 8004e76:	461c      	movhi	r4, r3
	OLED_DrawPoint(x,y,color);
 8004e78:	b2e0      	uxtb	r0, r4
	}
	do
	{
		GUI_Point(x0, y0, color);   // 
		x0++;
 8004e7a:	3401      	adds	r4, #1
	OLED_DrawPoint(x,y,color);
 8004e7c:	463a      	mov	r2, r7
 8004e7e:	4631      	mov	r1, r6
		x0++;
 8004e80:	b2a4      	uxth	r4, r4
	OLED_DrawPoint(x,y,color);
 8004e82:	f7fc fac5 	bl	8001410 <OLED_DrawPoint>
	}
	while(x1>=x0);
 8004e86:	42a5      	cmp	r5, r4
 8004e88:	d2f6      	bcs.n	8004e78 <GUI_HLine+0x16>
}
 8004e8a:	bdf8      	pop	{r3, r4, r5, r6, r7, pc}

08004e8c <GUI_RLine>:
*      8LCM
****************************************************************************/
void  GUI_RLine(uint16_t x0, uint8_t y0, uint8_t y1, TCOLOR color)
{
    uint8_t  temp;
    if(y0>y1)       // y0y1
 8004e8c:	4291      	cmp	r1, r2
{
 8004e8e:	b5f8      	push	{r3, r4, r5, r6, r7, lr}
 8004e90:	461f      	mov	r7, r3
    if(y0>y1)       // y0y1
 8004e92:	bf88      	it	hi
 8004e94:	460b      	movhi	r3, r1
{
 8004e96:	460c      	mov	r4, r1
 8004e98:	4615      	mov	r5, r2
    if(y0>y1)       // y0y1
 8004e9a:	bf84      	itt	hi
 8004e9c:	4614      	movhi	r4, r2
 8004e9e:	461d      	movhi	r5, r3
	OLED_DrawPoint(x,y,color);
 8004ea0:	b2c6      	uxtb	r6, r0
 8004ea2:	4621      	mov	r1, r4
        y0 = temp;
    }
    do
    {
        GUI_Point(x0, y0, color);   // 
        y0++;
 8004ea4:	3401      	adds	r4, #1
	OLED_DrawPoint(x,y,color);
 8004ea6:	463a      	mov	r2, r7
 8004ea8:	4630      	mov	r0, r6
        y0++;
 8004eaa:	b2e4      	uxtb	r4, r4
	OLED_DrawPoint(x,y,color);
 8004eac:	f7fc fab0 	bl	8001410 <OLED_DrawPoint>
    }
    while(y1>=y0);
 8004eb0:	42a5      	cmp	r5, r4
 8004eb2:	d2f6      	bcs.n	8004ea2 <GUI_RLine+0x16>
}
 8004eb4:	bdf8      	pop	{r3, r4, r5, r6, r7, pc}

08004eb6 <GUI_Refresh>:
* 
*           
****************************************************************************/
void  GUI_Refresh(void)
{
	OLED_RefreshGram();
 8004eb6:	f7fc baed 	b.w	8001494 <OLED_RefreshGram>

08004eba <GUI_Scrollbar_SetPos>:
0x40,0x70,0x7C,0x7E,0x7E,0x7C,0x70,0x40,
};

//
void GUI_Scrollbar_SetPos(Scrollbar_Typedef *scbx)
{	
 8004eba:	e92d 43f7 	stmdb	sp!, {r0, r1, r2, r4, r5, r6, r7, r8, r9, lr}
	uint16_t x,y,xlen,ylen;
//	uint8_t scbplen;
//	
//	scbplen = SCROLL_BTN_HEIGHT;  //
	
	scblen=scbx->height-2*SCROLL_BTN_HEIGHT-scbx->scbbarlen;//
 8004ebe:	68c4      	ldr	r4, [r0, #12]
 8004ec0:	8b82      	ldrh	r2, [r0, #28]
 8004ec2:	3c14      	subs	r4, #20
 8004ec4:	1aa4      	subs	r4, r4, r2
 8004ec6:	fa1f f984 	uxth.w	r9, r4
	y=scbx->y+SCROLL_BTN_HEIGHT;  //y
	xlen=scbx->width-2-1;         // -1
	ylen=scblen+scbx->scbbarlen-1;// -1
	
	//
	GUI_RectangleFill(x ,y,x+xlen,y+ylen, 0);
 8004eca:	2400      	movs	r4, #0
{	
 8004ecc:	4605      	mov	r5, r0
	x=scbx->x+1;                  //x
 8004ece:	6807      	ldr	r7, [r0, #0]
	xlen=scbx->width-2-1;         // -1
 8004ed0:	6886      	ldr	r6, [r0, #8]
	y=scbx->y+SCROLL_BTN_HEIGHT;  //y
 8004ed2:	6841      	ldr	r1, [r0, #4]
	ylen=scblen+scbx->scbbarlen-1;// -1
 8004ed4:	1e53      	subs	r3, r2, #1
	x=scbx->x+1;                  //x
 8004ed6:	3701      	adds	r7, #1
	xlen=scbx->width-2-1;         // -1
 8004ed8:	3e03      	subs	r6, #3
	x=scbx->x+1;                  //x
 8004eda:	b2bf      	uxth	r7, r7
	y=scbx->y+SCROLL_BTN_HEIGHT;  //y
 8004edc:	310a      	adds	r1, #10
	ylen=scblen+scbx->scbbarlen-1;// -1
 8004ede:	444b      	add	r3, r9
	GUI_RectangleFill(x ,y,x+xlen,y+ylen, 0);
 8004ee0:	b2b6      	uxth	r6, r6
	y=scbx->y+SCROLL_BTN_HEIGHT;  //y
 8004ee2:	fa1f f881 	uxth.w	r8, r1
	GUI_RectangleFill(x ,y,x+xlen,y+ylen, 0);
 8004ee6:	443e      	add	r6, r7
 8004ee8:	b29b      	uxth	r3, r3
 8004eea:	9400      	str	r4, [sp, #0]
 8004eec:	4443      	add	r3, r8
 8004eee:	4632      	mov	r2, r6
 8004ef0:	4641      	mov	r1, r8
 8004ef2:	4638      	mov	r0, r7
 8004ef4:	f7ff feda 	bl	8004cac <GUI_RectangleFill>
	if(scbx->totalitems <= scbx->itemsperpage)//
 8004ef8:	6929      	ldr	r1, [r5, #16]
 8004efa:	696b      	ldr	r3, [r5, #20]
	{
		scbpos=(scbx->topitem*scblen)/(scbx->totalitems-1);//
	}
	
	//
	GUI_RectangleFill(x ,y+scbpos,x+xlen,y+scbpos+scbx->scbbarlen, 1);
 8004efc:	2201      	movs	r2, #1
	if(scbx->totalitems <= scbx->itemsperpage)//
 8004efe:	4299      	cmp	r1, r3
		scbpos=(scbx->topitem*scblen)/(scbx->totalitems-1);//
 8004f00:	bf81      	itttt	hi
 8004f02:	69ab      	ldrhi	r3, [r5, #24]
 8004f04:	f101 31ff 	addhi.w	r1, r1, #4294967295
 8004f08:	fb03 f409 	mulhi.w	r4, r3, r9
 8004f0c:	fbb4 f4f1 	udivhi	r4, r4, r1
	GUI_RectangleFill(x ,y+scbpos,x+xlen,y+scbpos+scbx->scbbarlen, 1);
 8004f10:	69eb      	ldr	r3, [r5, #28]
 8004f12:	b2a4      	uxth	r4, r4
 8004f14:	eb04 0108 	add.w	r1, r4, r8
 8004f18:	9200      	str	r2, [sp, #0]
 8004f1a:	440b      	add	r3, r1
 8004f1c:	4632      	mov	r2, r6
 8004f1e:	4638      	mov	r0, r7
 8004f20:	f7ff fec4 	bl	8004cac <GUI_RectangleFill>
	//GUI_Refresh();	//
}
 8004f24:	b003      	add	sp, #12
 8004f26:	e8bd 83f0 	ldmia.w	sp!, {r4, r5, r6, r7, r8, r9, pc}
	...

08004f2c <GUI_ScrollbarDraw>:



//
void GUI_ScrollbarDraw(Scrollbar_Typedef *scbx)
{
 8004f2c:	b573      	push	{r0, r1, r4, r5, r6, lr}
	uint32_t scbactlen=0;//
	if(scbx==NULL) return;
 8004f2e:	4604      	mov	r4, r0
 8004f30:	2800      	cmp	r0, #0
 8004f32:	d057      	beq.n	8004fe4 <GUI_ScrollbarDraw+0xb8>
	if(scbx->width<SCROLL_BTN_WIDTH) return;
 8004f34:	6882      	ldr	r2, [r0, #8]
 8004f36:	2a09      	cmp	r2, #9
 8004f38:	d954      	bls.n	8004fe4 <GUI_ScrollbarDraw+0xb8>
	if(scbx->height<2*SCROLL_BTN_HEIGHT) return;
 8004f3a:	68c3      	ldr	r3, [r0, #12]
 8004f3c:	2b13      	cmp	r3, #19
 8004f3e:	d951      	bls.n	8004fe4 <GUI_ScrollbarDraw+0xb8>
	
	//
	GUI_Rectangle(scbx->x, scbx->y, scbx->x+scbx->width-1, scbx->y+scbx->height-1, 1);
 8004f40:	c803      	ldmia	r0, {r0, r1}
 8004f42:	2501      	movs	r5, #1
	//
	OLED_ShowPicture(scbx->x+(scbx->width-8)/2, scbx->y+1, (uint8_t *)scroll_btn_up, 8, 8);
 8004f44:	2608      	movs	r6, #8
	GUI_Rectangle(scbx->x, scbx->y, scbx->x+scbx->width-1, scbx->y+scbx->height-1, 1);
 8004f46:	440b      	add	r3, r1
 8004f48:	4402      	add	r2, r0
 8004f4a:	9500      	str	r5, [sp, #0]
 8004f4c:	3b01      	subs	r3, #1
 8004f4e:	3a01      	subs	r2, #1
 8004f50:	f7ff fe88 	bl	8004c64 <GUI_Rectangle>
	OLED_ShowPicture(scbx->x+(scbx->width-8)/2, scbx->y+1, (uint8_t *)scroll_btn_up, 8, 8);
 8004f54:	68a0      	ldr	r0, [r4, #8]
 8004f56:	6861      	ldr	r1, [r4, #4]
 8004f58:	f1a0 0308 	sub.w	r3, r0, #8
 8004f5c:	6820      	ldr	r0, [r4, #0]
 8004f5e:	4429      	add	r1, r5
 8004f60:	eb00 0053 	add.w	r0, r0, r3, lsr #1
 8004f64:	9600      	str	r6, [sp, #0]
 8004f66:	4633      	mov	r3, r6
 8004f68:	4a1f      	ldr	r2, [pc, #124]	; (8004fe8 <GUI_ScrollbarDraw+0xbc>)
 8004f6a:	b2c9      	uxtb	r1, r1
 8004f6c:	b2c0      	uxtb	r0, r0
 8004f6e:	f7fc fb2b 	bl	80015c8 <OLED_ShowPicture>
	OLED_ShowPicture(scbx->x+(scbx->width-8)/2, scbx->y+scbx->height-9, (uint8_t *)scroll_btn_down, 8, 8);
 8004f72:	68e3      	ldr	r3, [r4, #12]
 8004f74:	68a0      	ldr	r0, [r4, #8]
 8004f76:	6861      	ldr	r1, [r4, #4]
 8004f78:	4a1c      	ldr	r2, [pc, #112]	; (8004fec <GUI_ScrollbarDraw+0xc0>)
 8004f7a:	4419      	add	r1, r3
 8004f7c:	f1a0 0308 	sub.w	r3, r0, #8
 8004f80:	6820      	ldr	r0, [r4, #0]
 8004f82:	3909      	subs	r1, #9
 8004f84:	eb00 0053 	add.w	r0, r0, r3, lsr #1
 8004f88:	9600      	str	r6, [sp, #0]
 8004f8a:	4633      	mov	r3, r6
 8004f8c:	b2c9      	uxtb	r1, r1
 8004f8e:	b2c0      	uxtb	r0, r0
 8004f90:	f7fc fb1a 	bl	80015c8 <OLED_ShowPicture>
	//
	GUI_Line(scbx->x, scbx->y+9, scbx->x+scbx->width-1, scbx->y+9,1);
 8004f94:	e894 0009 	ldmia.w	r4, {r0, r3}
 8004f98:	68a2      	ldr	r2, [r4, #8]
 8004f9a:	3309      	adds	r3, #9
 8004f9c:	4402      	add	r2, r0
 8004f9e:	4619      	mov	r1, r3
 8004fa0:	9500      	str	r5, [sp, #0]
 8004fa2:	3a01      	subs	r2, #1
 8004fa4:	f7ff febc 	bl	8004d20 <GUI_Line>
	GUI_Line(scbx->x, scbx->y+scbx->height-10, scbx->x+scbx->width-1, scbx->y+scbx->height-10,1);
 8004fa8:	e894 0009 	ldmia.w	r4, {r0, r3}
 8004fac:	68e2      	ldr	r2, [r4, #12]
 8004fae:	4413      	add	r3, r2
 8004fb0:	68a2      	ldr	r2, [r4, #8]
 8004fb2:	3b0a      	subs	r3, #10
 8004fb4:	4402      	add	r2, r0
 8004fb6:	4619      	mov	r1, r3
 8004fb8:	9500      	str	r5, [sp, #0]
 8004fba:	3a01      	subs	r2, #1
 8004fbc:	f7ff feb0 	bl	8004d20 <GUI_Line>
	
	
	//
	scbactlen=scbx->height -2*SCROLL_BTN_HEIGHT;
 8004fc0:	68e3      	ldr	r3, [r4, #12]
	
	// 
	if(scbx->itemsperpage >= scbx->totalitems)scbx->scbbarlen=scbactlen;
 8004fc2:	6921      	ldr	r1, [r4, #16]
	scbactlen=scbx->height -2*SCROLL_BTN_HEIGHT;
 8004fc4:	f1a3 0214 	sub.w	r2, r3, #20
	if(scbx->itemsperpage >= scbx->totalitems)scbx->scbbarlen=scbactlen;
 8004fc8:	6963      	ldr	r3, [r4, #20]
	//
	else scbx->scbbarlen=(scbactlen*scbx->itemsperpage)/scbx->totalitems;//
	//
	GUI_Scrollbar_SetPos(scbx);
 8004fca:	4620      	mov	r0, r4
	if(scbx->itemsperpage >= scbx->totalitems)scbx->scbbarlen=scbactlen;
 8004fcc:	428b      	cmp	r3, r1
	else scbx->scbbarlen=(scbactlen*scbx->itemsperpage)/scbx->totalitems;//
 8004fce:	bf3b      	ittet	cc
 8004fd0:	4353      	mulcc	r3, r2
 8004fd2:	fbb3 f3f1 	udivcc	r3, r3, r1
	if(scbx->itemsperpage >= scbx->totalitems)scbx->scbbarlen=scbactlen;
 8004fd6:	61e2      	strcs	r2, [r4, #28]
	else scbx->scbbarlen=(scbactlen*scbx->itemsperpage)/scbx->totalitems;//
 8004fd8:	61e3      	strcc	r3, [r4, #28]
}
 8004fda:	b002      	add	sp, #8
 8004fdc:	e8bd 4070 	ldmia.w	sp!, {r4, r5, r6, lr}
	GUI_Scrollbar_SetPos(scbx);
 8004fe0:	f7ff bf6b 	b.w	8004eba <GUI_Scrollbar_SetPos>
}
 8004fe4:	b002      	add	sp, #8
 8004fe6:	bd70      	pop	{r4, r5, r6, pc}
 8004fe8:	08008874 	.word	0x08008874
 8004fec:	0800886c 	.word	0x0800886c

08004ff0 <show_str>:
//str  :
//f_w:
//f_h:
//mode:0,;1,
void show_str(uint16_t x,uint16_t y,const uint8_t*str,uint8_t f_w,uint8_t f_h,uint8_t mode)
{					
 8004ff0:	e92d 4ff0 	stmdb	sp!, {r4, r5, r6, r7, r8, r9, sl, fp, lr}
 8004ff4:	4680      	mov	r8, r0
	uint16_t x0 = x;
	uint16_t y0 = y;
	while (*str != 0)
 8004ff6:	460c      	mov	r4, r1
 8004ff8:	4645      	mov	r5, r8
{					
 8004ffa:	b085      	sub	sp, #20
 8004ffc:	f89d 7038 	ldrb.w	r7, [sp, #56]	; 0x38
 8005000:	4616      	mov	r6, r2
 8005002:	f89d 203c 	ldrb.w	r2, [sp, #60]	; 0x3c
			y += f_h;
			x = x0;
			str++;
		}
		else
			OLED_ShowChar(x, y, *str, f_w / 2, f_h, mode);     //
 8005006:	ea4f 0a53 	mov.w	sl, r3, lsr #1
{					
 800500a:	9203      	str	r2, [sp, #12]
		if (x > (x0 + LCD_WIDTH - f_h / 2))     //
 800500c:	087a      	lsrs	r2, r7, #1
 800500e:	f5c2 7080 	rsb	r0, r2, #256	; 0x100
		str++;
		x += f_h / 2; //,
 8005012:	b293      	uxth	r3, r2
		if (y > (y0 + LCD_HIGH - f_h))
 8005014:	f101 0940 	add.w	r9, r1, #64	; 0x40
		if (x > (x0 + LCD_WIDTH - f_h / 2))     //
 8005018:	eb00 0b08 	add.w	fp, r0, r8
		x += f_h / 2; //,
 800501c:	9302      	str	r3, [sp, #8]
		if (y > (y0 + LCD_HIGH - f_h))
 800501e:	eba9 0907 	sub.w	r9, r9, r7
	while (*str != 0)
 8005022:	7832      	ldrb	r2, [r6, #0]
 8005024:	b912      	cbnz	r2, 800502c <show_str+0x3c>

	}
}  			 		 
 8005026:	b005      	add	sp, #20
 8005028:	e8bd 8ff0 	ldmia.w	sp!, {r4, r5, r6, r7, r8, r9, sl, fp, pc}
		if (x > (x0 + LCD_WIDTH - f_h / 2))     //
 800502c:	455d      	cmp	r5, fp
			y += f_h;
 800502e:	bfc2      	ittt	gt
 8005030:	19e4      	addgt	r4, r4, r7
 8005032:	b2a4      	uxthgt	r4, r4
			x = x0;
 8005034:	4645      	movgt	r5, r8
		if (y > (y0 + LCD_HIGH - f_h))
 8005036:	454c      	cmp	r4, r9
 8005038:	dcf5      	bgt.n	8005026 <show_str+0x36>
		if (*str == 13) //
 800503a:	2a0d      	cmp	r2, #13
 800503c:	d108      	bne.n	8005050 <show_str+0x60>
			x = x0;
 800503e:	4645      	mov	r5, r8
			y += f_h;
 8005040:	443c      	add	r4, r7
 8005042:	b2a4      	uxth	r4, r4
			str++;
 8005044:	3601      	adds	r6, #1
		x += f_h / 2; //,
 8005046:	9b02      	ldr	r3, [sp, #8]
		str++;
 8005048:	3601      	adds	r6, #1
		x += f_h / 2; //,
 800504a:	441d      	add	r5, r3
 800504c:	b2ad      	uxth	r5, r5
 800504e:	e7e8      	b.n	8005022 <show_str+0x32>
			OLED_ShowChar(x, y, *str, f_w / 2, f_h, mode);     //
 8005050:	9b03      	ldr	r3, [sp, #12]
 8005052:	9700      	str	r7, [sp, #0]
 8005054:	9301      	str	r3, [sp, #4]
 8005056:	b2e1      	uxtb	r1, r4
 8005058:	4653      	mov	r3, sl
 800505a:	b2e8      	uxtb	r0, r5
 800505c:	f7fc fa58 	bl	8001510 <OLED_ShowChar>
 8005060:	e7f1      	b.n	8005046 <show_str+0x56>

08005062 <show_str_mid>:
//()
//len,Show_Str
//len:
void show_str_mid(uint16_t x,uint16_t y,const uint8_t*str,uint8_t f_w,uint8_t f_h,uint8_t mode,uint16_t len)
{
 8005062:	e92d 4ff1 	stmdb	sp!, {r0, r4, r5, r6, r7, r8, r9, sl, fp, lr}
 8005066:	4606      	mov	r6, r0
	uint16_t strlenth=0;
   	strlenth=strlen((char*)str);
 8005068:	4610      	mov	r0, r2
{
 800506a:	4689      	mov	r9, r1
 800506c:	4617      	mov	r7, r2
 800506e:	469a      	mov	sl, r3
   	strlenth=strlen((char*)str);
 8005070:	f7fb f8de 	bl	8000230 <strlen>
{
 8005074:	f89d 8028 	ldrb.w	r8, [sp, #40]	; 0x28
 8005078:	f8bd 4030 	ldrh.w	r4, [sp, #48]	; 0x30
	strlenth*=f_h/2;
 800507c:	ea4f 0558 	mov.w	r5, r8, lsr #1
 8005080:	4368      	muls	r0, r5
 8005082:	b280      	uxth	r0, r0
	if(strlenth>len)show_str(x,y,str,f_w,f_h,mode);
 8005084:	42a0      	cmp	r0, r4
{
 8005086:	f89d b02c 	ldrb.w	fp, [sp, #44]	; 0x2c
	if(strlenth>len)show_str(x,y,str,f_w,f_h,mode);
 800508a:	d90c      	bls.n	80050a6 <show_str_mid+0x44>
 800508c:	4653      	mov	r3, sl
 800508e:	463a      	mov	r2, r7
 8005090:	4649      	mov	r1, r9
 8005092:	4630      	mov	r0, r6
 8005094:	f8cd b02c 	str.w	fp, [sp, #44]	; 0x2c
 8005098:	f8cd 8028 	str.w	r8, [sp, #40]	; 0x28
	else
	{
		strlenth=(len-strlenth)/2;
	    show_str(strlenth+x,y,str,f_w,f_h,mode);
	}
}   
 800509c:	b001      	add	sp, #4
 800509e:	e8bd 4ff0 	ldmia.w	sp!, {r4, r5, r6, r7, r8, r9, sl, fp, lr}
	    show_str(strlenth+x,y,str,f_w,f_h,mode);
 80050a2:	f7ff bfa5 	b.w	8004ff0 <show_str>
		strlenth=(len-strlenth)/2;
 80050a6:	1a24      	subs	r4, r4, r0
 80050a8:	2002      	movs	r0, #2
 80050aa:	fb94 f0f0 	sdiv	r0, r4, r0
	    show_str(strlenth+x,y,str,f_w,f_h,mode);
 80050ae:	4430      	add	r0, r6
 80050b0:	f8cd b02c 	str.w	fp, [sp, #44]	; 0x2c
 80050b4:	f8cd 8028 	str.w	r8, [sp, #40]	; 0x28
 80050b8:	4653      	mov	r3, sl
 80050ba:	463a      	mov	r2, r7
 80050bc:	4649      	mov	r1, r9
 80050be:	b280      	uxth	r0, r0
 80050c0:	e7ec      	b.n	800509c <show_str_mid+0x3a>

080050c2 <getWindowStringlen>:

#if  GUI_WINDOW_EN==1

//
uint16_t getWindowStringlen(const unsigned char *str)
{
 80050c2:	b508      	push	{r3, lr}
	uint16_t strlenth=0;
	strlenth=strlen((const char*)str);
 80050c4:	f7fb f8b4 	bl	8000230 <strlen>
 80050c8:	b280      	uxth	r0, r0
	strlenth*=6;
 80050ca:	eb00 0040 	add.w	r0, r0, r0, lsl #1
 80050ce:	0040      	lsls	r0, r0, #1

	return strlenth;
 80050d0:	b280      	uxth	r0, r0
}
 80050d2:	bd08      	pop	{r3, pc}

080050d4 <GUI_WindowsDraw>:
* 
* win		
* 01
****************************************************************************/
uint8_t  GUI_WindowsDraw(WINDOWS *win)
{  
 80050d4:	b5f0      	push	{r4, r5, r6, r7, lr}
	/* 0 */
	if( ( (win->width)<20 ) || ( (win->height)<20 ) ) return(0);	// 
 80050d6:	6882      	ldr	r2, [r0, #8]
{  
 80050d8:	b085      	sub	sp, #20
	if( ( (win->width)<20 ) || ( (win->height)<20 ) ) return(0);	// 
 80050da:	2a13      	cmp	r2, #19
{  
 80050dc:	4604      	mov	r4, r0
	if( ( (win->width)<20 ) || ( (win->height)<20 ) ) return(0);	// 
 80050de:	d802      	bhi.n	80050e6 <GUI_WindowsDraw+0x12>
 80050e0:	2000      	movs	r0, #0
	{  
		return 0;//
	}	
	show_str_mid(win->x, win->y+1, win->title,12,12,0,win->width);//
	return(1);
}
 80050e2:	b005      	add	sp, #20
 80050e4:	bdf0      	pop	{r4, r5, r6, r7, pc}
	if( ( (win->width)<20 ) || ( (win->height)<20 ) ) return(0);	// 
 80050e6:	68c3      	ldr	r3, [r0, #12]
 80050e8:	2b13      	cmp	r3, #19
 80050ea:	d9f9      	bls.n	80050e0 <GUI_WindowsDraw+0xc>
	if( (win->x + win->width ) > GUI_LCM_XMAX ) return(0);			// 
 80050ec:	6800      	ldr	r0, [r0, #0]
 80050ee:	4402      	add	r2, r0
 80050f0:	f5b2 7f80 	cmp.w	r2, #256	; 0x100
 80050f4:	d8f4      	bhi.n	80050e0 <GUI_WindowsDraw+0xc>
	if( (win->y + win->height ) > GUI_LCM_YMAX ) return(0);			// 
 80050f6:	6861      	ldr	r1, [r4, #4]
 80050f8:	440b      	add	r3, r1
 80050fa:	2b40      	cmp	r3, #64	; 0x40
 80050fc:	d8f0      	bhi.n	80050e0 <GUI_WindowsDraw+0xc>
	GUI_RectangleFill(win->x, win->y, win->x + win->width - 1, win->y + win->height - 1, 0);// ()
 80050fe:	2600      	movs	r6, #0
	GUI_Rectangle(win->x, win->y, win->x + win->width - 1, win->y + win->height - 1, 1);	// 
 8005100:	2501      	movs	r5, #1
	GUI_RectangleFill(win->x, win->y, win->x + win->width - 1, win->y + win->height - 1, 0);// ()
 8005102:	3b01      	subs	r3, #1
 8005104:	3a01      	subs	r2, #1
 8005106:	9600      	str	r6, [sp, #0]
 8005108:	f7ff fdd0 	bl	8004cac <GUI_RectangleFill>
	GUI_Rectangle(win->x, win->y, win->x + win->width - 1, win->y + win->height - 1, 1);	// 
 800510c:	e894 0003 	ldmia.w	r4, {r0, r1}
 8005110:	68e3      	ldr	r3, [r4, #12]
 8005112:	68a2      	ldr	r2, [r4, #8]
 8005114:	440b      	add	r3, r1
 8005116:	4402      	add	r2, r0
 8005118:	3b01      	subs	r3, #1
 800511a:	3a01      	subs	r2, #1
 800511c:	9500      	str	r5, [sp, #0]
 800511e:	f7ff fda1 	bl	8004c64 <GUI_Rectangle>
	GUI_HLine(win->x, win->y + 14, win->x + win->width - 1, disp_color);					// 
 8005122:	8820      	ldrh	r0, [r4, #0]
 8005124:	68a2      	ldr	r2, [r4, #8]
 8005126:	6861      	ldr	r1, [r4, #4]
 8005128:	4402      	add	r2, r0
 800512a:	4b13      	ldr	r3, [pc, #76]	; (8005178 <GUI_WindowsDraw+0xa4>)
 800512c:	3a01      	subs	r2, #1
 800512e:	310e      	adds	r1, #14
 8005130:	781b      	ldrb	r3, [r3, #0]
 8005132:	b292      	uxth	r2, r2
 8005134:	b2c9      	uxtb	r1, r1
 8005136:	f7ff fe94 	bl	8004e62 <GUI_HLine>
	GUI_RectangleFill(win->x, win->y, win->x + win->width - 1, win->y + 14-1, 1);
 800513a:	e894 0007 	ldmia.w	r4, {r0, r1, r2}
 800513e:	4402      	add	r2, r0
 8005140:	f101 030d 	add.w	r3, r1, #13
 8005144:	3a01      	subs	r2, #1
 8005146:	9500      	str	r5, [sp, #0]
 8005148:	f7ff fdb0 	bl	8004cac <GUI_RectangleFill>
	if(getWindowStringlen(win->title)>(win->width-2))
 800514c:	69a7      	ldr	r7, [r4, #24]
 800514e:	4638      	mov	r0, r7
 8005150:	f7ff ffb7 	bl	80050c2 <getWindowStringlen>
 8005154:	68a3      	ldr	r3, [r4, #8]
 8005156:	1e9a      	subs	r2, r3, #2
 8005158:	4290      	cmp	r0, r2
 800515a:	d8c1      	bhi.n	80050e0 <GUI_WindowsDraw+0xc>
	show_str_mid(win->x, win->y+1, win->title,12,12,0,win->width);//
 800515c:	b29b      	uxth	r3, r3
 800515e:	9302      	str	r3, [sp, #8]
 8005160:	230c      	movs	r3, #12
 8005162:	6861      	ldr	r1, [r4, #4]
 8005164:	8820      	ldrh	r0, [r4, #0]
 8005166:	4429      	add	r1, r5
 8005168:	9601      	str	r6, [sp, #4]
 800516a:	9300      	str	r3, [sp, #0]
 800516c:	463a      	mov	r2, r7
 800516e:	b289      	uxth	r1, r1
 8005170:	f7ff ff77 	bl	8005062 <show_str_mid>
	return(1);
 8005174:	4628      	mov	r0, r5
 8005176:	e7b4      	b.n	80050e2 <GUI_WindowsDraw+0xe>
 8005178:	200000b8 	.word	0x200000b8

0800517c <Reset_Handler>:
  .weak Reset_Handler
  .type Reset_Handler, %function
Reset_Handler:

/* Copy the data segment initializers from flash to SRAM */
  movs r1, #0
 800517c:	2100      	movs	r1, #0
  b LoopCopyDataInit
 800517e:	e003      	b.n	8005188 <LoopCopyDataInit>

08005180 <CopyDataInit>:

CopyDataInit:
  ldr r3, =_sidata
 8005180:	4b0b      	ldr	r3, [pc, #44]	; (80051b0 <LoopFillZerobss+0x14>)
  ldr r3, [r3, r1]
 8005182:	585b      	ldr	r3, [r3, r1]
  str r3, [r0, r1]
 8005184:	5043      	str	r3, [r0, r1]
  adds r1, r1, #4
 8005186:	3104      	adds	r1, #4

08005188 <LoopCopyDataInit>:

LoopCopyDataInit:
  ldr r0, =_sdata
 8005188:	480a      	ldr	r0, [pc, #40]	; (80051b4 <LoopFillZerobss+0x18>)
  ldr r3, =_edata
 800518a:	4b0b      	ldr	r3, [pc, #44]	; (80051b8 <LoopFillZerobss+0x1c>)
  adds r2, r0, r1
 800518c:	1842      	adds	r2, r0, r1
  cmp r2, r3
 800518e:	429a      	cmp	r2, r3
  bcc CopyDataInit
 8005190:	d3f6      	bcc.n	8005180 <CopyDataInit>
  ldr r2, =_sbss
 8005192:	4a0a      	ldr	r2, [pc, #40]	; (80051bc <LoopFillZerobss+0x20>)
  b LoopFillZerobss
 8005194:	e002      	b.n	800519c <LoopFillZerobss>

08005196 <FillZerobss>:
/* Zero fill the bss segment. */
FillZerobss:
  movs r3, #0
 8005196:	2300      	movs	r3, #0
  str r3, [r2], #4
 8005198:	f842 3b04 	str.w	r3, [r2], #4

0800519c <LoopFillZerobss>:

LoopFillZerobss:
  ldr r3, = _ebss
 800519c:	4b08      	ldr	r3, [pc, #32]	; (80051c0 <LoopFillZerobss+0x24>)
  cmp r2, r3
 800519e:	429a      	cmp	r2, r3
  bcc FillZerobss
 80051a0:	d3f9      	bcc.n	8005196 <FillZerobss>

/* Call the clock system intitialization function.*/
    bl  SystemInit
 80051a2:	f7fc f8e7 	bl	8001374 <SystemInit>
/* Call static constructors */
    bl __libc_init_array
 80051a6:	f000 f80f 	bl	80051c8 <__libc_init_array>
/* Call the application's entry point.*/
  bl main
 80051aa:	f7fb ff01 	bl	8000fb0 <main>
  bx lr
 80051ae:	4770      	bx	lr
  ldr r3, =_sidata
 80051b0:	08008af8 	.word	0x08008af8
  ldr r0, =_sdata
 80051b4:	20000000 	.word	0x20000000
  ldr r3, =_edata
 80051b8:	2000072c 	.word	0x2000072c
  ldr r2, =_sbss
 80051bc:	2000072c 	.word	0x2000072c
  ldr r3, = _ebss
 80051c0:	20004670 	.word	0x20004670

080051c4 <ADC1_2_IRQHandler>:
 * @retval : None
*/
    .section .text.Default_Handler,"ax",%progbits
Default_Handler:
Infinite_Loop:
  b Infinite_Loop
 80051c4:	e7fe      	b.n	80051c4 <ADC1_2_IRQHandler>
	...

080051c8 <__libc_init_array>:
 80051c8:	b570      	push	{r4, r5, r6, lr}
 80051ca:	2500      	movs	r5, #0
 80051cc:	4e0c      	ldr	r6, [pc, #48]	; (8005200 <__libc_init_array+0x38>)
 80051ce:	4c0d      	ldr	r4, [pc, #52]	; (8005204 <__libc_init_array+0x3c>)
 80051d0:	1ba4      	subs	r4, r4, r6
 80051d2:	10a4      	asrs	r4, r4, #2
 80051d4:	42a5      	cmp	r5, r4
 80051d6:	d109      	bne.n	80051ec <__libc_init_array+0x24>
 80051d8:	f002 ff36 	bl	8008048 <_init>
 80051dc:	2500      	movs	r5, #0
 80051de:	4e0a      	ldr	r6, [pc, #40]	; (8005208 <__libc_init_array+0x40>)
 80051e0:	4c0a      	ldr	r4, [pc, #40]	; (800520c <__libc_init_array+0x44>)
 80051e2:	1ba4      	subs	r4, r4, r6
 80051e4:	10a4      	asrs	r4, r4, #2
 80051e6:	42a5      	cmp	r5, r4
 80051e8:	d105      	bne.n	80051f6 <__libc_init_array+0x2e>
 80051ea:	bd70      	pop	{r4, r5, r6, pc}
 80051ec:	f856 3025 	ldr.w	r3, [r6, r5, lsl #2]
 80051f0:	4798      	blx	r3
 80051f2:	3501      	adds	r5, #1
 80051f4:	e7ee      	b.n	80051d4 <__libc_init_array+0xc>
 80051f6:	f856 3025 	ldr.w	r3, [r6, r5, lsl #2]
 80051fa:	4798      	blx	r3
 80051fc:	3501      	adds	r5, #1
 80051fe:	e7f2      	b.n	80051e6 <__libc_init_array+0x1e>
 8005200:	08008af0 	.word	0x08008af0
 8005204:	08008af0 	.word	0x08008af0
 8005208:	08008af0 	.word	0x08008af0
 800520c:	08008af4 	.word	0x08008af4

08005210 <memcpy>:
 8005210:	b510      	push	{r4, lr}
 8005212:	1e43      	subs	r3, r0, #1
 8005214:	440a      	add	r2, r1
 8005216:	4291      	cmp	r1, r2
 8005218:	d100      	bne.n	800521c <memcpy+0xc>
 800521a:	bd10      	pop	{r4, pc}
 800521c:	f811 4b01 	ldrb.w	r4, [r1], #1
 8005220:	f803 4f01 	strb.w	r4, [r3, #1]!
 8005224:	e7f7      	b.n	8005216 <memcpy+0x6>

08005226 <memset>:
 8005226:	4603      	mov	r3, r0
 8005228:	4402      	add	r2, r0
 800522a:	4293      	cmp	r3, r2
 800522c:	d100      	bne.n	8005230 <memset+0xa>
 800522e:	4770      	bx	lr
 8005230:	f803 1b01 	strb.w	r1, [r3], #1
 8005234:	e7f9      	b.n	800522a <memset+0x4>
	...

08005238 <snprintf>:
 8005238:	b40c      	push	{r2, r3}
 800523a:	b530      	push	{r4, r5, lr}
 800523c:	4b17      	ldr	r3, [pc, #92]	; (800529c <snprintf+0x64>)
 800523e:	1e0c      	subs	r4, r1, #0
 8005240:	b09d      	sub	sp, #116	; 0x74
 8005242:	681d      	ldr	r5, [r3, #0]
 8005244:	da08      	bge.n	8005258 <snprintf+0x20>
 8005246:	238b      	movs	r3, #139	; 0x8b
 8005248:	f04f 30ff 	mov.w	r0, #4294967295
 800524c:	602b      	str	r3, [r5, #0]
 800524e:	b01d      	add	sp, #116	; 0x74
 8005250:	e8bd 4030 	ldmia.w	sp!, {r4, r5, lr}
 8005254:	b002      	add	sp, #8
 8005256:	4770      	bx	lr
 8005258:	f44f 7302 	mov.w	r3, #520	; 0x208
 800525c:	f8ad 3014 	strh.w	r3, [sp, #20]
 8005260:	bf0c      	ite	eq
 8005262:	4623      	moveq	r3, r4
 8005264:	f104 33ff 	addne.w	r3, r4, #4294967295
 8005268:	9304      	str	r3, [sp, #16]
 800526a:	9307      	str	r3, [sp, #28]
 800526c:	f64f 73ff 	movw	r3, #65535	; 0xffff
 8005270:	9002      	str	r0, [sp, #8]
 8005272:	9006      	str	r0, [sp, #24]
 8005274:	f8ad 3016 	strh.w	r3, [sp, #22]
 8005278:	9a20      	ldr	r2, [sp, #128]	; 0x80
 800527a:	ab21      	add	r3, sp, #132	; 0x84
 800527c:	a902      	add	r1, sp, #8
 800527e:	4628      	mov	r0, r5
 8005280:	9301      	str	r3, [sp, #4]
 8005282:	f000 f80d 	bl	80052a0 <_svfprintf_r>
 8005286:	1c43      	adds	r3, r0, #1
 8005288:	bfbc      	itt	lt
 800528a:	238b      	movlt	r3, #139	; 0x8b
 800528c:	602b      	strlt	r3, [r5, #0]
 800528e:	2c00      	cmp	r4, #0
 8005290:	d0dd      	beq.n	800524e <snprintf+0x16>
 8005292:	2200      	movs	r2, #0
 8005294:	9b02      	ldr	r3, [sp, #8]
 8005296:	701a      	strb	r2, [r3, #0]
 8005298:	e7d9      	b.n	800524e <snprintf+0x16>
 800529a:	bf00      	nop
 800529c:	200000bc 	.word	0x200000bc

080052a0 <_svfprintf_r>:
 80052a0:	e92d 4ff0 	stmdb	sp!, {r4, r5, r6, r7, r8, r9, sl, fp, lr}
 80052a4:	b0bf      	sub	sp, #252	; 0xfc
 80052a6:	4689      	mov	r9, r1
 80052a8:	4615      	mov	r5, r2
 80052aa:	461f      	mov	r7, r3
 80052ac:	4682      	mov	sl, r0
 80052ae:	f001 fe27 	bl	8006f00 <_localeconv_r>
 80052b2:	6803      	ldr	r3, [r0, #0]
 80052b4:	4618      	mov	r0, r3
 80052b6:	9311      	str	r3, [sp, #68]	; 0x44
 80052b8:	f7fa ffba 	bl	8000230 <strlen>
 80052bc:	f8b9 300c 	ldrh.w	r3, [r9, #12]
 80052c0:	900a      	str	r0, [sp, #40]	; 0x28
 80052c2:	061b      	lsls	r3, r3, #24
 80052c4:	d518      	bpl.n	80052f8 <_svfprintf_r+0x58>
 80052c6:	f8d9 3010 	ldr.w	r3, [r9, #16]
 80052ca:	b9ab      	cbnz	r3, 80052f8 <_svfprintf_r+0x58>
 80052cc:	2140      	movs	r1, #64	; 0x40
 80052ce:	4650      	mov	r0, sl
 80052d0:	f001 fe2c 	bl	8006f2c <_malloc_r>
 80052d4:	f8c9 0000 	str.w	r0, [r9]
 80052d8:	f8c9 0010 	str.w	r0, [r9, #16]
 80052dc:	b948      	cbnz	r0, 80052f2 <_svfprintf_r+0x52>
 80052de:	230c      	movs	r3, #12
 80052e0:	f8ca 3000 	str.w	r3, [sl]
 80052e4:	f04f 33ff 	mov.w	r3, #4294967295
 80052e8:	930b      	str	r3, [sp, #44]	; 0x2c
 80052ea:	980b      	ldr	r0, [sp, #44]	; 0x2c
 80052ec:	b03f      	add	sp, #252	; 0xfc
 80052ee:	e8bd 8ff0 	ldmia.w	sp!, {r4, r5, r6, r7, r8, r9, sl, fp, pc}
 80052f2:	2340      	movs	r3, #64	; 0x40
 80052f4:	f8c9 3014 	str.w	r3, [r9, #20]
 80052f8:	2300      	movs	r3, #0
 80052fa:	ac2e      	add	r4, sp, #184	; 0xb8
 80052fc:	9421      	str	r4, [sp, #132]	; 0x84
 80052fe:	9323      	str	r3, [sp, #140]	; 0x8c
 8005300:	9322      	str	r3, [sp, #136]	; 0x88
 8005302:	9509      	str	r5, [sp, #36]	; 0x24
 8005304:	9307      	str	r3, [sp, #28]
 8005306:	930d      	str	r3, [sp, #52]	; 0x34
 8005308:	930e      	str	r3, [sp, #56]	; 0x38
 800530a:	9315      	str	r3, [sp, #84]	; 0x54
 800530c:	9314      	str	r3, [sp, #80]	; 0x50
 800530e:	930b      	str	r3, [sp, #44]	; 0x2c
 8005310:	9312      	str	r3, [sp, #72]	; 0x48
 8005312:	9313      	str	r3, [sp, #76]	; 0x4c
 8005314:	9d09      	ldr	r5, [sp, #36]	; 0x24
 8005316:	462b      	mov	r3, r5
 8005318:	f813 2b01 	ldrb.w	r2, [r3], #1
 800531c:	b112      	cbz	r2, 8005324 <_svfprintf_r+0x84>
 800531e:	2a25      	cmp	r2, #37	; 0x25
 8005320:	f040 8083 	bne.w	800542a <_svfprintf_r+0x18a>
 8005324:	9b09      	ldr	r3, [sp, #36]	; 0x24
 8005326:	1aee      	subs	r6, r5, r3
 8005328:	d00d      	beq.n	8005346 <_svfprintf_r+0xa6>
 800532a:	e884 0048 	stmia.w	r4, {r3, r6}
 800532e:	9b23      	ldr	r3, [sp, #140]	; 0x8c
 8005330:	4433      	add	r3, r6
 8005332:	9323      	str	r3, [sp, #140]	; 0x8c
 8005334:	9b22      	ldr	r3, [sp, #136]	; 0x88
 8005336:	3301      	adds	r3, #1
 8005338:	2b07      	cmp	r3, #7
 800533a:	9322      	str	r3, [sp, #136]	; 0x88
 800533c:	dc77      	bgt.n	800542e <_svfprintf_r+0x18e>
 800533e:	3408      	adds	r4, #8
 8005340:	9b0b      	ldr	r3, [sp, #44]	; 0x2c
 8005342:	4433      	add	r3, r6
 8005344:	930b      	str	r3, [sp, #44]	; 0x2c
 8005346:	782b      	ldrb	r3, [r5, #0]
 8005348:	2b00      	cmp	r3, #0
 800534a:	f000 8725 	beq.w	8006198 <_svfprintf_r+0xef8>
 800534e:	2300      	movs	r3, #0
 8005350:	1c69      	adds	r1, r5, #1
 8005352:	461a      	mov	r2, r3
 8005354:	f04f 3bff 	mov.w	fp, #4294967295
 8005358:	461d      	mov	r5, r3
 800535a:	200a      	movs	r0, #10
 800535c:	f88d 3067 	strb.w	r3, [sp, #103]	; 0x67
 8005360:	930c      	str	r3, [sp, #48]	; 0x30
 8005362:	1c4e      	adds	r6, r1, #1
 8005364:	7809      	ldrb	r1, [r1, #0]
 8005366:	9609      	str	r6, [sp, #36]	; 0x24
 8005368:	9106      	str	r1, [sp, #24]
 800536a:	9906      	ldr	r1, [sp, #24]
 800536c:	3920      	subs	r1, #32
 800536e:	2958      	cmp	r1, #88	; 0x58
 8005370:	f200 8414 	bhi.w	8005b9c <_svfprintf_r+0x8fc>
 8005374:	e8df f011 	tbh	[pc, r1, lsl #1]
 8005378:	041200a5 	.word	0x041200a5
 800537c:	00aa0412 	.word	0x00aa0412
 8005380:	04120412 	.word	0x04120412
 8005384:	04120412 	.word	0x04120412
 8005388:	04120412 	.word	0x04120412
 800538c:	006500ad 	.word	0x006500ad
 8005390:	00b50412 	.word	0x00b50412
 8005394:	041200b8 	.word	0x041200b8
 8005398:	00d800d5 	.word	0x00d800d5
 800539c:	00d800d8 	.word	0x00d800d8
 80053a0:	00d800d8 	.word	0x00d800d8
 80053a4:	00d800d8 	.word	0x00d800d8
 80053a8:	00d800d8 	.word	0x00d800d8
 80053ac:	04120412 	.word	0x04120412
 80053b0:	04120412 	.word	0x04120412
 80053b4:	04120412 	.word	0x04120412
 80053b8:	04120412 	.word	0x04120412
 80053bc:	04120412 	.word	0x04120412
 80053c0:	0122010c 	.word	0x0122010c
 80053c4:	01220412 	.word	0x01220412
 80053c8:	04120412 	.word	0x04120412
 80053cc:	04120412 	.word	0x04120412
 80053d0:	041200eb 	.word	0x041200eb
 80053d4:	033c0412 	.word	0x033c0412
 80053d8:	04120412 	.word	0x04120412
 80053dc:	04120412 	.word	0x04120412
 80053e0:	03a40412 	.word	0x03a40412
 80053e4:	04120412 	.word	0x04120412
 80053e8:	04120085 	.word	0x04120085
 80053ec:	04120412 	.word	0x04120412
 80053f0:	04120412 	.word	0x04120412
 80053f4:	04120412 	.word	0x04120412
 80053f8:	04120412 	.word	0x04120412
 80053fc:	00fe0412 	.word	0x00fe0412
 8005400:	0122006b 	.word	0x0122006b
 8005404:	01220122 	.word	0x01220122
 8005408:	006b00ee 	.word	0x006b00ee
 800540c:	04120412 	.word	0x04120412
 8005410:	041200f1 	.word	0x041200f1
 8005414:	033e031e 	.word	0x033e031e
 8005418:	00f80372 	.word	0x00f80372
 800541c:	03830412 	.word	0x03830412
 8005420:	03a60412 	.word	0x03a60412
 8005424:	04120412 	.word	0x04120412
 8005428:	03be      	.short	0x03be
 800542a:	461d      	mov	r5, r3
 800542c:	e773      	b.n	8005316 <_svfprintf_r+0x76>
 800542e:	aa21      	add	r2, sp, #132	; 0x84
 8005430:	4649      	mov	r1, r9
 8005432:	4650      	mov	r0, sl
 8005434:	f002 fa82 	bl	800793c <__ssprint_r>
 8005438:	2800      	cmp	r0, #0
 800543a:	f040 868e 	bne.w	800615a <_svfprintf_r+0xeba>
 800543e:	ac2e      	add	r4, sp, #184	; 0xb8
 8005440:	e77e      	b.n	8005340 <_svfprintf_r+0xa0>
 8005442:	2301      	movs	r3, #1
 8005444:	222b      	movs	r2, #43	; 0x2b
 8005446:	9909      	ldr	r1, [sp, #36]	; 0x24
 8005448:	e78b      	b.n	8005362 <_svfprintf_r+0xc2>
 800544a:	460f      	mov	r7, r1
 800544c:	e7fb      	b.n	8005446 <_svfprintf_r+0x1a6>
 800544e:	b10b      	cbz	r3, 8005454 <_svfprintf_r+0x1b4>
 8005450:	f88d 2067 	strb.w	r2, [sp, #103]	; 0x67
 8005454:	06ae      	lsls	r6, r5, #26
 8005456:	f140 80a1 	bpl.w	800559c <_svfprintf_r+0x2fc>
 800545a:	3707      	adds	r7, #7
 800545c:	f027 0707 	bic.w	r7, r7, #7
 8005460:	f107 0308 	add.w	r3, r7, #8
 8005464:	9308      	str	r3, [sp, #32]
 8005466:	e9d7 6700 	ldrd	r6, r7, [r7]
 800546a:	2e00      	cmp	r6, #0
 800546c:	f177 0300 	sbcs.w	r3, r7, #0
 8005470:	da05      	bge.n	800547e <_svfprintf_r+0x1de>
 8005472:	232d      	movs	r3, #45	; 0x2d
 8005474:	4276      	negs	r6, r6
 8005476:	eb67 0747 	sbc.w	r7, r7, r7, lsl #1
 800547a:	f88d 3067 	strb.w	r3, [sp, #103]	; 0x67
 800547e:	2301      	movs	r3, #1
 8005480:	e2c7      	b.n	8005a12 <_svfprintf_r+0x772>
 8005482:	b10b      	cbz	r3, 8005488 <_svfprintf_r+0x1e8>
 8005484:	f88d 2067 	strb.w	r2, [sp, #103]	; 0x67
 8005488:	4ba0      	ldr	r3, [pc, #640]	; (800570c <_svfprintf_r+0x46c>)
 800548a:	9315      	str	r3, [sp, #84]	; 0x54
 800548c:	06ab      	lsls	r3, r5, #26
 800548e:	f140 8336 	bpl.w	8005afe <_svfprintf_r+0x85e>
 8005492:	3707      	adds	r7, #7
 8005494:	f027 0707 	bic.w	r7, r7, #7
 8005498:	f107 0308 	add.w	r3, r7, #8
 800549c:	9308      	str	r3, [sp, #32]
 800549e:	e9d7 6700 	ldrd	r6, r7, [r7]
 80054a2:	07e8      	lsls	r0, r5, #31
 80054a4:	d50b      	bpl.n	80054be <_svfprintf_r+0x21e>
 80054a6:	ea56 0307 	orrs.w	r3, r6, r7
 80054aa:	d008      	beq.n	80054be <_svfprintf_r+0x21e>
 80054ac:	2330      	movs	r3, #48	; 0x30
 80054ae:	f88d 3068 	strb.w	r3, [sp, #104]	; 0x68
 80054b2:	f89d 3018 	ldrb.w	r3, [sp, #24]
 80054b6:	f045 0502 	orr.w	r5, r5, #2
 80054ba:	f88d 3069 	strb.w	r3, [sp, #105]	; 0x69
 80054be:	2302      	movs	r3, #2
 80054c0:	e2a4      	b.n	8005a0c <_svfprintf_r+0x76c>
 80054c2:	2a00      	cmp	r2, #0
 80054c4:	d1bf      	bne.n	8005446 <_svfprintf_r+0x1a6>
 80054c6:	2301      	movs	r3, #1
 80054c8:	2220      	movs	r2, #32
 80054ca:	e7bc      	b.n	8005446 <_svfprintf_r+0x1a6>
 80054cc:	f045 0501 	orr.w	r5, r5, #1
 80054d0:	e7b9      	b.n	8005446 <_svfprintf_r+0x1a6>
 80054d2:	683e      	ldr	r6, [r7, #0]
 80054d4:	1d39      	adds	r1, r7, #4
 80054d6:	2e00      	cmp	r6, #0
 80054d8:	960c      	str	r6, [sp, #48]	; 0x30
 80054da:	dab6      	bge.n	800544a <_svfprintf_r+0x1aa>
 80054dc:	460f      	mov	r7, r1
 80054de:	4276      	negs	r6, r6
 80054e0:	960c      	str	r6, [sp, #48]	; 0x30
 80054e2:	f045 0504 	orr.w	r5, r5, #4
 80054e6:	e7ae      	b.n	8005446 <_svfprintf_r+0x1a6>
 80054e8:	9909      	ldr	r1, [sp, #36]	; 0x24
 80054ea:	1c4e      	adds	r6, r1, #1
 80054ec:	7809      	ldrb	r1, [r1, #0]
 80054ee:	292a      	cmp	r1, #42	; 0x2a
 80054f0:	9106      	str	r1, [sp, #24]
 80054f2:	d010      	beq.n	8005516 <_svfprintf_r+0x276>
 80054f4:	f04f 0b00 	mov.w	fp, #0
 80054f8:	9609      	str	r6, [sp, #36]	; 0x24
 80054fa:	9906      	ldr	r1, [sp, #24]
 80054fc:	3930      	subs	r1, #48	; 0x30
 80054fe:	2909      	cmp	r1, #9
 8005500:	f63f af33 	bhi.w	800536a <_svfprintf_r+0xca>
 8005504:	fb00 1b0b 	mla	fp, r0, fp, r1
 8005508:	9909      	ldr	r1, [sp, #36]	; 0x24
 800550a:	460e      	mov	r6, r1
 800550c:	f816 1b01 	ldrb.w	r1, [r6], #1
 8005510:	9106      	str	r1, [sp, #24]
 8005512:	9609      	str	r6, [sp, #36]	; 0x24
 8005514:	e7f1      	b.n	80054fa <_svfprintf_r+0x25a>
 8005516:	6839      	ldr	r1, [r7, #0]
 8005518:	9609      	str	r6, [sp, #36]	; 0x24
 800551a:	ea41 7be1 	orr.w	fp, r1, r1, asr #31
 800551e:	3704      	adds	r7, #4
 8005520:	e791      	b.n	8005446 <_svfprintf_r+0x1a6>
 8005522:	f045 0580 	orr.w	r5, r5, #128	; 0x80
 8005526:	e78e      	b.n	8005446 <_svfprintf_r+0x1a6>
 8005528:	2100      	movs	r1, #0
 800552a:	910c      	str	r1, [sp, #48]	; 0x30
 800552c:	9906      	ldr	r1, [sp, #24]
 800552e:	9e0c      	ldr	r6, [sp, #48]	; 0x30
 8005530:	3930      	subs	r1, #48	; 0x30
 8005532:	fb00 1106 	mla	r1, r0, r6, r1
 8005536:	910c      	str	r1, [sp, #48]	; 0x30
 8005538:	9909      	ldr	r1, [sp, #36]	; 0x24
 800553a:	460e      	mov	r6, r1
 800553c:	f816 1b01 	ldrb.w	r1, [r6], #1
 8005540:	9106      	str	r1, [sp, #24]
 8005542:	9906      	ldr	r1, [sp, #24]
 8005544:	9609      	str	r6, [sp, #36]	; 0x24
 8005546:	3930      	subs	r1, #48	; 0x30
 8005548:	2909      	cmp	r1, #9
 800554a:	d9ef      	bls.n	800552c <_svfprintf_r+0x28c>
 800554c:	e70d      	b.n	800536a <_svfprintf_r+0xca>
 800554e:	f045 0508 	orr.w	r5, r5, #8
 8005552:	e778      	b.n	8005446 <_svfprintf_r+0x1a6>
 8005554:	f045 0540 	orr.w	r5, r5, #64	; 0x40
 8005558:	e775      	b.n	8005446 <_svfprintf_r+0x1a6>
 800555a:	9909      	ldr	r1, [sp, #36]	; 0x24
 800555c:	7809      	ldrb	r1, [r1, #0]
 800555e:	296c      	cmp	r1, #108	; 0x6c
 8005560:	d105      	bne.n	800556e <_svfprintf_r+0x2ce>
 8005562:	9909      	ldr	r1, [sp, #36]	; 0x24
 8005564:	3101      	adds	r1, #1
 8005566:	9109      	str	r1, [sp, #36]	; 0x24
 8005568:	f045 0520 	orr.w	r5, r5, #32
 800556c:	e76b      	b.n	8005446 <_svfprintf_r+0x1a6>
 800556e:	f045 0510 	orr.w	r5, r5, #16
 8005572:	e768      	b.n	8005446 <_svfprintf_r+0x1a6>
 8005574:	2600      	movs	r6, #0
 8005576:	1d3b      	adds	r3, r7, #4
 8005578:	9308      	str	r3, [sp, #32]
 800557a:	683b      	ldr	r3, [r7, #0]
 800557c:	f88d 6067 	strb.w	r6, [sp, #103]	; 0x67
 8005580:	f88d 3090 	strb.w	r3, [sp, #144]	; 0x90
 8005584:	f04f 0b01 	mov.w	fp, #1
 8005588:	4637      	mov	r7, r6
 800558a:	f10d 0890 	add.w	r8, sp, #144	; 0x90
 800558e:	e11c      	b.n	80057ca <_svfprintf_r+0x52a>
 8005590:	b10b      	cbz	r3, 8005596 <_svfprintf_r+0x2f6>
 8005592:	f88d 2067 	strb.w	r2, [sp, #103]	; 0x67
 8005596:	f045 0510 	orr.w	r5, r5, #16
 800559a:	e75b      	b.n	8005454 <_svfprintf_r+0x1b4>
 800559c:	f015 0f10 	tst.w	r5, #16
 80055a0:	f107 0304 	add.w	r3, r7, #4
 80055a4:	d003      	beq.n	80055ae <_svfprintf_r+0x30e>
 80055a6:	683e      	ldr	r6, [r7, #0]
 80055a8:	9308      	str	r3, [sp, #32]
 80055aa:	17f7      	asrs	r7, r6, #31
 80055ac:	e75d      	b.n	800546a <_svfprintf_r+0x1ca>
 80055ae:	683e      	ldr	r6, [r7, #0]
 80055b0:	f015 0f40 	tst.w	r5, #64	; 0x40
 80055b4:	9308      	str	r3, [sp, #32]
 80055b6:	bf18      	it	ne
 80055b8:	b236      	sxthne	r6, r6
 80055ba:	e7f6      	b.n	80055aa <_svfprintf_r+0x30a>
 80055bc:	b10b      	cbz	r3, 80055c2 <_svfprintf_r+0x322>
 80055be:	f88d 2067 	strb.w	r2, [sp, #103]	; 0x67
 80055c2:	3707      	adds	r7, #7
 80055c4:	f027 0707 	bic.w	r7, r7, #7
 80055c8:	f107 0308 	add.w	r3, r7, #8
 80055cc:	9308      	str	r3, [sp, #32]
 80055ce:	683b      	ldr	r3, [r7, #0]
 80055d0:	f04f 32ff 	mov.w	r2, #4294967295
 80055d4:	930d      	str	r3, [sp, #52]	; 0x34
 80055d6:	687b      	ldr	r3, [r7, #4]
 80055d8:	9f0d      	ldr	r7, [sp, #52]	; 0x34
 80055da:	930e      	str	r3, [sp, #56]	; 0x38
 80055dc:	9b0e      	ldr	r3, [sp, #56]	; 0x38
 80055de:	4638      	mov	r0, r7
 80055e0:	f023 4600 	bic.w	r6, r3, #2147483648	; 0x80000000
 80055e4:	4631      	mov	r1, r6
 80055e6:	4b4a      	ldr	r3, [pc, #296]	; (8005710 <_svfprintf_r+0x470>)
 80055e8:	f7fb fa7c 	bl	8000ae4 <__aeabi_dcmpun>
 80055ec:	2800      	cmp	r0, #0
 80055ee:	f040 85dc 	bne.w	80061aa <_svfprintf_r+0xf0a>
 80055f2:	f04f 32ff 	mov.w	r2, #4294967295
 80055f6:	4b46      	ldr	r3, [pc, #280]	; (8005710 <_svfprintf_r+0x470>)
 80055f8:	4638      	mov	r0, r7
 80055fa:	4631      	mov	r1, r6
 80055fc:	f7fb fa54 	bl	8000aa8 <__aeabi_dcmple>
 8005600:	2800      	cmp	r0, #0
 8005602:	f040 85d2 	bne.w	80061aa <_svfprintf_r+0xf0a>
 8005606:	9a12      	ldr	r2, [sp, #72]	; 0x48
 8005608:	9b13      	ldr	r3, [sp, #76]	; 0x4c
 800560a:	980d      	ldr	r0, [sp, #52]	; 0x34
 800560c:	990e      	ldr	r1, [sp, #56]	; 0x38
 800560e:	f7fb fa41 	bl	8000a94 <__aeabi_dcmplt>
 8005612:	b110      	cbz	r0, 800561a <_svfprintf_r+0x37a>
 8005614:	232d      	movs	r3, #45	; 0x2d
 8005616:	f88d 3067 	strb.w	r3, [sp, #103]	; 0x67
 800561a:	4b3e      	ldr	r3, [pc, #248]	; (8005714 <_svfprintf_r+0x474>)
 800561c:	4a3e      	ldr	r2, [pc, #248]	; (8005718 <_svfprintf_r+0x478>)
 800561e:	9906      	ldr	r1, [sp, #24]
 8005620:	f04f 0b03 	mov.w	fp, #3
 8005624:	2947      	cmp	r1, #71	; 0x47
 8005626:	bfcc      	ite	gt
 8005628:	4690      	movgt	r8, r2
 800562a:	4698      	movle	r8, r3
 800562c:	2600      	movs	r6, #0
 800562e:	f025 0580 	bic.w	r5, r5, #128	; 0x80
 8005632:	4637      	mov	r7, r6
 8005634:	e0c9      	b.n	80057ca <_svfprintf_r+0x52a>
 8005636:	f1bb 3fff 	cmp.w	fp, #4294967295
 800563a:	d026      	beq.n	800568a <_svfprintf_r+0x3ea>
 800563c:	9b06      	ldr	r3, [sp, #24]
 800563e:	f023 0320 	bic.w	r3, r3, #32
 8005642:	2b47      	cmp	r3, #71	; 0x47
 8005644:	d104      	bne.n	8005650 <_svfprintf_r+0x3b0>
 8005646:	f1bb 0f00 	cmp.w	fp, #0
 800564a:	bf08      	it	eq
 800564c:	f04f 0b01 	moveq.w	fp, #1
 8005650:	f445 7380 	orr.w	r3, r5, #256	; 0x100
 8005654:	9317      	str	r3, [sp, #92]	; 0x5c
 8005656:	9b0e      	ldr	r3, [sp, #56]	; 0x38
 8005658:	1e1f      	subs	r7, r3, #0
 800565a:	9b0d      	ldr	r3, [sp, #52]	; 0x34
 800565c:	bfa8      	it	ge
 800565e:	9710      	strge	r7, [sp, #64]	; 0x40
 8005660:	930f      	str	r3, [sp, #60]	; 0x3c
 8005662:	bfbd      	ittte	lt
 8005664:	463b      	movlt	r3, r7
 8005666:	f103 4300 	addlt.w	r3, r3, #2147483648	; 0x80000000
 800566a:	9310      	strlt	r3, [sp, #64]	; 0x40
 800566c:	2300      	movge	r3, #0
 800566e:	bfb8      	it	lt
 8005670:	232d      	movlt	r3, #45	; 0x2d
 8005672:	9316      	str	r3, [sp, #88]	; 0x58
 8005674:	9b06      	ldr	r3, [sp, #24]
 8005676:	f023 0720 	bic.w	r7, r3, #32
 800567a:	2f46      	cmp	r7, #70	; 0x46
 800567c:	d008      	beq.n	8005690 <_svfprintf_r+0x3f0>
 800567e:	2f45      	cmp	r7, #69	; 0x45
 8005680:	d142      	bne.n	8005708 <_svfprintf_r+0x468>
 8005682:	f10b 0601 	add.w	r6, fp, #1
 8005686:	2302      	movs	r3, #2
 8005688:	e004      	b.n	8005694 <_svfprintf_r+0x3f4>
 800568a:	f04f 0b06 	mov.w	fp, #6
 800568e:	e7df      	b.n	8005650 <_svfprintf_r+0x3b0>
 8005690:	465e      	mov	r6, fp
 8005692:	2303      	movs	r3, #3
 8005694:	aa1f      	add	r2, sp, #124	; 0x7c
 8005696:	9204      	str	r2, [sp, #16]
 8005698:	aa1c      	add	r2, sp, #112	; 0x70
 800569a:	9203      	str	r2, [sp, #12]
 800569c:	aa1b      	add	r2, sp, #108	; 0x6c
 800569e:	9202      	str	r2, [sp, #8]
 80056a0:	e88d 0048 	stmia.w	sp, {r3, r6}
 80056a4:	9a0f      	ldr	r2, [sp, #60]	; 0x3c
 80056a6:	9b10      	ldr	r3, [sp, #64]	; 0x40
 80056a8:	4650      	mov	r0, sl
 80056aa:	f000 fe55 	bl	8006358 <_dtoa_r>
 80056ae:	2f47      	cmp	r7, #71	; 0x47
 80056b0:	4680      	mov	r8, r0
 80056b2:	d102      	bne.n	80056ba <_svfprintf_r+0x41a>
 80056b4:	07e8      	lsls	r0, r5, #31
 80056b6:	f140 8585 	bpl.w	80061c4 <_svfprintf_r+0xf24>
 80056ba:	eb08 0306 	add.w	r3, r8, r6
 80056be:	2f46      	cmp	r7, #70	; 0x46
 80056c0:	9307      	str	r3, [sp, #28]
 80056c2:	d111      	bne.n	80056e8 <_svfprintf_r+0x448>
 80056c4:	f898 3000 	ldrb.w	r3, [r8]
 80056c8:	2b30      	cmp	r3, #48	; 0x30
 80056ca:	d109      	bne.n	80056e0 <_svfprintf_r+0x440>
 80056cc:	9a12      	ldr	r2, [sp, #72]	; 0x48
 80056ce:	9b13      	ldr	r3, [sp, #76]	; 0x4c
 80056d0:	980f      	ldr	r0, [sp, #60]	; 0x3c
 80056d2:	9910      	ldr	r1, [sp, #64]	; 0x40
 80056d4:	f7fb f9d4 	bl	8000a80 <__aeabi_dcmpeq>
 80056d8:	b910      	cbnz	r0, 80056e0 <_svfprintf_r+0x440>
 80056da:	f1c6 0601 	rsb	r6, r6, #1
 80056de:	961b      	str	r6, [sp, #108]	; 0x6c
 80056e0:	9a07      	ldr	r2, [sp, #28]
 80056e2:	9b1b      	ldr	r3, [sp, #108]	; 0x6c
 80056e4:	441a      	add	r2, r3
 80056e6:	9207      	str	r2, [sp, #28]
 80056e8:	9a12      	ldr	r2, [sp, #72]	; 0x48
 80056ea:	9b13      	ldr	r3, [sp, #76]	; 0x4c
 80056ec:	980f      	ldr	r0, [sp, #60]	; 0x3c
 80056ee:	9910      	ldr	r1, [sp, #64]	; 0x40
 80056f0:	f7fb f9c6 	bl	8000a80 <__aeabi_dcmpeq>
 80056f4:	b990      	cbnz	r0, 800571c <_svfprintf_r+0x47c>
 80056f6:	2230      	movs	r2, #48	; 0x30
 80056f8:	9b1f      	ldr	r3, [sp, #124]	; 0x7c
 80056fa:	9907      	ldr	r1, [sp, #28]
 80056fc:	4299      	cmp	r1, r3
 80056fe:	d90f      	bls.n	8005720 <_svfprintf_r+0x480>
 8005700:	1c59      	adds	r1, r3, #1
 8005702:	911f      	str	r1, [sp, #124]	; 0x7c
 8005704:	701a      	strb	r2, [r3, #0]
 8005706:	e7f7      	b.n	80056f8 <_svfprintf_r+0x458>
 8005708:	465e      	mov	r6, fp
 800570a:	e7bc      	b.n	8005686 <_svfprintf_r+0x3e6>
 800570c:	0800888c 	.word	0x0800888c
 8005710:	7fefffff 	.word	0x7fefffff
 8005714:	0800887c 	.word	0x0800887c
 8005718:	08008880 	.word	0x08008880
 800571c:	9b07      	ldr	r3, [sp, #28]
 800571e:	931f      	str	r3, [sp, #124]	; 0x7c
 8005720:	9b1f      	ldr	r3, [sp, #124]	; 0x7c
 8005722:	2f47      	cmp	r7, #71	; 0x47
 8005724:	eba3 0308 	sub.w	r3, r3, r8
 8005728:	9307      	str	r3, [sp, #28]
 800572a:	f040 8100 	bne.w	800592e <_svfprintf_r+0x68e>
 800572e:	9b1b      	ldr	r3, [sp, #108]	; 0x6c
 8005730:	1cd9      	adds	r1, r3, #3
 8005732:	db02      	blt.n	800573a <_svfprintf_r+0x49a>
 8005734:	459b      	cmp	fp, r3
 8005736:	f280 8126 	bge.w	8005986 <_svfprintf_r+0x6e6>
 800573a:	9b06      	ldr	r3, [sp, #24]
 800573c:	3b02      	subs	r3, #2
 800573e:	9306      	str	r3, [sp, #24]
 8005740:	9a1b      	ldr	r2, [sp, #108]	; 0x6c
 8005742:	f89d 1018 	ldrb.w	r1, [sp, #24]
 8005746:	1e53      	subs	r3, r2, #1
 8005748:	2b00      	cmp	r3, #0
 800574a:	bfa8      	it	ge
 800574c:	222b      	movge	r2, #43	; 0x2b
 800574e:	931b      	str	r3, [sp, #108]	; 0x6c
 8005750:	bfbc      	itt	lt
 8005752:	f1c2 0301 	rsblt	r3, r2, #1
 8005756:	222d      	movlt	r2, #45	; 0x2d
 8005758:	2b09      	cmp	r3, #9
 800575a:	f88d 1074 	strb.w	r1, [sp, #116]	; 0x74
 800575e:	f88d 2075 	strb.w	r2, [sp, #117]	; 0x75
 8005762:	f340 8100 	ble.w	8005966 <_svfprintf_r+0x6c6>
 8005766:	260a      	movs	r6, #10
 8005768:	f10d 0283 	add.w	r2, sp, #131	; 0x83
 800576c:	fb93 f0f6 	sdiv	r0, r3, r6
 8005770:	fb06 3310 	mls	r3, r6, r0, r3
 8005774:	2809      	cmp	r0, #9
 8005776:	f103 0330 	add.w	r3, r3, #48	; 0x30
 800577a:	f802 3c01 	strb.w	r3, [r2, #-1]
 800577e:	f102 31ff 	add.w	r1, r2, #4294967295
 8005782:	4603      	mov	r3, r0
 8005784:	f300 80e8 	bgt.w	8005958 <_svfprintf_r+0x6b8>
 8005788:	3330      	adds	r3, #48	; 0x30
 800578a:	f801 3c01 	strb.w	r3, [r1, #-1]
 800578e:	3a02      	subs	r2, #2
 8005790:	f10d 0376 	add.w	r3, sp, #118	; 0x76
 8005794:	f10d 0083 	add.w	r0, sp, #131	; 0x83
 8005798:	4282      	cmp	r2, r0
 800579a:	4619      	mov	r1, r3
 800579c:	f0c0 80de 	bcc.w	800595c <_svfprintf_r+0x6bc>
 80057a0:	9a07      	ldr	r2, [sp, #28]
 80057a2:	ab1d      	add	r3, sp, #116	; 0x74
 80057a4:	1acb      	subs	r3, r1, r3
 80057a6:	2a01      	cmp	r2, #1
 80057a8:	9314      	str	r3, [sp, #80]	; 0x50
 80057aa:	eb03 0b02 	add.w	fp, r3, r2
 80057ae:	dc02      	bgt.n	80057b6 <_svfprintf_r+0x516>
 80057b0:	f015 0701 	ands.w	r7, r5, #1
 80057b4:	d002      	beq.n	80057bc <_svfprintf_r+0x51c>
 80057b6:	2700      	movs	r7, #0
 80057b8:	9b0a      	ldr	r3, [sp, #40]	; 0x28
 80057ba:	449b      	add	fp, r3
 80057bc:	9b16      	ldr	r3, [sp, #88]	; 0x58
 80057be:	b113      	cbz	r3, 80057c6 <_svfprintf_r+0x526>
 80057c0:	232d      	movs	r3, #45	; 0x2d
 80057c2:	f88d 3067 	strb.w	r3, [sp, #103]	; 0x67
 80057c6:	2600      	movs	r6, #0
 80057c8:	9d17      	ldr	r5, [sp, #92]	; 0x5c
 80057ca:	455e      	cmp	r6, fp
 80057cc:	4633      	mov	r3, r6
 80057ce:	bfb8      	it	lt
 80057d0:	465b      	movlt	r3, fp
 80057d2:	930f      	str	r3, [sp, #60]	; 0x3c
 80057d4:	f89d 3067 	ldrb.w	r3, [sp, #103]	; 0x67
 80057d8:	b113      	cbz	r3, 80057e0 <_svfprintf_r+0x540>
 80057da:	9b0f      	ldr	r3, [sp, #60]	; 0x3c
 80057dc:	3301      	adds	r3, #1
 80057de:	930f      	str	r3, [sp, #60]	; 0x3c
 80057e0:	f015 0302 	ands.w	r3, r5, #2
 80057e4:	9316      	str	r3, [sp, #88]	; 0x58
 80057e6:	bf1e      	ittt	ne
 80057e8:	9b0f      	ldrne	r3, [sp, #60]	; 0x3c
 80057ea:	3302      	addne	r3, #2
 80057ec:	930f      	strne	r3, [sp, #60]	; 0x3c
 80057ee:	f015 0384 	ands.w	r3, r5, #132	; 0x84
 80057f2:	9317      	str	r3, [sp, #92]	; 0x5c
 80057f4:	d118      	bne.n	8005828 <_svfprintf_r+0x588>
 80057f6:	9b0c      	ldr	r3, [sp, #48]	; 0x30
 80057f8:	9a0f      	ldr	r2, [sp, #60]	; 0x3c
 80057fa:	1a9b      	subs	r3, r3, r2
 80057fc:	2b00      	cmp	r3, #0
 80057fe:	9310      	str	r3, [sp, #64]	; 0x40
 8005800:	dd12      	ble.n	8005828 <_svfprintf_r+0x588>
 8005802:	9b10      	ldr	r3, [sp, #64]	; 0x40
 8005804:	2b10      	cmp	r3, #16
 8005806:	4bab      	ldr	r3, [pc, #684]	; (8005ab4 <_svfprintf_r+0x814>)
 8005808:	6023      	str	r3, [r4, #0]
 800580a:	f300 81d9 	bgt.w	8005bc0 <_svfprintf_r+0x920>
 800580e:	9b10      	ldr	r3, [sp, #64]	; 0x40
 8005810:	9a10      	ldr	r2, [sp, #64]	; 0x40
 8005812:	6063      	str	r3, [r4, #4]
 8005814:	9b23      	ldr	r3, [sp, #140]	; 0x8c
 8005816:	4413      	add	r3, r2
 8005818:	9323      	str	r3, [sp, #140]	; 0x8c
 800581a:	9b22      	ldr	r3, [sp, #136]	; 0x88
 800581c:	3301      	adds	r3, #1
 800581e:	2b07      	cmp	r3, #7
 8005820:	9322      	str	r3, [sp, #136]	; 0x88
 8005822:	f300 81e6 	bgt.w	8005bf2 <_svfprintf_r+0x952>
 8005826:	3408      	adds	r4, #8
 8005828:	f89d 3067 	ldrb.w	r3, [sp, #103]	; 0x67
 800582c:	b173      	cbz	r3, 800584c <_svfprintf_r+0x5ac>
 800582e:	f10d 0367 	add.w	r3, sp, #103	; 0x67
 8005832:	6023      	str	r3, [r4, #0]
 8005834:	2301      	movs	r3, #1
 8005836:	6063      	str	r3, [r4, #4]
 8005838:	9b23      	ldr	r3, [sp, #140]	; 0x8c
 800583a:	3301      	adds	r3, #1
 800583c:	9323      	str	r3, [sp, #140]	; 0x8c
 800583e:	9b22      	ldr	r3, [sp, #136]	; 0x88
 8005840:	3301      	adds	r3, #1
 8005842:	2b07      	cmp	r3, #7
 8005844:	9322      	str	r3, [sp, #136]	; 0x88
 8005846:	f300 81de 	bgt.w	8005c06 <_svfprintf_r+0x966>
 800584a:	3408      	adds	r4, #8
 800584c:	9b16      	ldr	r3, [sp, #88]	; 0x58
 800584e:	b16b      	cbz	r3, 800586c <_svfprintf_r+0x5cc>
 8005850:	ab1a      	add	r3, sp, #104	; 0x68
 8005852:	6023      	str	r3, [r4, #0]
 8005854:	2302      	movs	r3, #2
 8005856:	6063      	str	r3, [r4, #4]
 8005858:	9b23      	ldr	r3, [sp, #140]	; 0x8c
 800585a:	3302      	adds	r3, #2
 800585c:	9323      	str	r3, [sp, #140]	; 0x8c
 800585e:	9b22      	ldr	r3, [sp, #136]	; 0x88
 8005860:	3301      	adds	r3, #1
 8005862:	2b07      	cmp	r3, #7
 8005864:	9322      	str	r3, [sp, #136]	; 0x88
 8005866:	f300 81d8 	bgt.w	8005c1a <_svfprintf_r+0x97a>
 800586a:	3408      	adds	r4, #8
 800586c:	9b17      	ldr	r3, [sp, #92]	; 0x5c
 800586e:	2b80      	cmp	r3, #128	; 0x80
 8005870:	d118      	bne.n	80058a4 <_svfprintf_r+0x604>
 8005872:	9b0c      	ldr	r3, [sp, #48]	; 0x30
 8005874:	9a0f      	ldr	r2, [sp, #60]	; 0x3c
 8005876:	1a9b      	subs	r3, r3, r2
 8005878:	2b00      	cmp	r3, #0
 800587a:	9310      	str	r3, [sp, #64]	; 0x40
 800587c:	dd12      	ble.n	80058a4 <_svfprintf_r+0x604>
 800587e:	9b10      	ldr	r3, [sp, #64]	; 0x40
 8005880:	2b10      	cmp	r3, #16
 8005882:	4b8d      	ldr	r3, [pc, #564]	; (8005ab8 <_svfprintf_r+0x818>)
 8005884:	6023      	str	r3, [r4, #0]
 8005886:	f300 81d2 	bgt.w	8005c2e <_svfprintf_r+0x98e>
 800588a:	9b10      	ldr	r3, [sp, #64]	; 0x40
 800588c:	9a10      	ldr	r2, [sp, #64]	; 0x40
 800588e:	6063      	str	r3, [r4, #4]
 8005890:	9b23      	ldr	r3, [sp, #140]	; 0x8c
 8005892:	4413      	add	r3, r2
 8005894:	9323      	str	r3, [sp, #140]	; 0x8c
 8005896:	9b22      	ldr	r3, [sp, #136]	; 0x88
 8005898:	3301      	adds	r3, #1
 800589a:	2b07      	cmp	r3, #7
 800589c:	9322      	str	r3, [sp, #136]	; 0x88
 800589e:	f300 81df 	bgt.w	8005c60 <_svfprintf_r+0x9c0>
 80058a2:	3408      	adds	r4, #8
 80058a4:	eba6 060b 	sub.w	r6, r6, fp
 80058a8:	2e00      	cmp	r6, #0
 80058aa:	dd0f      	ble.n	80058cc <_svfprintf_r+0x62c>
 80058ac:	4b82      	ldr	r3, [pc, #520]	; (8005ab8 <_svfprintf_r+0x818>)
 80058ae:	2e10      	cmp	r6, #16
 80058b0:	6023      	str	r3, [r4, #0]
 80058b2:	f300 81df 	bgt.w	8005c74 <_svfprintf_r+0x9d4>
 80058b6:	9b22      	ldr	r3, [sp, #136]	; 0x88
 80058b8:	9823      	ldr	r0, [sp, #140]	; 0x8c
 80058ba:	3301      	adds	r3, #1
 80058bc:	6066      	str	r6, [r4, #4]
 80058be:	2b07      	cmp	r3, #7
 80058c0:	4406      	add	r6, r0
 80058c2:	9623      	str	r6, [sp, #140]	; 0x8c
 80058c4:	9322      	str	r3, [sp, #136]	; 0x88
 80058c6:	f300 81ec 	bgt.w	8005ca2 <_svfprintf_r+0xa02>
 80058ca:	3408      	adds	r4, #8
 80058cc:	05eb      	lsls	r3, r5, #23
 80058ce:	f100 81f2 	bmi.w	8005cb6 <_svfprintf_r+0xa16>
 80058d2:	9b23      	ldr	r3, [sp, #140]	; 0x8c
 80058d4:	e884 0900 	stmia.w	r4, {r8, fp}
 80058d8:	445b      	add	r3, fp
 80058da:	9323      	str	r3, [sp, #140]	; 0x8c
 80058dc:	9b22      	ldr	r3, [sp, #136]	; 0x88
 80058de:	3301      	adds	r3, #1
 80058e0:	2b07      	cmp	r3, #7
 80058e2:	9322      	str	r3, [sp, #136]	; 0x88
 80058e4:	f340 8419 	ble.w	800611a <_svfprintf_r+0xe7a>
 80058e8:	aa21      	add	r2, sp, #132	; 0x84
 80058ea:	4649      	mov	r1, r9
 80058ec:	4650      	mov	r0, sl
 80058ee:	f002 f825 	bl	800793c <__ssprint_r>
 80058f2:	2800      	cmp	r0, #0
 80058f4:	f040 8431 	bne.w	800615a <_svfprintf_r+0xeba>
 80058f8:	ac2e      	add	r4, sp, #184	; 0xb8
 80058fa:	076b      	lsls	r3, r5, #29
 80058fc:	f100 8410 	bmi.w	8006120 <_svfprintf_r+0xe80>
 8005900:	9b0b      	ldr	r3, [sp, #44]	; 0x2c
 8005902:	9a0c      	ldr	r2, [sp, #48]	; 0x30
 8005904:	990f      	ldr	r1, [sp, #60]	; 0x3c
 8005906:	428a      	cmp	r2, r1
 8005908:	bfac      	ite	ge
 800590a:	189b      	addge	r3, r3, r2
 800590c:	185b      	addlt	r3, r3, r1
 800590e:	930b      	str	r3, [sp, #44]	; 0x2c
 8005910:	9b23      	ldr	r3, [sp, #140]	; 0x8c
 8005912:	b13b      	cbz	r3, 8005924 <_svfprintf_r+0x684>
 8005914:	aa21      	add	r2, sp, #132	; 0x84
 8005916:	4649      	mov	r1, r9
 8005918:	4650      	mov	r0, sl
 800591a:	f002 f80f 	bl	800793c <__ssprint_r>
 800591e:	2800      	cmp	r0, #0
 8005920:	f040 841b 	bne.w	800615a <_svfprintf_r+0xeba>
 8005924:	2300      	movs	r3, #0
 8005926:	9f08      	ldr	r7, [sp, #32]
 8005928:	9322      	str	r3, [sp, #136]	; 0x88
 800592a:	ac2e      	add	r4, sp, #184	; 0xb8
 800592c:	e4f2      	b.n	8005314 <_svfprintf_r+0x74>
 800592e:	9b06      	ldr	r3, [sp, #24]
 8005930:	2b65      	cmp	r3, #101	; 0x65
 8005932:	f77f af05 	ble.w	8005740 <_svfprintf_r+0x4a0>
 8005936:	9b06      	ldr	r3, [sp, #24]
 8005938:	2b66      	cmp	r3, #102	; 0x66
 800593a:	d124      	bne.n	8005986 <_svfprintf_r+0x6e6>
 800593c:	9b1b      	ldr	r3, [sp, #108]	; 0x6c
 800593e:	2b00      	cmp	r3, #0
 8005940:	dd19      	ble.n	8005976 <_svfprintf_r+0x6d6>
 8005942:	f1bb 0f00 	cmp.w	fp, #0
 8005946:	d101      	bne.n	800594c <_svfprintf_r+0x6ac>
 8005948:	07ea      	lsls	r2, r5, #31
 800594a:	d502      	bpl.n	8005952 <_svfprintf_r+0x6b2>
 800594c:	9a0a      	ldr	r2, [sp, #40]	; 0x28
 800594e:	4413      	add	r3, r2
 8005950:	445b      	add	r3, fp
 8005952:	9f1b      	ldr	r7, [sp, #108]	; 0x6c
 8005954:	469b      	mov	fp, r3
 8005956:	e731      	b.n	80057bc <_svfprintf_r+0x51c>
 8005958:	460a      	mov	r2, r1
 800595a:	e707      	b.n	800576c <_svfprintf_r+0x4cc>
 800595c:	f812 1b01 	ldrb.w	r1, [r2], #1
 8005960:	f803 1b01 	strb.w	r1, [r3], #1
 8005964:	e718      	b.n	8005798 <_svfprintf_r+0x4f8>
 8005966:	2230      	movs	r2, #48	; 0x30
 8005968:	4413      	add	r3, r2
 800596a:	f88d 2076 	strb.w	r2, [sp, #118]	; 0x76
 800596e:	f88d 3077 	strb.w	r3, [sp, #119]	; 0x77
 8005972:	a91e      	add	r1, sp, #120	; 0x78
 8005974:	e714      	b.n	80057a0 <_svfprintf_r+0x500>
 8005976:	f1bb 0f00 	cmp.w	fp, #0
 800597a:	d101      	bne.n	8005980 <_svfprintf_r+0x6e0>
 800597c:	07eb      	lsls	r3, r5, #31
 800597e:	d515      	bpl.n	80059ac <_svfprintf_r+0x70c>
 8005980:	9b0a      	ldr	r3, [sp, #40]	; 0x28
 8005982:	3301      	adds	r3, #1
 8005984:	e7e4      	b.n	8005950 <_svfprintf_r+0x6b0>
 8005986:	9a1b      	ldr	r2, [sp, #108]	; 0x6c
 8005988:	9b07      	ldr	r3, [sp, #28]
 800598a:	429a      	cmp	r2, r3
 800598c:	db06      	blt.n	800599c <_svfprintf_r+0x6fc>
 800598e:	07ef      	lsls	r7, r5, #31
 8005990:	d50e      	bpl.n	80059b0 <_svfprintf_r+0x710>
 8005992:	9b0a      	ldr	r3, [sp, #40]	; 0x28
 8005994:	4413      	add	r3, r2
 8005996:	2267      	movs	r2, #103	; 0x67
 8005998:	9206      	str	r2, [sp, #24]
 800599a:	e7da      	b.n	8005952 <_svfprintf_r+0x6b2>
 800599c:	9b07      	ldr	r3, [sp, #28]
 800599e:	990a      	ldr	r1, [sp, #40]	; 0x28
 80059a0:	2a00      	cmp	r2, #0
 80059a2:	440b      	add	r3, r1
 80059a4:	dcf7      	bgt.n	8005996 <_svfprintf_r+0x6f6>
 80059a6:	f1c2 0201 	rsb	r2, r2, #1
 80059aa:	e7f3      	b.n	8005994 <_svfprintf_r+0x6f4>
 80059ac:	2301      	movs	r3, #1
 80059ae:	e7d0      	b.n	8005952 <_svfprintf_r+0x6b2>
 80059b0:	4613      	mov	r3, r2
 80059b2:	e7f0      	b.n	8005996 <_svfprintf_r+0x6f6>
 80059b4:	b10b      	cbz	r3, 80059ba <_svfprintf_r+0x71a>
 80059b6:	f88d 2067 	strb.w	r2, [sp, #103]	; 0x67
 80059ba:	f015 0f20 	tst.w	r5, #32
 80059be:	f107 0304 	add.w	r3, r7, #4
 80059c2:	d008      	beq.n	80059d6 <_svfprintf_r+0x736>
 80059c4:	990b      	ldr	r1, [sp, #44]	; 0x2c
 80059c6:	683a      	ldr	r2, [r7, #0]
 80059c8:	17ce      	asrs	r6, r1, #31
 80059ca:	4608      	mov	r0, r1
 80059cc:	4631      	mov	r1, r6
 80059ce:	e9c2 0100 	strd	r0, r1, [r2]
 80059d2:	461f      	mov	r7, r3
 80059d4:	e49e      	b.n	8005314 <_svfprintf_r+0x74>
 80059d6:	06ee      	lsls	r6, r5, #27
 80059d8:	d503      	bpl.n	80059e2 <_svfprintf_r+0x742>
 80059da:	683a      	ldr	r2, [r7, #0]
 80059dc:	990b      	ldr	r1, [sp, #44]	; 0x2c
 80059de:	6011      	str	r1, [r2, #0]
 80059e0:	e7f7      	b.n	80059d2 <_svfprintf_r+0x732>
 80059e2:	0668      	lsls	r0, r5, #25
 80059e4:	d5f9      	bpl.n	80059da <_svfprintf_r+0x73a>
 80059e6:	683a      	ldr	r2, [r7, #0]
 80059e8:	f8bd 102c 	ldrh.w	r1, [sp, #44]	; 0x2c
 80059ec:	8011      	strh	r1, [r2, #0]
 80059ee:	e7f0      	b.n	80059d2 <_svfprintf_r+0x732>
 80059f0:	f045 0510 	orr.w	r5, r5, #16
 80059f4:	f015 0320 	ands.w	r3, r5, #32
 80059f8:	d022      	beq.n	8005a40 <_svfprintf_r+0x7a0>
 80059fa:	3707      	adds	r7, #7
 80059fc:	f027 0707 	bic.w	r7, r7, #7
 8005a00:	f107 0308 	add.w	r3, r7, #8
 8005a04:	9308      	str	r3, [sp, #32]
 8005a06:	e9d7 6700 	ldrd	r6, r7, [r7]
 8005a0a:	2300      	movs	r3, #0
 8005a0c:	2200      	movs	r2, #0
 8005a0e:	f88d 2067 	strb.w	r2, [sp, #103]	; 0x67
 8005a12:	f1bb 3fff 	cmp.w	fp, #4294967295
 8005a16:	f000 83db 	beq.w	80061d0 <_svfprintf_r+0xf30>
 8005a1a:	f025 0280 	bic.w	r2, r5, #128	; 0x80
 8005a1e:	920f      	str	r2, [sp, #60]	; 0x3c
 8005a20:	ea56 0207 	orrs.w	r2, r6, r7
 8005a24:	f040 83d9 	bne.w	80061da <_svfprintf_r+0xf3a>
 8005a28:	f1bb 0f00 	cmp.w	fp, #0
 8005a2c:	f000 80aa 	beq.w	8005b84 <_svfprintf_r+0x8e4>
 8005a30:	2b01      	cmp	r3, #1
 8005a32:	d076      	beq.n	8005b22 <_svfprintf_r+0x882>
 8005a34:	2b02      	cmp	r3, #2
 8005a36:	f000 8091 	beq.w	8005b5c <_svfprintf_r+0x8bc>
 8005a3a:	2600      	movs	r6, #0
 8005a3c:	2700      	movs	r7, #0
 8005a3e:	e3d2      	b.n	80061e6 <_svfprintf_r+0xf46>
 8005a40:	1d3a      	adds	r2, r7, #4
 8005a42:	f015 0110 	ands.w	r1, r5, #16
 8005a46:	9208      	str	r2, [sp, #32]
 8005a48:	d002      	beq.n	8005a50 <_svfprintf_r+0x7b0>
 8005a4a:	683e      	ldr	r6, [r7, #0]
 8005a4c:	2700      	movs	r7, #0
 8005a4e:	e7dd      	b.n	8005a0c <_svfprintf_r+0x76c>
 8005a50:	f015 0340 	ands.w	r3, r5, #64	; 0x40
 8005a54:	d0f9      	beq.n	8005a4a <_svfprintf_r+0x7aa>
 8005a56:	883e      	ldrh	r6, [r7, #0]
 8005a58:	2700      	movs	r7, #0
 8005a5a:	e7d6      	b.n	8005a0a <_svfprintf_r+0x76a>
 8005a5c:	1d3b      	adds	r3, r7, #4
 8005a5e:	9308      	str	r3, [sp, #32]
 8005a60:	2330      	movs	r3, #48	; 0x30
 8005a62:	2278      	movs	r2, #120	; 0x78
 8005a64:	f88d 3068 	strb.w	r3, [sp, #104]	; 0x68
 8005a68:	4b14      	ldr	r3, [pc, #80]	; (8005abc <_svfprintf_r+0x81c>)
 8005a6a:	683e      	ldr	r6, [r7, #0]
 8005a6c:	9315      	str	r3, [sp, #84]	; 0x54
 8005a6e:	2700      	movs	r7, #0
 8005a70:	f045 0502 	orr.w	r5, r5, #2
 8005a74:	f88d 2069 	strb.w	r2, [sp, #105]	; 0x69
 8005a78:	2302      	movs	r3, #2
 8005a7a:	9206      	str	r2, [sp, #24]
 8005a7c:	e7c6      	b.n	8005a0c <_svfprintf_r+0x76c>
 8005a7e:	2600      	movs	r6, #0
 8005a80:	1d3b      	adds	r3, r7, #4
 8005a82:	f1bb 3fff 	cmp.w	fp, #4294967295
 8005a86:	9308      	str	r3, [sp, #32]
 8005a88:	f8d7 8000 	ldr.w	r8, [r7]
 8005a8c:	f88d 6067 	strb.w	r6, [sp, #103]	; 0x67
 8005a90:	d00a      	beq.n	8005aa8 <_svfprintf_r+0x808>
 8005a92:	465a      	mov	r2, fp
 8005a94:	4631      	mov	r1, r6
 8005a96:	4640      	mov	r0, r8
 8005a98:	f001 fc54 	bl	8007344 <memchr>
 8005a9c:	2800      	cmp	r0, #0
 8005a9e:	f000 808d 	beq.w	8005bbc <_svfprintf_r+0x91c>
 8005aa2:	eba0 0b08 	sub.w	fp, r0, r8
 8005aa6:	e5c4      	b.n	8005632 <_svfprintf_r+0x392>
 8005aa8:	4640      	mov	r0, r8
 8005aaa:	f7fa fbc1 	bl	8000230 <strlen>
 8005aae:	4683      	mov	fp, r0
 8005ab0:	e5bf      	b.n	8005632 <_svfprintf_r+0x392>
 8005ab2:	bf00      	nop
 8005ab4:	080088b0 	.word	0x080088b0
 8005ab8:	080088c0 	.word	0x080088c0
 8005abc:	0800889d 	.word	0x0800889d
 8005ac0:	f045 0510 	orr.w	r5, r5, #16
 8005ac4:	06a9      	lsls	r1, r5, #26
 8005ac6:	d509      	bpl.n	8005adc <_svfprintf_r+0x83c>
 8005ac8:	3707      	adds	r7, #7
 8005aca:	f027 0707 	bic.w	r7, r7, #7
 8005ace:	f107 0308 	add.w	r3, r7, #8
 8005ad2:	9308      	str	r3, [sp, #32]
 8005ad4:	e9d7 6700 	ldrd	r6, r7, [r7]
 8005ad8:	2301      	movs	r3, #1
 8005ada:	e797      	b.n	8005a0c <_svfprintf_r+0x76c>
 8005adc:	1d3b      	adds	r3, r7, #4
 8005ade:	f015 0f10 	tst.w	r5, #16
 8005ae2:	9308      	str	r3, [sp, #32]
 8005ae4:	d001      	beq.n	8005aea <_svfprintf_r+0x84a>
 8005ae6:	683e      	ldr	r6, [r7, #0]
 8005ae8:	e002      	b.n	8005af0 <_svfprintf_r+0x850>
 8005aea:	066a      	lsls	r2, r5, #25
 8005aec:	d5fb      	bpl.n	8005ae6 <_svfprintf_r+0x846>
 8005aee:	883e      	ldrh	r6, [r7, #0]
 8005af0:	2700      	movs	r7, #0
 8005af2:	e7f1      	b.n	8005ad8 <_svfprintf_r+0x838>
 8005af4:	b10b      	cbz	r3, 8005afa <_svfprintf_r+0x85a>
 8005af6:	f88d 2067 	strb.w	r2, [sp, #103]	; 0x67
 8005afa:	4ba3      	ldr	r3, [pc, #652]	; (8005d88 <_svfprintf_r+0xae8>)
 8005afc:	e4c5      	b.n	800548a <_svfprintf_r+0x1ea>
 8005afe:	1d3b      	adds	r3, r7, #4
 8005b00:	f015 0f10 	tst.w	r5, #16
 8005b04:	9308      	str	r3, [sp, #32]
 8005b06:	d001      	beq.n	8005b0c <_svfprintf_r+0x86c>
 8005b08:	683e      	ldr	r6, [r7, #0]
 8005b0a:	e002      	b.n	8005b12 <_svfprintf_r+0x872>
 8005b0c:	066e      	lsls	r6, r5, #25
 8005b0e:	d5fb      	bpl.n	8005b08 <_svfprintf_r+0x868>
 8005b10:	883e      	ldrh	r6, [r7, #0]
 8005b12:	2700      	movs	r7, #0
 8005b14:	e4c5      	b.n	80054a2 <_svfprintf_r+0x202>
 8005b16:	4643      	mov	r3, r8
 8005b18:	e366      	b.n	80061e8 <_svfprintf_r+0xf48>
 8005b1a:	2f00      	cmp	r7, #0
 8005b1c:	bf08      	it	eq
 8005b1e:	2e0a      	cmpeq	r6, #10
 8005b20:	d205      	bcs.n	8005b2e <_svfprintf_r+0x88e>
 8005b22:	3630      	adds	r6, #48	; 0x30
 8005b24:	f10d 08f8 	add.w	r8, sp, #248	; 0xf8
 8005b28:	f808 6d41 	strb.w	r6, [r8, #-65]!
 8005b2c:	e377      	b.n	800621e <_svfprintf_r+0xf7e>
 8005b2e:	f10d 08b8 	add.w	r8, sp, #184	; 0xb8
 8005b32:	4630      	mov	r0, r6
 8005b34:	4639      	mov	r1, r7
 8005b36:	220a      	movs	r2, #10
 8005b38:	2300      	movs	r3, #0
 8005b3a:	f7fb f811 	bl	8000b60 <__aeabi_uldivmod>
 8005b3e:	3230      	adds	r2, #48	; 0x30
 8005b40:	f808 2d01 	strb.w	r2, [r8, #-1]!
 8005b44:	2300      	movs	r3, #0
 8005b46:	4630      	mov	r0, r6
 8005b48:	4639      	mov	r1, r7
 8005b4a:	220a      	movs	r2, #10
 8005b4c:	f7fb f808 	bl	8000b60 <__aeabi_uldivmod>
 8005b50:	4606      	mov	r6, r0
 8005b52:	460f      	mov	r7, r1
 8005b54:	ea56 0307 	orrs.w	r3, r6, r7
 8005b58:	d1eb      	bne.n	8005b32 <_svfprintf_r+0x892>
 8005b5a:	e360      	b.n	800621e <_svfprintf_r+0xf7e>
 8005b5c:	2600      	movs	r6, #0
 8005b5e:	2700      	movs	r7, #0
 8005b60:	f10d 08b8 	add.w	r8, sp, #184	; 0xb8
 8005b64:	9a15      	ldr	r2, [sp, #84]	; 0x54
 8005b66:	f006 030f 	and.w	r3, r6, #15
 8005b6a:	5cd3      	ldrb	r3, [r2, r3]
 8005b6c:	093a      	lsrs	r2, r7, #4
 8005b6e:	f808 3d01 	strb.w	r3, [r8, #-1]!
 8005b72:	0933      	lsrs	r3, r6, #4
 8005b74:	ea43 7307 	orr.w	r3, r3, r7, lsl #28
 8005b78:	461e      	mov	r6, r3
 8005b7a:	4617      	mov	r7, r2
 8005b7c:	ea56 0307 	orrs.w	r3, r6, r7
 8005b80:	d1f0      	bne.n	8005b64 <_svfprintf_r+0x8c4>
 8005b82:	e34c      	b.n	800621e <_svfprintf_r+0xf7e>
 8005b84:	b93b      	cbnz	r3, 8005b96 <_svfprintf_r+0x8f6>
 8005b86:	07ea      	lsls	r2, r5, #31
 8005b88:	d505      	bpl.n	8005b96 <_svfprintf_r+0x8f6>
 8005b8a:	2330      	movs	r3, #48	; 0x30
 8005b8c:	f10d 08f8 	add.w	r8, sp, #248	; 0xf8
 8005b90:	f808 3d41 	strb.w	r3, [r8, #-65]!
 8005b94:	e343      	b.n	800621e <_svfprintf_r+0xf7e>
 8005b96:	f10d 08b8 	add.w	r8, sp, #184	; 0xb8
 8005b9a:	e340      	b.n	800621e <_svfprintf_r+0xf7e>
 8005b9c:	b10b      	cbz	r3, 8005ba2 <_svfprintf_r+0x902>
 8005b9e:	f88d 2067 	strb.w	r2, [sp, #103]	; 0x67
 8005ba2:	9b06      	ldr	r3, [sp, #24]
 8005ba4:	2b00      	cmp	r3, #0
 8005ba6:	f000 82f7 	beq.w	8006198 <_svfprintf_r+0xef8>
 8005baa:	2600      	movs	r6, #0
 8005bac:	f89d 3018 	ldrb.w	r3, [sp, #24]
 8005bb0:	f88d 6067 	strb.w	r6, [sp, #103]	; 0x67
 8005bb4:	f88d 3090 	strb.w	r3, [sp, #144]	; 0x90
 8005bb8:	9708      	str	r7, [sp, #32]
 8005bba:	e4e3      	b.n	8005584 <_svfprintf_r+0x2e4>
 8005bbc:	4606      	mov	r6, r0
 8005bbe:	e538      	b.n	8005632 <_svfprintf_r+0x392>
 8005bc0:	2310      	movs	r3, #16
 8005bc2:	6063      	str	r3, [r4, #4]
 8005bc4:	9b23      	ldr	r3, [sp, #140]	; 0x8c
 8005bc6:	3310      	adds	r3, #16
 8005bc8:	9323      	str	r3, [sp, #140]	; 0x8c
 8005bca:	9b22      	ldr	r3, [sp, #136]	; 0x88
 8005bcc:	3301      	adds	r3, #1
 8005bce:	2b07      	cmp	r3, #7
 8005bd0:	9322      	str	r3, [sp, #136]	; 0x88
 8005bd2:	dc04      	bgt.n	8005bde <_svfprintf_r+0x93e>
 8005bd4:	3408      	adds	r4, #8
 8005bd6:	9b10      	ldr	r3, [sp, #64]	; 0x40
 8005bd8:	3b10      	subs	r3, #16
 8005bda:	9310      	str	r3, [sp, #64]	; 0x40
 8005bdc:	e611      	b.n	8005802 <_svfprintf_r+0x562>
 8005bde:	aa21      	add	r2, sp, #132	; 0x84
 8005be0:	4649      	mov	r1, r9
 8005be2:	4650      	mov	r0, sl
 8005be4:	f001 feaa 	bl	800793c <__ssprint_r>
 8005be8:	2800      	cmp	r0, #0
 8005bea:	f040 82b6 	bne.w	800615a <_svfprintf_r+0xeba>
 8005bee:	ac2e      	add	r4, sp, #184	; 0xb8
 8005bf0:	e7f1      	b.n	8005bd6 <_svfprintf_r+0x936>
 8005bf2:	aa21      	add	r2, sp, #132	; 0x84
 8005bf4:	4649      	mov	r1, r9
 8005bf6:	4650      	mov	r0, sl
 8005bf8:	f001 fea0 	bl	800793c <__ssprint_r>
 8005bfc:	2800      	cmp	r0, #0
 8005bfe:	f040 82ac 	bne.w	800615a <_svfprintf_r+0xeba>
 8005c02:	ac2e      	add	r4, sp, #184	; 0xb8
 8005c04:	e610      	b.n	8005828 <_svfprintf_r+0x588>
 8005c06:	aa21      	add	r2, sp, #132	; 0x84
 8005c08:	4649      	mov	r1, r9
 8005c0a:	4650      	mov	r0, sl
 8005c0c:	f001 fe96 	bl	800793c <__ssprint_r>
 8005c10:	2800      	cmp	r0, #0
 8005c12:	f040 82a2 	bne.w	800615a <_svfprintf_r+0xeba>
 8005c16:	ac2e      	add	r4, sp, #184	; 0xb8
 8005c18:	e618      	b.n	800584c <_svfprintf_r+0x5ac>
 8005c1a:	aa21      	add	r2, sp, #132	; 0x84
 8005c1c:	4649      	mov	r1, r9
 8005c1e:	4650      	mov	r0, sl
 8005c20:	f001 fe8c 	bl	800793c <__ssprint_r>
 8005c24:	2800      	cmp	r0, #0
 8005c26:	f040 8298 	bne.w	800615a <_svfprintf_r+0xeba>
 8005c2a:	ac2e      	add	r4, sp, #184	; 0xb8
 8005c2c:	e61e      	b.n	800586c <_svfprintf_r+0x5cc>
 8005c2e:	2310      	movs	r3, #16
 8005c30:	6063      	str	r3, [r4, #4]
 8005c32:	9b23      	ldr	r3, [sp, #140]	; 0x8c
 8005c34:	3310      	adds	r3, #16
 8005c36:	9323      	str	r3, [sp, #140]	; 0x8c
 8005c38:	9b22      	ldr	r3, [sp, #136]	; 0x88
 8005c3a:	3301      	adds	r3, #1
 8005c3c:	2b07      	cmp	r3, #7
 8005c3e:	9322      	str	r3, [sp, #136]	; 0x88
 8005c40:	dc04      	bgt.n	8005c4c <_svfprintf_r+0x9ac>
 8005c42:	3408      	adds	r4, #8
 8005c44:	9b10      	ldr	r3, [sp, #64]	; 0x40
 8005c46:	3b10      	subs	r3, #16
 8005c48:	9310      	str	r3, [sp, #64]	; 0x40
 8005c4a:	e618      	b.n	800587e <_svfprintf_r+0x5de>
 8005c4c:	aa21      	add	r2, sp, #132	; 0x84
 8005c4e:	4649      	mov	r1, r9
 8005c50:	4650      	mov	r0, sl
 8005c52:	f001 fe73 	bl	800793c <__ssprint_r>
 8005c56:	2800      	cmp	r0, #0
 8005c58:	f040 827f 	bne.w	800615a <_svfprintf_r+0xeba>
 8005c5c:	ac2e      	add	r4, sp, #184	; 0xb8
 8005c5e:	e7f1      	b.n	8005c44 <_svfprintf_r+0x9a4>
 8005c60:	aa21      	add	r2, sp, #132	; 0x84
 8005c62:	4649      	mov	r1, r9
 8005c64:	4650      	mov	r0, sl
 8005c66:	f001 fe69 	bl	800793c <__ssprint_r>
 8005c6a:	2800      	cmp	r0, #0
 8005c6c:	f040 8275 	bne.w	800615a <_svfprintf_r+0xeba>
 8005c70:	ac2e      	add	r4, sp, #184	; 0xb8
 8005c72:	e617      	b.n	80058a4 <_svfprintf_r+0x604>
 8005c74:	2310      	movs	r3, #16
 8005c76:	6063      	str	r3, [r4, #4]
 8005c78:	9b23      	ldr	r3, [sp, #140]	; 0x8c
 8005c7a:	3310      	adds	r3, #16
 8005c7c:	9323      	str	r3, [sp, #140]	; 0x8c
 8005c7e:	9b22      	ldr	r3, [sp, #136]	; 0x88
 8005c80:	3301      	adds	r3, #1
 8005c82:	2b07      	cmp	r3, #7
 8005c84:	9322      	str	r3, [sp, #136]	; 0x88
 8005c86:	dc02      	bgt.n	8005c8e <_svfprintf_r+0x9ee>
 8005c88:	3408      	adds	r4, #8
 8005c8a:	3e10      	subs	r6, #16
 8005c8c:	e60e      	b.n	80058ac <_svfprintf_r+0x60c>
 8005c8e:	aa21      	add	r2, sp, #132	; 0x84
 8005c90:	4649      	mov	r1, r9
 8005c92:	4650      	mov	r0, sl
 8005c94:	f001 fe52 	bl	800793c <__ssprint_r>
 8005c98:	2800      	cmp	r0, #0
 8005c9a:	f040 825e 	bne.w	800615a <_svfprintf_r+0xeba>
 8005c9e:	ac2e      	add	r4, sp, #184	; 0xb8
 8005ca0:	e7f3      	b.n	8005c8a <_svfprintf_r+0x9ea>
 8005ca2:	aa21      	add	r2, sp, #132	; 0x84
 8005ca4:	4649      	mov	r1, r9
 8005ca6:	4650      	mov	r0, sl
 8005ca8:	f001 fe48 	bl	800793c <__ssprint_r>
 8005cac:	2800      	cmp	r0, #0
 8005cae:	f040 8254 	bne.w	800615a <_svfprintf_r+0xeba>
 8005cb2:	ac2e      	add	r4, sp, #184	; 0xb8
 8005cb4:	e60a      	b.n	80058cc <_svfprintf_r+0x62c>
 8005cb6:	9b06      	ldr	r3, [sp, #24]
 8005cb8:	2b65      	cmp	r3, #101	; 0x65
 8005cba:	f340 81a9 	ble.w	8006010 <_svfprintf_r+0xd70>
 8005cbe:	9a12      	ldr	r2, [sp, #72]	; 0x48
 8005cc0:	9b13      	ldr	r3, [sp, #76]	; 0x4c
 8005cc2:	980d      	ldr	r0, [sp, #52]	; 0x34
 8005cc4:	990e      	ldr	r1, [sp, #56]	; 0x38
 8005cc6:	f7fa fedb 	bl	8000a80 <__aeabi_dcmpeq>
 8005cca:	2800      	cmp	r0, #0
 8005ccc:	d062      	beq.n	8005d94 <_svfprintf_r+0xaf4>
 8005cce:	4b2f      	ldr	r3, [pc, #188]	; (8005d8c <_svfprintf_r+0xaec>)
 8005cd0:	6023      	str	r3, [r4, #0]
 8005cd2:	2301      	movs	r3, #1
 8005cd4:	6063      	str	r3, [r4, #4]
 8005cd6:	9b23      	ldr	r3, [sp, #140]	; 0x8c
 8005cd8:	3301      	adds	r3, #1
 8005cda:	9323      	str	r3, [sp, #140]	; 0x8c
 8005cdc:	9b22      	ldr	r3, [sp, #136]	; 0x88
 8005cde:	3301      	adds	r3, #1
 8005ce0:	2b07      	cmp	r3, #7
 8005ce2:	9322      	str	r3, [sp, #136]	; 0x88
 8005ce4:	dc25      	bgt.n	8005d32 <_svfprintf_r+0xa92>
 8005ce6:	3408      	adds	r4, #8
 8005ce8:	9b1b      	ldr	r3, [sp, #108]	; 0x6c
 8005cea:	9a07      	ldr	r2, [sp, #28]
 8005cec:	4293      	cmp	r3, r2
 8005cee:	db02      	blt.n	8005cf6 <_svfprintf_r+0xa56>
 8005cf0:	07ee      	lsls	r6, r5, #31
 8005cf2:	f57f ae02 	bpl.w	80058fa <_svfprintf_r+0x65a>
 8005cf6:	9b11      	ldr	r3, [sp, #68]	; 0x44
 8005cf8:	9a0a      	ldr	r2, [sp, #40]	; 0x28
 8005cfa:	6023      	str	r3, [r4, #0]
 8005cfc:	9b0a      	ldr	r3, [sp, #40]	; 0x28
 8005cfe:	6063      	str	r3, [r4, #4]
 8005d00:	9b23      	ldr	r3, [sp, #140]	; 0x8c
 8005d02:	4413      	add	r3, r2
 8005d04:	9323      	str	r3, [sp, #140]	; 0x8c
 8005d06:	9b22      	ldr	r3, [sp, #136]	; 0x88
 8005d08:	3301      	adds	r3, #1
 8005d0a:	2b07      	cmp	r3, #7
 8005d0c:	9322      	str	r3, [sp, #136]	; 0x88
 8005d0e:	dc1a      	bgt.n	8005d46 <_svfprintf_r+0xaa6>
 8005d10:	3408      	adds	r4, #8
 8005d12:	9b07      	ldr	r3, [sp, #28]
 8005d14:	1e5e      	subs	r6, r3, #1
 8005d16:	2e00      	cmp	r6, #0
 8005d18:	f77f adef 	ble.w	80058fa <_svfprintf_r+0x65a>
 8005d1c:	f04f 0810 	mov.w	r8, #16
 8005d20:	4f1b      	ldr	r7, [pc, #108]	; (8005d90 <_svfprintf_r+0xaf0>)
 8005d22:	2e10      	cmp	r6, #16
 8005d24:	6027      	str	r7, [r4, #0]
 8005d26:	dc18      	bgt.n	8005d5a <_svfprintf_r+0xaba>
 8005d28:	6066      	str	r6, [r4, #4]
 8005d2a:	9b23      	ldr	r3, [sp, #140]	; 0x8c
 8005d2c:	441e      	add	r6, r3
 8005d2e:	9623      	str	r6, [sp, #140]	; 0x8c
 8005d30:	e5d4      	b.n	80058dc <_svfprintf_r+0x63c>
 8005d32:	aa21      	add	r2, sp, #132	; 0x84
 8005d34:	4649      	mov	r1, r9
 8005d36:	4650      	mov	r0, sl
 8005d38:	f001 fe00 	bl	800793c <__ssprint_r>
 8005d3c:	2800      	cmp	r0, #0
 8005d3e:	f040 820c 	bne.w	800615a <_svfprintf_r+0xeba>
 8005d42:	ac2e      	add	r4, sp, #184	; 0xb8
 8005d44:	e7d0      	b.n	8005ce8 <_svfprintf_r+0xa48>
 8005d46:	aa21      	add	r2, sp, #132	; 0x84
 8005d48:	4649      	mov	r1, r9
 8005d4a:	4650      	mov	r0, sl
 8005d4c:	f001 fdf6 	bl	800793c <__ssprint_r>
 8005d50:	2800      	cmp	r0, #0
 8005d52:	f040 8202 	bne.w	800615a <_svfprintf_r+0xeba>
 8005d56:	ac2e      	add	r4, sp, #184	; 0xb8
 8005d58:	e7db      	b.n	8005d12 <_svfprintf_r+0xa72>
 8005d5a:	9b23      	ldr	r3, [sp, #140]	; 0x8c
 8005d5c:	f8c4 8004 	str.w	r8, [r4, #4]
 8005d60:	3310      	adds	r3, #16
 8005d62:	9323      	str	r3, [sp, #140]	; 0x8c
 8005d64:	9b22      	ldr	r3, [sp, #136]	; 0x88
 8005d66:	3301      	adds	r3, #1
 8005d68:	2b07      	cmp	r3, #7
 8005d6a:	9322      	str	r3, [sp, #136]	; 0x88
 8005d6c:	dc02      	bgt.n	8005d74 <_svfprintf_r+0xad4>
 8005d6e:	3408      	adds	r4, #8
 8005d70:	3e10      	subs	r6, #16
 8005d72:	e7d6      	b.n	8005d22 <_svfprintf_r+0xa82>
 8005d74:	aa21      	add	r2, sp, #132	; 0x84
 8005d76:	4649      	mov	r1, r9
 8005d78:	4650      	mov	r0, sl
 8005d7a:	f001 fddf 	bl	800793c <__ssprint_r>
 8005d7e:	2800      	cmp	r0, #0
 8005d80:	f040 81eb 	bne.w	800615a <_svfprintf_r+0xeba>
 8005d84:	ac2e      	add	r4, sp, #184	; 0xb8
 8005d86:	e7f3      	b.n	8005d70 <_svfprintf_r+0xad0>
 8005d88:	0800889d 	.word	0x0800889d
 8005d8c:	080088ae 	.word	0x080088ae
 8005d90:	080088c0 	.word	0x080088c0
 8005d94:	9b1b      	ldr	r3, [sp, #108]	; 0x6c
 8005d96:	2b00      	cmp	r3, #0
 8005d98:	dc7a      	bgt.n	8005e90 <_svfprintf_r+0xbf0>
 8005d9a:	4b9b      	ldr	r3, [pc, #620]	; (8006008 <_svfprintf_r+0xd68>)
 8005d9c:	6023      	str	r3, [r4, #0]
 8005d9e:	2301      	movs	r3, #1
 8005da0:	6063      	str	r3, [r4, #4]
 8005da2:	9b23      	ldr	r3, [sp, #140]	; 0x8c
 8005da4:	3301      	adds	r3, #1
 8005da6:	9323      	str	r3, [sp, #140]	; 0x8c
 8005da8:	9b22      	ldr	r3, [sp, #136]	; 0x88
 8005daa:	3301      	adds	r3, #1
 8005dac:	2b07      	cmp	r3, #7
 8005dae:	9322      	str	r3, [sp, #136]	; 0x88
 8005db0:	dc44      	bgt.n	8005e3c <_svfprintf_r+0xb9c>
 8005db2:	3408      	adds	r4, #8
 8005db4:	9b1b      	ldr	r3, [sp, #108]	; 0x6c
 8005db6:	b923      	cbnz	r3, 8005dc2 <_svfprintf_r+0xb22>
 8005db8:	9b07      	ldr	r3, [sp, #28]
 8005dba:	b913      	cbnz	r3, 8005dc2 <_svfprintf_r+0xb22>
 8005dbc:	07e8      	lsls	r0, r5, #31
 8005dbe:	f57f ad9c 	bpl.w	80058fa <_svfprintf_r+0x65a>
 8005dc2:	9b11      	ldr	r3, [sp, #68]	; 0x44
 8005dc4:	9a0a      	ldr	r2, [sp, #40]	; 0x28
 8005dc6:	6023      	str	r3, [r4, #0]
 8005dc8:	9b0a      	ldr	r3, [sp, #40]	; 0x28
 8005dca:	6063      	str	r3, [r4, #4]
 8005dcc:	9b23      	ldr	r3, [sp, #140]	; 0x8c
 8005dce:	4413      	add	r3, r2
 8005dd0:	9323      	str	r3, [sp, #140]	; 0x8c
 8005dd2:	9b22      	ldr	r3, [sp, #136]	; 0x88
 8005dd4:	3301      	adds	r3, #1
 8005dd6:	2b07      	cmp	r3, #7
 8005dd8:	9322      	str	r3, [sp, #136]	; 0x88
 8005dda:	dc39      	bgt.n	8005e50 <_svfprintf_r+0xbb0>
 8005ddc:	f104 0308 	add.w	r3, r4, #8
 8005de0:	9e1b      	ldr	r6, [sp, #108]	; 0x6c
 8005de2:	2e00      	cmp	r6, #0
 8005de4:	da19      	bge.n	8005e1a <_svfprintf_r+0xb7a>
 8005de6:	2410      	movs	r4, #16
 8005de8:	4f88      	ldr	r7, [pc, #544]	; (800600c <_svfprintf_r+0xd6c>)
 8005dea:	4276      	negs	r6, r6
 8005dec:	2e10      	cmp	r6, #16
 8005dee:	601f      	str	r7, [r3, #0]
 8005df0:	dc38      	bgt.n	8005e64 <_svfprintf_r+0xbc4>
 8005df2:	9a23      	ldr	r2, [sp, #140]	; 0x8c
 8005df4:	605e      	str	r6, [r3, #4]
 8005df6:	4416      	add	r6, r2
 8005df8:	9a22      	ldr	r2, [sp, #136]	; 0x88
 8005dfa:	9623      	str	r6, [sp, #140]	; 0x8c
 8005dfc:	3201      	adds	r2, #1
 8005dfe:	2a07      	cmp	r2, #7
 8005e00:	f103 0308 	add.w	r3, r3, #8
 8005e04:	9222      	str	r2, [sp, #136]	; 0x88
 8005e06:	dd08      	ble.n	8005e1a <_svfprintf_r+0xb7a>
 8005e08:	aa21      	add	r2, sp, #132	; 0x84
 8005e0a:	4649      	mov	r1, r9
 8005e0c:	4650      	mov	r0, sl
 8005e0e:	f001 fd95 	bl	800793c <__ssprint_r>
 8005e12:	2800      	cmp	r0, #0
 8005e14:	f040 81a1 	bne.w	800615a <_svfprintf_r+0xeba>
 8005e18:	ab2e      	add	r3, sp, #184	; 0xb8
 8005e1a:	9a07      	ldr	r2, [sp, #28]
 8005e1c:	9907      	ldr	r1, [sp, #28]
 8005e1e:	605a      	str	r2, [r3, #4]
 8005e20:	9a23      	ldr	r2, [sp, #140]	; 0x8c
 8005e22:	f8c3 8000 	str.w	r8, [r3]
 8005e26:	440a      	add	r2, r1
 8005e28:	9223      	str	r2, [sp, #140]	; 0x8c
 8005e2a:	9a22      	ldr	r2, [sp, #136]	; 0x88
 8005e2c:	3201      	adds	r2, #1
 8005e2e:	2a07      	cmp	r2, #7
 8005e30:	9222      	str	r2, [sp, #136]	; 0x88
 8005e32:	f73f ad59 	bgt.w	80058e8 <_svfprintf_r+0x648>
 8005e36:	f103 0408 	add.w	r4, r3, #8
 8005e3a:	e55e      	b.n	80058fa <_svfprintf_r+0x65a>
 8005e3c:	aa21      	add	r2, sp, #132	; 0x84
 8005e3e:	4649      	mov	r1, r9
 8005e40:	4650      	mov	r0, sl
 8005e42:	f001 fd7b 	bl	800793c <__ssprint_r>
 8005e46:	2800      	cmp	r0, #0
 8005e48:	f040 8187 	bne.w	800615a <_svfprintf_r+0xeba>
 8005e4c:	ac2e      	add	r4, sp, #184	; 0xb8
 8005e4e:	e7b1      	b.n	8005db4 <_svfprintf_r+0xb14>
 8005e50:	aa21      	add	r2, sp, #132	; 0x84
 8005e52:	4649      	mov	r1, r9
 8005e54:	4650      	mov	r0, sl
 8005e56:	f001 fd71 	bl	800793c <__ssprint_r>
 8005e5a:	2800      	cmp	r0, #0
 8005e5c:	f040 817d 	bne.w	800615a <_svfprintf_r+0xeba>
 8005e60:	ab2e      	add	r3, sp, #184	; 0xb8
 8005e62:	e7bd      	b.n	8005de0 <_svfprintf_r+0xb40>
 8005e64:	9a23      	ldr	r2, [sp, #140]	; 0x8c
 8005e66:	605c      	str	r4, [r3, #4]
 8005e68:	3210      	adds	r2, #16
 8005e6a:	9223      	str	r2, [sp, #140]	; 0x8c
 8005e6c:	9a22      	ldr	r2, [sp, #136]	; 0x88
 8005e6e:	3201      	adds	r2, #1
 8005e70:	2a07      	cmp	r2, #7
 8005e72:	9222      	str	r2, [sp, #136]	; 0x88
 8005e74:	dc02      	bgt.n	8005e7c <_svfprintf_r+0xbdc>
 8005e76:	3308      	adds	r3, #8
 8005e78:	3e10      	subs	r6, #16
 8005e7a:	e7b7      	b.n	8005dec <_svfprintf_r+0xb4c>
 8005e7c:	aa21      	add	r2, sp, #132	; 0x84
 8005e7e:	4649      	mov	r1, r9
 8005e80:	4650      	mov	r0, sl
 8005e82:	f001 fd5b 	bl	800793c <__ssprint_r>
 8005e86:	2800      	cmp	r0, #0
 8005e88:	f040 8167 	bne.w	800615a <_svfprintf_r+0xeba>
 8005e8c:	ab2e      	add	r3, sp, #184	; 0xb8
 8005e8e:	e7f3      	b.n	8005e78 <_svfprintf_r+0xbd8>
 8005e90:	9b07      	ldr	r3, [sp, #28]
 8005e92:	42bb      	cmp	r3, r7
 8005e94:	bfa8      	it	ge
 8005e96:	463b      	movge	r3, r7
 8005e98:	2b00      	cmp	r3, #0
 8005e9a:	461e      	mov	r6, r3
 8005e9c:	dd0b      	ble.n	8005eb6 <_svfprintf_r+0xc16>
 8005e9e:	6063      	str	r3, [r4, #4]
 8005ea0:	9b23      	ldr	r3, [sp, #140]	; 0x8c
 8005ea2:	f8c4 8000 	str.w	r8, [r4]
 8005ea6:	4433      	add	r3, r6
 8005ea8:	9323      	str	r3, [sp, #140]	; 0x8c
 8005eaa:	9b22      	ldr	r3, [sp, #136]	; 0x88
 8005eac:	3301      	adds	r3, #1
 8005eae:	2b07      	cmp	r3, #7
 8005eb0:	9322      	str	r3, [sp, #136]	; 0x88
 8005eb2:	dc5f      	bgt.n	8005f74 <_svfprintf_r+0xcd4>
 8005eb4:	3408      	adds	r4, #8
 8005eb6:	2e00      	cmp	r6, #0
 8005eb8:	bfb4      	ite	lt
 8005eba:	463e      	movlt	r6, r7
 8005ebc:	1bbe      	subge	r6, r7, r6
 8005ebe:	2e00      	cmp	r6, #0
 8005ec0:	dd0f      	ble.n	8005ee2 <_svfprintf_r+0xc42>
 8005ec2:	f8df b148 	ldr.w	fp, [pc, #328]	; 800600c <_svfprintf_r+0xd6c>
 8005ec6:	2e10      	cmp	r6, #16
 8005ec8:	f8c4 b000 	str.w	fp, [r4]
 8005ecc:	dc5c      	bgt.n	8005f88 <_svfprintf_r+0xce8>
 8005ece:	9b23      	ldr	r3, [sp, #140]	; 0x8c
 8005ed0:	6066      	str	r6, [r4, #4]
 8005ed2:	441e      	add	r6, r3
 8005ed4:	9b22      	ldr	r3, [sp, #136]	; 0x88
 8005ed6:	9623      	str	r6, [sp, #140]	; 0x8c
 8005ed8:	3301      	adds	r3, #1
 8005eda:	2b07      	cmp	r3, #7
 8005edc:	9322      	str	r3, [sp, #136]	; 0x88
 8005ede:	dc6a      	bgt.n	8005fb6 <_svfprintf_r+0xd16>
 8005ee0:	3408      	adds	r4, #8
 8005ee2:	9b1b      	ldr	r3, [sp, #108]	; 0x6c
 8005ee4:	9a07      	ldr	r2, [sp, #28]
 8005ee6:	4293      	cmp	r3, r2
 8005ee8:	db01      	blt.n	8005eee <_svfprintf_r+0xc4e>
 8005eea:	07e9      	lsls	r1, r5, #31
 8005eec:	d50d      	bpl.n	8005f0a <_svfprintf_r+0xc6a>
 8005eee:	9b11      	ldr	r3, [sp, #68]	; 0x44
 8005ef0:	9a0a      	ldr	r2, [sp, #40]	; 0x28
 8005ef2:	6023      	str	r3, [r4, #0]
 8005ef4:	9b0a      	ldr	r3, [sp, #40]	; 0x28
 8005ef6:	6063      	str	r3, [r4, #4]
 8005ef8:	9b23      	ldr	r3, [sp, #140]	; 0x8c
 8005efa:	4413      	add	r3, r2
 8005efc:	9323      	str	r3, [sp, #140]	; 0x8c
 8005efe:	9b22      	ldr	r3, [sp, #136]	; 0x88
 8005f00:	3301      	adds	r3, #1
 8005f02:	2b07      	cmp	r3, #7
 8005f04:	9322      	str	r3, [sp, #136]	; 0x88
 8005f06:	dc60      	bgt.n	8005fca <_svfprintf_r+0xd2a>
 8005f08:	3408      	adds	r4, #8
 8005f0a:	9b07      	ldr	r3, [sp, #28]
 8005f0c:	9a07      	ldr	r2, [sp, #28]
 8005f0e:	1bde      	subs	r6, r3, r7
 8005f10:	9b1b      	ldr	r3, [sp, #108]	; 0x6c
 8005f12:	1ad3      	subs	r3, r2, r3
 8005f14:	429e      	cmp	r6, r3
 8005f16:	bfa8      	it	ge
 8005f18:	461e      	movge	r6, r3
 8005f1a:	2e00      	cmp	r6, #0
 8005f1c:	dd0b      	ble.n	8005f36 <_svfprintf_r+0xc96>
 8005f1e:	9b23      	ldr	r3, [sp, #140]	; 0x8c
 8005f20:	4447      	add	r7, r8
 8005f22:	4433      	add	r3, r6
 8005f24:	9323      	str	r3, [sp, #140]	; 0x8c
 8005f26:	9b22      	ldr	r3, [sp, #136]	; 0x88
 8005f28:	6027      	str	r7, [r4, #0]
 8005f2a:	3301      	adds	r3, #1
 8005f2c:	2b07      	cmp	r3, #7
 8005f2e:	6066      	str	r6, [r4, #4]
 8005f30:	9322      	str	r3, [sp, #136]	; 0x88
 8005f32:	dc54      	bgt.n	8005fde <_svfprintf_r+0xd3e>
 8005f34:	3408      	adds	r4, #8
 8005f36:	9b1b      	ldr	r3, [sp, #108]	; 0x6c
 8005f38:	9a07      	ldr	r2, [sp, #28]
 8005f3a:	2e00      	cmp	r6, #0
 8005f3c:	eba2 0303 	sub.w	r3, r2, r3
 8005f40:	bfb4      	ite	lt
 8005f42:	461e      	movlt	r6, r3
 8005f44:	1b9e      	subge	r6, r3, r6
 8005f46:	2e00      	cmp	r6, #0
 8005f48:	f77f acd7 	ble.w	80058fa <_svfprintf_r+0x65a>
 8005f4c:	f04f 0810 	mov.w	r8, #16
 8005f50:	4f2e      	ldr	r7, [pc, #184]	; (800600c <_svfprintf_r+0xd6c>)
 8005f52:	2e10      	cmp	r6, #16
 8005f54:	6027      	str	r7, [r4, #0]
 8005f56:	f77f aee7 	ble.w	8005d28 <_svfprintf_r+0xa88>
 8005f5a:	9b23      	ldr	r3, [sp, #140]	; 0x8c
 8005f5c:	f8c4 8004 	str.w	r8, [r4, #4]
 8005f60:	3310      	adds	r3, #16
 8005f62:	9323      	str	r3, [sp, #140]	; 0x8c
 8005f64:	9b22      	ldr	r3, [sp, #136]	; 0x88
 8005f66:	3301      	adds	r3, #1
 8005f68:	2b07      	cmp	r3, #7
 8005f6a:	9322      	str	r3, [sp, #136]	; 0x88
 8005f6c:	dc41      	bgt.n	8005ff2 <_svfprintf_r+0xd52>
 8005f6e:	3408      	adds	r4, #8
 8005f70:	3e10      	subs	r6, #16
 8005f72:	e7ee      	b.n	8005f52 <_svfprintf_r+0xcb2>
 8005f74:	aa21      	add	r2, sp, #132	; 0x84
 8005f76:	4649      	mov	r1, r9
 8005f78:	4650      	mov	r0, sl
 8005f7a:	f001 fcdf 	bl	800793c <__ssprint_r>
 8005f7e:	2800      	cmp	r0, #0
 8005f80:	f040 80eb 	bne.w	800615a <_svfprintf_r+0xeba>
 8005f84:	ac2e      	add	r4, sp, #184	; 0xb8
 8005f86:	e796      	b.n	8005eb6 <_svfprintf_r+0xc16>
 8005f88:	2310      	movs	r3, #16
 8005f8a:	6063      	str	r3, [r4, #4]
 8005f8c:	9b23      	ldr	r3, [sp, #140]	; 0x8c
 8005f8e:	3310      	adds	r3, #16
 8005f90:	9323      	str	r3, [sp, #140]	; 0x8c
 8005f92:	9b22      	ldr	r3, [sp, #136]	; 0x88
 8005f94:	3301      	adds	r3, #1
 8005f96:	2b07      	cmp	r3, #7
 8005f98:	9322      	str	r3, [sp, #136]	; 0x88
 8005f9a:	dc02      	bgt.n	8005fa2 <_svfprintf_r+0xd02>
 8005f9c:	3408      	adds	r4, #8
 8005f9e:	3e10      	subs	r6, #16
 8005fa0:	e791      	b.n	8005ec6 <_svfprintf_r+0xc26>
 8005fa2:	aa21      	add	r2, sp, #132	; 0x84
 8005fa4:	4649      	mov	r1, r9
 8005fa6:	4650      	mov	r0, sl
 8005fa8:	f001 fcc8 	bl	800793c <__ssprint_r>
 8005fac:	2800      	cmp	r0, #0
 8005fae:	f040 80d4 	bne.w	800615a <_svfprintf_r+0xeba>
 8005fb2:	ac2e      	add	r4, sp, #184	; 0xb8
 8005fb4:	e7f3      	b.n	8005f9e <_svfprintf_r+0xcfe>
 8005fb6:	aa21      	add	r2, sp, #132	; 0x84
 8005fb8:	4649      	mov	r1, r9
 8005fba:	4650      	mov	r0, sl
 8005fbc:	f001 fcbe 	bl	800793c <__ssprint_r>
 8005fc0:	2800      	cmp	r0, #0
 8005fc2:	f040 80ca 	bne.w	800615a <_svfprintf_r+0xeba>
 8005fc6:	ac2e      	add	r4, sp, #184	; 0xb8
 8005fc8:	e78b      	b.n	8005ee2 <_svfprintf_r+0xc42>
 8005fca:	aa21      	add	r2, sp, #132	; 0x84
 8005fcc:	4649      	mov	r1, r9
 8005fce:	4650      	mov	r0, sl
 8005fd0:	f001 fcb4 	bl	800793c <__ssprint_r>
 8005fd4:	2800      	cmp	r0, #0
 8005fd6:	f040 80c0 	bne.w	800615a <_svfprintf_r+0xeba>
 8005fda:	ac2e      	add	r4, sp, #184	; 0xb8
 8005fdc:	e795      	b.n	8005f0a <_svfprintf_r+0xc6a>
 8005fde:	aa21      	add	r2, sp, #132	; 0x84
 8005fe0:	4649      	mov	r1, r9
 8005fe2:	4650      	mov	r0, sl
 8005fe4:	f001 fcaa 	bl	800793c <__ssprint_r>
 8005fe8:	2800      	cmp	r0, #0
 8005fea:	f040 80b6 	bne.w	800615a <_svfprintf_r+0xeba>
 8005fee:	ac2e      	add	r4, sp, #184	; 0xb8
 8005ff0:	e7a1      	b.n	8005f36 <_svfprintf_r+0xc96>
 8005ff2:	aa21      	add	r2, sp, #132	; 0x84
 8005ff4:	4649      	mov	r1, r9
 8005ff6:	4650      	mov	r0, sl
 8005ff8:	f001 fca0 	bl	800793c <__ssprint_r>
 8005ffc:	2800      	cmp	r0, #0
 8005ffe:	f040 80ac 	bne.w	800615a <_svfprintf_r+0xeba>
 8006002:	ac2e      	add	r4, sp, #184	; 0xb8
 8006004:	e7b4      	b.n	8005f70 <_svfprintf_r+0xcd0>
 8006006:	bf00      	nop
 8006008:	080088ae 	.word	0x080088ae
 800600c:	080088c0 	.word	0x080088c0
 8006010:	9b07      	ldr	r3, [sp, #28]
 8006012:	2b01      	cmp	r3, #1
 8006014:	dc01      	bgt.n	800601a <_svfprintf_r+0xd7a>
 8006016:	07ea      	lsls	r2, r5, #31
 8006018:	d576      	bpl.n	8006108 <_svfprintf_r+0xe68>
 800601a:	2301      	movs	r3, #1
 800601c:	6063      	str	r3, [r4, #4]
 800601e:	9b23      	ldr	r3, [sp, #140]	; 0x8c
 8006020:	f8c4 8000 	str.w	r8, [r4]
 8006024:	3301      	adds	r3, #1
 8006026:	9323      	str	r3, [sp, #140]	; 0x8c
 8006028:	9b22      	ldr	r3, [sp, #136]	; 0x88
 800602a:	3301      	adds	r3, #1
 800602c:	2b07      	cmp	r3, #7
 800602e:	9322      	str	r3, [sp, #136]	; 0x88
 8006030:	dc36      	bgt.n	80060a0 <_svfprintf_r+0xe00>
 8006032:	3408      	adds	r4, #8
 8006034:	9b11      	ldr	r3, [sp, #68]	; 0x44
 8006036:	9a0a      	ldr	r2, [sp, #40]	; 0x28
 8006038:	6023      	str	r3, [r4, #0]
 800603a:	9b0a      	ldr	r3, [sp, #40]	; 0x28
 800603c:	6063      	str	r3, [r4, #4]
 800603e:	9b23      	ldr	r3, [sp, #140]	; 0x8c
 8006040:	4413      	add	r3, r2
 8006042:	9323      	str	r3, [sp, #140]	; 0x8c
 8006044:	9b22      	ldr	r3, [sp, #136]	; 0x88
 8006046:	3301      	adds	r3, #1
 8006048:	2b07      	cmp	r3, #7
 800604a:	9322      	str	r3, [sp, #136]	; 0x88
 800604c:	dc31      	bgt.n	80060b2 <_svfprintf_r+0xe12>
 800604e:	3408      	adds	r4, #8
 8006050:	9b13      	ldr	r3, [sp, #76]	; 0x4c
 8006052:	9a12      	ldr	r2, [sp, #72]	; 0x48
 8006054:	980d      	ldr	r0, [sp, #52]	; 0x34
 8006056:	990e      	ldr	r1, [sp, #56]	; 0x38
 8006058:	f7fa fd12 	bl	8000a80 <__aeabi_dcmpeq>
 800605c:	9b07      	ldr	r3, [sp, #28]
 800605e:	1e5e      	subs	r6, r3, #1
 8006060:	2800      	cmp	r0, #0
 8006062:	d12f      	bne.n	80060c4 <_svfprintf_r+0xe24>
 8006064:	f108 0301 	add.w	r3, r8, #1
 8006068:	e884 0048 	stmia.w	r4, {r3, r6}
 800606c:	9b23      	ldr	r3, [sp, #140]	; 0x8c
 800606e:	9a07      	ldr	r2, [sp, #28]
 8006070:	3b01      	subs	r3, #1
 8006072:	4413      	add	r3, r2
 8006074:	9323      	str	r3, [sp, #140]	; 0x8c
 8006076:	9b22      	ldr	r3, [sp, #136]	; 0x88
 8006078:	3301      	adds	r3, #1
 800607a:	2b07      	cmp	r3, #7
 800607c:	9322      	str	r3, [sp, #136]	; 0x88
 800607e:	dd4a      	ble.n	8006116 <_svfprintf_r+0xe76>
 8006080:	aa21      	add	r2, sp, #132	; 0x84
 8006082:	4649      	mov	r1, r9
 8006084:	4650      	mov	r0, sl
 8006086:	f001 fc59 	bl	800793c <__ssprint_r>
 800608a:	2800      	cmp	r0, #0
 800608c:	d165      	bne.n	800615a <_svfprintf_r+0xeba>
 800608e:	ac2e      	add	r4, sp, #184	; 0xb8
 8006090:	ab1d      	add	r3, sp, #116	; 0x74
 8006092:	6023      	str	r3, [r4, #0]
 8006094:	9b14      	ldr	r3, [sp, #80]	; 0x50
 8006096:	9a14      	ldr	r2, [sp, #80]	; 0x50
 8006098:	6063      	str	r3, [r4, #4]
 800609a:	9b23      	ldr	r3, [sp, #140]	; 0x8c
 800609c:	4413      	add	r3, r2
 800609e:	e41c      	b.n	80058da <_svfprintf_r+0x63a>
 80060a0:	aa21      	add	r2, sp, #132	; 0x84
 80060a2:	4649      	mov	r1, r9
 80060a4:	4650      	mov	r0, sl
 80060a6:	f001 fc49 	bl	800793c <__ssprint_r>
 80060aa:	2800      	cmp	r0, #0
 80060ac:	d155      	bne.n	800615a <_svfprintf_r+0xeba>
 80060ae:	ac2e      	add	r4, sp, #184	; 0xb8
 80060b0:	e7c0      	b.n	8006034 <_svfprintf_r+0xd94>
 80060b2:	aa21      	add	r2, sp, #132	; 0x84
 80060b4:	4649      	mov	r1, r9
 80060b6:	4650      	mov	r0, sl
 80060b8:	f001 fc40 	bl	800793c <__ssprint_r>
 80060bc:	2800      	cmp	r0, #0
 80060be:	d14c      	bne.n	800615a <_svfprintf_r+0xeba>
 80060c0:	ac2e      	add	r4, sp, #184	; 0xb8
 80060c2:	e7c5      	b.n	8006050 <_svfprintf_r+0xdb0>
 80060c4:	2e00      	cmp	r6, #0
 80060c6:	dde3      	ble.n	8006090 <_svfprintf_r+0xdf0>
 80060c8:	f04f 0810 	mov.w	r8, #16
 80060cc:	4f58      	ldr	r7, [pc, #352]	; (8006230 <_svfprintf_r+0xf90>)
 80060ce:	2e10      	cmp	r6, #16
 80060d0:	6027      	str	r7, [r4, #0]
 80060d2:	dc04      	bgt.n	80060de <_svfprintf_r+0xe3e>
 80060d4:	9b23      	ldr	r3, [sp, #140]	; 0x8c
 80060d6:	6066      	str	r6, [r4, #4]
 80060d8:	441e      	add	r6, r3
 80060da:	9623      	str	r6, [sp, #140]	; 0x8c
 80060dc:	e7cb      	b.n	8006076 <_svfprintf_r+0xdd6>
 80060de:	9b23      	ldr	r3, [sp, #140]	; 0x8c
 80060e0:	f8c4 8004 	str.w	r8, [r4, #4]
 80060e4:	3310      	adds	r3, #16
 80060e6:	9323      	str	r3, [sp, #140]	; 0x8c
 80060e8:	9b22      	ldr	r3, [sp, #136]	; 0x88
 80060ea:	3301      	adds	r3, #1
 80060ec:	2b07      	cmp	r3, #7
 80060ee:	9322      	str	r3, [sp, #136]	; 0x88
 80060f0:	dc02      	bgt.n	80060f8 <_svfprintf_r+0xe58>
 80060f2:	3408      	adds	r4, #8
 80060f4:	3e10      	subs	r6, #16
 80060f6:	e7ea      	b.n	80060ce <_svfprintf_r+0xe2e>
 80060f8:	aa21      	add	r2, sp, #132	; 0x84
 80060fa:	4649      	mov	r1, r9
 80060fc:	4650      	mov	r0, sl
 80060fe:	f001 fc1d 	bl	800793c <__ssprint_r>
 8006102:	bb50      	cbnz	r0, 800615a <_svfprintf_r+0xeba>
 8006104:	ac2e      	add	r4, sp, #184	; 0xb8
 8006106:	e7f5      	b.n	80060f4 <_svfprintf_r+0xe54>
 8006108:	2301      	movs	r3, #1
 800610a:	6063      	str	r3, [r4, #4]
 800610c:	9b23      	ldr	r3, [sp, #140]	; 0x8c
 800610e:	f8c4 8000 	str.w	r8, [r4]
 8006112:	3301      	adds	r3, #1
 8006114:	e7ae      	b.n	8006074 <_svfprintf_r+0xdd4>
 8006116:	3408      	adds	r4, #8
 8006118:	e7ba      	b.n	8006090 <_svfprintf_r+0xdf0>
 800611a:	3408      	adds	r4, #8
 800611c:	f7ff bbed 	b.w	80058fa <_svfprintf_r+0x65a>
 8006120:	9b0c      	ldr	r3, [sp, #48]	; 0x30
 8006122:	9a0f      	ldr	r2, [sp, #60]	; 0x3c
 8006124:	1a9d      	subs	r5, r3, r2
 8006126:	2d00      	cmp	r5, #0
 8006128:	f77f abea 	ble.w	8005900 <_svfprintf_r+0x660>
 800612c:	2610      	movs	r6, #16
 800612e:	4b41      	ldr	r3, [pc, #260]	; (8006234 <_svfprintf_r+0xf94>)
 8006130:	2d10      	cmp	r5, #16
 8006132:	6023      	str	r3, [r4, #0]
 8006134:	dc1b      	bgt.n	800616e <_svfprintf_r+0xece>
 8006136:	9b23      	ldr	r3, [sp, #140]	; 0x8c
 8006138:	6065      	str	r5, [r4, #4]
 800613a:	441d      	add	r5, r3
 800613c:	9b22      	ldr	r3, [sp, #136]	; 0x88
 800613e:	9523      	str	r5, [sp, #140]	; 0x8c
 8006140:	3301      	adds	r3, #1
 8006142:	2b07      	cmp	r3, #7
 8006144:	9322      	str	r3, [sp, #136]	; 0x88
 8006146:	f77f abdb 	ble.w	8005900 <_svfprintf_r+0x660>
 800614a:	aa21      	add	r2, sp, #132	; 0x84
 800614c:	4649      	mov	r1, r9
 800614e:	4650      	mov	r0, sl
 8006150:	f001 fbf4 	bl	800793c <__ssprint_r>
 8006154:	2800      	cmp	r0, #0
 8006156:	f43f abd3 	beq.w	8005900 <_svfprintf_r+0x660>
 800615a:	f8b9 300c 	ldrh.w	r3, [r9, #12]
 800615e:	f013 0f40 	tst.w	r3, #64	; 0x40
 8006162:	9b0b      	ldr	r3, [sp, #44]	; 0x2c
 8006164:	bf18      	it	ne
 8006166:	f04f 33ff 	movne.w	r3, #4294967295
 800616a:	f7ff b8bd 	b.w	80052e8 <_svfprintf_r+0x48>
 800616e:	9b23      	ldr	r3, [sp, #140]	; 0x8c
 8006170:	6066      	str	r6, [r4, #4]
 8006172:	3310      	adds	r3, #16
 8006174:	9323      	str	r3, [sp, #140]	; 0x8c
 8006176:	9b22      	ldr	r3, [sp, #136]	; 0x88
 8006178:	3301      	adds	r3, #1
 800617a:	2b07      	cmp	r3, #7
 800617c:	9322      	str	r3, [sp, #136]	; 0x88
 800617e:	dc02      	bgt.n	8006186 <_svfprintf_r+0xee6>
 8006180:	3408      	adds	r4, #8
 8006182:	3d10      	subs	r5, #16
 8006184:	e7d3      	b.n	800612e <_svfprintf_r+0xe8e>
 8006186:	aa21      	add	r2, sp, #132	; 0x84
 8006188:	4649      	mov	r1, r9
 800618a:	4650      	mov	r0, sl
 800618c:	f001 fbd6 	bl	800793c <__ssprint_r>
 8006190:	2800      	cmp	r0, #0
 8006192:	d1e2      	bne.n	800615a <_svfprintf_r+0xeba>
 8006194:	ac2e      	add	r4, sp, #184	; 0xb8
 8006196:	e7f4      	b.n	8006182 <_svfprintf_r+0xee2>
 8006198:	9b23      	ldr	r3, [sp, #140]	; 0x8c
 800619a:	2b00      	cmp	r3, #0
 800619c:	d0dd      	beq.n	800615a <_svfprintf_r+0xeba>
 800619e:	aa21      	add	r2, sp, #132	; 0x84
 80061a0:	4649      	mov	r1, r9
 80061a2:	4650      	mov	r0, sl
 80061a4:	f001 fbca 	bl	800793c <__ssprint_r>
 80061a8:	e7d7      	b.n	800615a <_svfprintf_r+0xeba>
 80061aa:	9a0d      	ldr	r2, [sp, #52]	; 0x34
 80061ac:	9b0e      	ldr	r3, [sp, #56]	; 0x38
 80061ae:	980d      	ldr	r0, [sp, #52]	; 0x34
 80061b0:	990e      	ldr	r1, [sp, #56]	; 0x38
 80061b2:	f7fa fc97 	bl	8000ae4 <__aeabi_dcmpun>
 80061b6:	2800      	cmp	r0, #0
 80061b8:	f43f aa3d 	beq.w	8005636 <_svfprintf_r+0x396>
 80061bc:	4b1e      	ldr	r3, [pc, #120]	; (8006238 <_svfprintf_r+0xf98>)
 80061be:	4a1f      	ldr	r2, [pc, #124]	; (800623c <_svfprintf_r+0xf9c>)
 80061c0:	f7ff ba2d 	b.w	800561e <_svfprintf_r+0x37e>
 80061c4:	9b1f      	ldr	r3, [sp, #124]	; 0x7c
 80061c6:	eba3 0308 	sub.w	r3, r3, r8
 80061ca:	9307      	str	r3, [sp, #28]
 80061cc:	f7ff baaf 	b.w	800572e <_svfprintf_r+0x48e>
 80061d0:	ea56 0207 	orrs.w	r2, r6, r7
 80061d4:	950f      	str	r5, [sp, #60]	; 0x3c
 80061d6:	f43f ac2b 	beq.w	8005a30 <_svfprintf_r+0x790>
 80061da:	2b01      	cmp	r3, #1
 80061dc:	f43f ac9d 	beq.w	8005b1a <_svfprintf_r+0x87a>
 80061e0:	2b02      	cmp	r3, #2
 80061e2:	f43f acbd 	beq.w	8005b60 <_svfprintf_r+0x8c0>
 80061e6:	ab2e      	add	r3, sp, #184	; 0xb8
 80061e8:	08f1      	lsrs	r1, r6, #3
 80061ea:	ea41 7147 	orr.w	r1, r1, r7, lsl #29
 80061ee:	08f8      	lsrs	r0, r7, #3
 80061f0:	f006 0207 	and.w	r2, r6, #7
 80061f4:	4607      	mov	r7, r0
 80061f6:	460e      	mov	r6, r1
 80061f8:	3230      	adds	r2, #48	; 0x30
 80061fa:	ea56 0107 	orrs.w	r1, r6, r7
 80061fe:	f103 38ff 	add.w	r8, r3, #4294967295
 8006202:	f803 2c01 	strb.w	r2, [r3, #-1]
 8006206:	f47f ac86 	bne.w	8005b16 <_svfprintf_r+0x876>
 800620a:	990f      	ldr	r1, [sp, #60]	; 0x3c
 800620c:	07c9      	lsls	r1, r1, #31
 800620e:	d506      	bpl.n	800621e <_svfprintf_r+0xf7e>
 8006210:	2a30      	cmp	r2, #48	; 0x30
 8006212:	d004      	beq.n	800621e <_svfprintf_r+0xf7e>
 8006214:	2230      	movs	r2, #48	; 0x30
 8006216:	f808 2c01 	strb.w	r2, [r8, #-1]
 800621a:	f1a3 0802 	sub.w	r8, r3, #2
 800621e:	ab2e      	add	r3, sp, #184	; 0xb8
 8006220:	465e      	mov	r6, fp
 8006222:	9d0f      	ldr	r5, [sp, #60]	; 0x3c
 8006224:	eba3 0b08 	sub.w	fp, r3, r8
 8006228:	2700      	movs	r7, #0
 800622a:	f7ff bace 	b.w	80057ca <_svfprintf_r+0x52a>
 800622e:	bf00      	nop
 8006230:	080088c0 	.word	0x080088c0
 8006234:	080088b0 	.word	0x080088b0
 8006238:	08008884 	.word	0x08008884
 800623c:	08008888 	.word	0x08008888

08006240 <quorem>:
 8006240:	e92d 4ff7 	stmdb	sp!, {r0, r1, r2, r4, r5, r6, r7, r8, r9, sl, fp, lr}
 8006244:	6903      	ldr	r3, [r0, #16]
 8006246:	690c      	ldr	r4, [r1, #16]
 8006248:	4680      	mov	r8, r0
 800624a:	429c      	cmp	r4, r3
 800624c:	f300 8082 	bgt.w	8006354 <quorem+0x114>
 8006250:	3c01      	subs	r4, #1
 8006252:	f101 0714 	add.w	r7, r1, #20
 8006256:	f100 0614 	add.w	r6, r0, #20
 800625a:	f857 5024 	ldr.w	r5, [r7, r4, lsl #2]
 800625e:	f856 0024 	ldr.w	r0, [r6, r4, lsl #2]
 8006262:	3501      	adds	r5, #1
 8006264:	fbb0 f5f5 	udiv	r5, r0, r5
 8006268:	ea4f 0e84 	mov.w	lr, r4, lsl #2
 800626c:	eb06 030e 	add.w	r3, r6, lr
 8006270:	eb07 090e 	add.w	r9, r7, lr
 8006274:	9301      	str	r3, [sp, #4]
 8006276:	b38d      	cbz	r5, 80062dc <quorem+0x9c>
 8006278:	f04f 0a00 	mov.w	sl, #0
 800627c:	4638      	mov	r0, r7
 800627e:	46b4      	mov	ip, r6
 8006280:	46d3      	mov	fp, sl
 8006282:	f850 2b04 	ldr.w	r2, [r0], #4
 8006286:	b293      	uxth	r3, r2
 8006288:	fb05 a303 	mla	r3, r5, r3, sl
 800628c:	0c12      	lsrs	r2, r2, #16
 800628e:	ea4f 4a13 	mov.w	sl, r3, lsr #16
 8006292:	fb05 a202 	mla	r2, r5, r2, sl
 8006296:	b29b      	uxth	r3, r3
 8006298:	ebab 0303 	sub.w	r3, fp, r3
 800629c:	f8bc b000 	ldrh.w	fp, [ip]
 80062a0:	ea4f 4a12 	mov.w	sl, r2, lsr #16
 80062a4:	445b      	add	r3, fp
 80062a6:	fa1f fb82 	uxth.w	fp, r2
 80062aa:	f8dc 2000 	ldr.w	r2, [ip]
 80062ae:	4581      	cmp	r9, r0
 80062b0:	ebcb 4212 	rsb	r2, fp, r2, lsr #16
 80062b4:	eb02 4223 	add.w	r2, r2, r3, asr #16
 80062b8:	b29b      	uxth	r3, r3
 80062ba:	ea43 4302 	orr.w	r3, r3, r2, lsl #16
 80062be:	ea4f 4b22 	mov.w	fp, r2, asr #16
 80062c2:	f84c 3b04 	str.w	r3, [ip], #4
 80062c6:	d2dc      	bcs.n	8006282 <quorem+0x42>
 80062c8:	f856 300e 	ldr.w	r3, [r6, lr]
 80062cc:	b933      	cbnz	r3, 80062dc <quorem+0x9c>
 80062ce:	9b01      	ldr	r3, [sp, #4]
 80062d0:	3b04      	subs	r3, #4
 80062d2:	429e      	cmp	r6, r3
 80062d4:	461a      	mov	r2, r3
 80062d6:	d331      	bcc.n	800633c <quorem+0xfc>
 80062d8:	f8c8 4010 	str.w	r4, [r8, #16]
 80062dc:	4640      	mov	r0, r8
 80062de:	f001 fa54 	bl	800778a <__mcmp>
 80062e2:	2800      	cmp	r0, #0
 80062e4:	db26      	blt.n	8006334 <quorem+0xf4>
 80062e6:	4630      	mov	r0, r6
 80062e8:	f04f 0e00 	mov.w	lr, #0
 80062ec:	3501      	adds	r5, #1
 80062ee:	f857 1b04 	ldr.w	r1, [r7], #4
 80062f2:	f8d0 c000 	ldr.w	ip, [r0]
 80062f6:	b28b      	uxth	r3, r1
 80062f8:	ebae 0303 	sub.w	r3, lr, r3
 80062fc:	fa1f f28c 	uxth.w	r2, ip
 8006300:	4413      	add	r3, r2
 8006302:	0c0a      	lsrs	r2, r1, #16
 8006304:	ebc2 421c 	rsb	r2, r2, ip, lsr #16
 8006308:	eb02 4223 	add.w	r2, r2, r3, asr #16
 800630c:	b29b      	uxth	r3, r3
 800630e:	ea43 4302 	orr.w	r3, r3, r2, lsl #16
 8006312:	45b9      	cmp	r9, r7
 8006314:	ea4f 4e22 	mov.w	lr, r2, asr #16
 8006318:	f840 3b04 	str.w	r3, [r0], #4
 800631c:	d2e7      	bcs.n	80062ee <quorem+0xae>
 800631e:	f856 2024 	ldr.w	r2, [r6, r4, lsl #2]
 8006322:	eb06 0384 	add.w	r3, r6, r4, lsl #2
 8006326:	b92a      	cbnz	r2, 8006334 <quorem+0xf4>
 8006328:	3b04      	subs	r3, #4
 800632a:	429e      	cmp	r6, r3
 800632c:	461a      	mov	r2, r3
 800632e:	d30b      	bcc.n	8006348 <quorem+0x108>
 8006330:	f8c8 4010 	str.w	r4, [r8, #16]
 8006334:	4628      	mov	r0, r5
 8006336:	b003      	add	sp, #12
 8006338:	e8bd 8ff0 	ldmia.w	sp!, {r4, r5, r6, r7, r8, r9, sl, fp, pc}
 800633c:	6812      	ldr	r2, [r2, #0]
 800633e:	3b04      	subs	r3, #4
 8006340:	2a00      	cmp	r2, #0
 8006342:	d1c9      	bne.n	80062d8 <quorem+0x98>
 8006344:	3c01      	subs	r4, #1
 8006346:	e7c4      	b.n	80062d2 <quorem+0x92>
 8006348:	6812      	ldr	r2, [r2, #0]
 800634a:	3b04      	subs	r3, #4
 800634c:	2a00      	cmp	r2, #0
 800634e:	d1ef      	bne.n	8006330 <quorem+0xf0>
 8006350:	3c01      	subs	r4, #1
 8006352:	e7ea      	b.n	800632a <quorem+0xea>
 8006354:	2000      	movs	r0, #0
 8006356:	e7ee      	b.n	8006336 <quorem+0xf6>

08006358 <_dtoa_r>:
 8006358:	e92d 4ff0 	stmdb	sp!, {r4, r5, r6, r7, r8, r9, sl, fp, lr}
 800635c:	6a46      	ldr	r6, [r0, #36]	; 0x24
 800635e:	b095      	sub	sp, #84	; 0x54
 8006360:	4604      	mov	r4, r0
 8006362:	9d21      	ldr	r5, [sp, #132]	; 0x84
 8006364:	e9cd 2302 	strd	r2, r3, [sp, #8]
 8006368:	b93e      	cbnz	r6, 800637a <_dtoa_r+0x22>
 800636a:	2010      	movs	r0, #16
 800636c:	f000 fdd6 	bl	8006f1c <malloc>
 8006370:	6260      	str	r0, [r4, #36]	; 0x24
 8006372:	6046      	str	r6, [r0, #4]
 8006374:	6086      	str	r6, [r0, #8]
 8006376:	6006      	str	r6, [r0, #0]
 8006378:	60c6      	str	r6, [r0, #12]
 800637a:	6a63      	ldr	r3, [r4, #36]	; 0x24
 800637c:	6819      	ldr	r1, [r3, #0]
 800637e:	b151      	cbz	r1, 8006396 <_dtoa_r+0x3e>
 8006380:	685a      	ldr	r2, [r3, #4]
 8006382:	2301      	movs	r3, #1
 8006384:	4093      	lsls	r3, r2
 8006386:	604a      	str	r2, [r1, #4]
 8006388:	608b      	str	r3, [r1, #8]
 800638a:	4620      	mov	r0, r4
 800638c:	f001 f828 	bl	80073e0 <_Bfree>
 8006390:	2200      	movs	r2, #0
 8006392:	6a63      	ldr	r3, [r4, #36]	; 0x24
 8006394:	601a      	str	r2, [r3, #0]
 8006396:	9b03      	ldr	r3, [sp, #12]
 8006398:	2b00      	cmp	r3, #0
 800639a:	bfb7      	itett	lt
 800639c:	2301      	movlt	r3, #1
 800639e:	2300      	movge	r3, #0
 80063a0:	602b      	strlt	r3, [r5, #0]
 80063a2:	9b03      	ldrlt	r3, [sp, #12]
 80063a4:	bfae      	itee	ge
 80063a6:	602b      	strge	r3, [r5, #0]
 80063a8:	f023 4300 	biclt.w	r3, r3, #2147483648	; 0x80000000
 80063ac:	9303      	strlt	r3, [sp, #12]
 80063ae:	f8dd 900c 	ldr.w	r9, [sp, #12]
 80063b2:	4bab      	ldr	r3, [pc, #684]	; (8006660 <_dtoa_r+0x308>)
 80063b4:	ea33 0309 	bics.w	r3, r3, r9
 80063b8:	d11b      	bne.n	80063f2 <_dtoa_r+0x9a>
 80063ba:	f242 730f 	movw	r3, #9999	; 0x270f
 80063be:	9a20      	ldr	r2, [sp, #128]	; 0x80
 80063c0:	6013      	str	r3, [r2, #0]
 80063c2:	9b02      	ldr	r3, [sp, #8]
 80063c4:	b923      	cbnz	r3, 80063d0 <_dtoa_r+0x78>
 80063c6:	f3c9 0013 	ubfx	r0, r9, #0, #20
 80063ca:	2800      	cmp	r0, #0
 80063cc:	f000 8583 	beq.w	8006ed6 <_dtoa_r+0xb7e>
 80063d0:	9b22      	ldr	r3, [sp, #136]	; 0x88
 80063d2:	b953      	cbnz	r3, 80063ea <_dtoa_r+0x92>
 80063d4:	4ba3      	ldr	r3, [pc, #652]	; (8006664 <_dtoa_r+0x30c>)
 80063d6:	e021      	b.n	800641c <_dtoa_r+0xc4>
 80063d8:	4ba3      	ldr	r3, [pc, #652]	; (8006668 <_dtoa_r+0x310>)
 80063da:	9306      	str	r3, [sp, #24]
 80063dc:	3308      	adds	r3, #8
 80063de:	9a22      	ldr	r2, [sp, #136]	; 0x88
 80063e0:	6013      	str	r3, [r2, #0]
 80063e2:	9806      	ldr	r0, [sp, #24]
 80063e4:	b015      	add	sp, #84	; 0x54
 80063e6:	e8bd 8ff0 	ldmia.w	sp!, {r4, r5, r6, r7, r8, r9, sl, fp, pc}
 80063ea:	4b9e      	ldr	r3, [pc, #632]	; (8006664 <_dtoa_r+0x30c>)
 80063ec:	9306      	str	r3, [sp, #24]
 80063ee:	3303      	adds	r3, #3
 80063f0:	e7f5      	b.n	80063de <_dtoa_r+0x86>
 80063f2:	e9dd 6702 	ldrd	r6, r7, [sp, #8]
 80063f6:	2200      	movs	r2, #0
 80063f8:	2300      	movs	r3, #0
 80063fa:	4630      	mov	r0, r6
 80063fc:	4639      	mov	r1, r7
 80063fe:	f7fa fb3f 	bl	8000a80 <__aeabi_dcmpeq>
 8006402:	4680      	mov	r8, r0
 8006404:	b160      	cbz	r0, 8006420 <_dtoa_r+0xc8>
 8006406:	2301      	movs	r3, #1
 8006408:	9a20      	ldr	r2, [sp, #128]	; 0x80
 800640a:	6013      	str	r3, [r2, #0]
 800640c:	9b22      	ldr	r3, [sp, #136]	; 0x88
 800640e:	2b00      	cmp	r3, #0
 8006410:	f000 855e 	beq.w	8006ed0 <_dtoa_r+0xb78>
 8006414:	4b95      	ldr	r3, [pc, #596]	; (800666c <_dtoa_r+0x314>)
 8006416:	9a22      	ldr	r2, [sp, #136]	; 0x88
 8006418:	6013      	str	r3, [r2, #0]
 800641a:	3b01      	subs	r3, #1
 800641c:	9306      	str	r3, [sp, #24]
 800641e:	e7e0      	b.n	80063e2 <_dtoa_r+0x8a>
 8006420:	ab12      	add	r3, sp, #72	; 0x48
 8006422:	9301      	str	r3, [sp, #4]
 8006424:	ab13      	add	r3, sp, #76	; 0x4c
 8006426:	9300      	str	r3, [sp, #0]
 8006428:	4632      	mov	r2, r6
 800642a:	463b      	mov	r3, r7
 800642c:	4620      	mov	r0, r4
 800642e:	f001 fa25 	bl	800787c <__d2b>
 8006432:	f3c9 550a 	ubfx	r5, r9, #20, #11
 8006436:	4682      	mov	sl, r0
 8006438:	2d00      	cmp	r5, #0
 800643a:	d07d      	beq.n	8006538 <_dtoa_r+0x1e0>
 800643c:	4630      	mov	r0, r6
 800643e:	f3c7 0313 	ubfx	r3, r7, #0, #20
 8006442:	f043 517f 	orr.w	r1, r3, #1069547520	; 0x3fc00000
 8006446:	f441 1140 	orr.w	r1, r1, #3145728	; 0x300000
 800644a:	f2a5 35ff 	subw	r5, r5, #1023	; 0x3ff
 800644e:	f8cd 8040 	str.w	r8, [sp, #64]	; 0x40
 8006452:	2200      	movs	r2, #0
 8006454:	4b86      	ldr	r3, [pc, #536]	; (8006670 <_dtoa_r+0x318>)
 8006456:	f7f9 fef7 	bl	8000248 <__aeabi_dsub>
 800645a:	a37b      	add	r3, pc, #492	; (adr r3, 8006648 <_dtoa_r+0x2f0>)
 800645c:	e9d3 2300 	ldrd	r2, r3, [r3]
 8006460:	f7fa f8a6 	bl	80005b0 <__aeabi_dmul>
 8006464:	a37a      	add	r3, pc, #488	; (adr r3, 8006650 <_dtoa_r+0x2f8>)
 8006466:	e9d3 2300 	ldrd	r2, r3, [r3]
 800646a:	f7f9 feef 	bl	800024c <__adddf3>
 800646e:	4606      	mov	r6, r0
 8006470:	4628      	mov	r0, r5
 8006472:	460f      	mov	r7, r1
 8006474:	f7fa f836 	bl	80004e4 <__aeabi_i2d>
 8006478:	a377      	add	r3, pc, #476	; (adr r3, 8006658 <_dtoa_r+0x300>)
 800647a:	e9d3 2300 	ldrd	r2, r3, [r3]
 800647e:	f7fa f897 	bl	80005b0 <__aeabi_dmul>
 8006482:	4602      	mov	r2, r0
 8006484:	460b      	mov	r3, r1
 8006486:	4630      	mov	r0, r6
 8006488:	4639      	mov	r1, r7
 800648a:	f7f9 fedf 	bl	800024c <__adddf3>
 800648e:	4606      	mov	r6, r0
 8006490:	460f      	mov	r7, r1
 8006492:	f7fa fb3d 	bl	8000b10 <__aeabi_d2iz>
 8006496:	2200      	movs	r2, #0
 8006498:	4683      	mov	fp, r0
 800649a:	2300      	movs	r3, #0
 800649c:	4630      	mov	r0, r6
 800649e:	4639      	mov	r1, r7
 80064a0:	f7fa faf8 	bl	8000a94 <__aeabi_dcmplt>
 80064a4:	b158      	cbz	r0, 80064be <_dtoa_r+0x166>
 80064a6:	4658      	mov	r0, fp
 80064a8:	f7fa f81c 	bl	80004e4 <__aeabi_i2d>
 80064ac:	4602      	mov	r2, r0
 80064ae:	460b      	mov	r3, r1
 80064b0:	4630      	mov	r0, r6
 80064b2:	4639      	mov	r1, r7
 80064b4:	f7fa fae4 	bl	8000a80 <__aeabi_dcmpeq>
 80064b8:	b908      	cbnz	r0, 80064be <_dtoa_r+0x166>
 80064ba:	f10b 3bff 	add.w	fp, fp, #4294967295
 80064be:	f1bb 0f16 	cmp.w	fp, #22
 80064c2:	d858      	bhi.n	8006576 <_dtoa_r+0x21e>
 80064c4:	e9dd 2302 	ldrd	r2, r3, [sp, #8]
 80064c8:	496a      	ldr	r1, [pc, #424]	; (8006674 <_dtoa_r+0x31c>)
 80064ca:	eb01 01cb 	add.w	r1, r1, fp, lsl #3
 80064ce:	e9d1 0100 	ldrd	r0, r1, [r1]
 80064d2:	f7fa fafd 	bl	8000ad0 <__aeabi_dcmpgt>
 80064d6:	2800      	cmp	r0, #0
 80064d8:	d04f      	beq.n	800657a <_dtoa_r+0x222>
 80064da:	2300      	movs	r3, #0
 80064dc:	f10b 3bff 	add.w	fp, fp, #4294967295
 80064e0:	930d      	str	r3, [sp, #52]	; 0x34
 80064e2:	9b12      	ldr	r3, [sp, #72]	; 0x48
 80064e4:	1b5d      	subs	r5, r3, r5
 80064e6:	1e6b      	subs	r3, r5, #1
 80064e8:	9307      	str	r3, [sp, #28]
 80064ea:	bf43      	ittte	mi
 80064ec:	2300      	movmi	r3, #0
 80064ee:	f1c5 0801 	rsbmi	r8, r5, #1
 80064f2:	9307      	strmi	r3, [sp, #28]
 80064f4:	f04f 0800 	movpl.w	r8, #0
 80064f8:	f1bb 0f00 	cmp.w	fp, #0
 80064fc:	db3f      	blt.n	800657e <_dtoa_r+0x226>
 80064fe:	9b07      	ldr	r3, [sp, #28]
 8006500:	f8cd b030 	str.w	fp, [sp, #48]	; 0x30
 8006504:	445b      	add	r3, fp
 8006506:	9307      	str	r3, [sp, #28]
 8006508:	2300      	movs	r3, #0
 800650a:	9308      	str	r3, [sp, #32]
 800650c:	9b1e      	ldr	r3, [sp, #120]	; 0x78
 800650e:	2b09      	cmp	r3, #9
 8006510:	f200 80b4 	bhi.w	800667c <_dtoa_r+0x324>
 8006514:	2b05      	cmp	r3, #5
 8006516:	bfc4      	itt	gt
 8006518:	3b04      	subgt	r3, #4
 800651a:	931e      	strgt	r3, [sp, #120]	; 0x78
 800651c:	9b1e      	ldr	r3, [sp, #120]	; 0x78
 800651e:	bfc8      	it	gt
 8006520:	2600      	movgt	r6, #0
 8006522:	f1a3 0302 	sub.w	r3, r3, #2
 8006526:	bfd8      	it	le
 8006528:	2601      	movle	r6, #1
 800652a:	2b03      	cmp	r3, #3
 800652c:	f200 80b2 	bhi.w	8006694 <_dtoa_r+0x33c>
 8006530:	e8df f003 	tbb	[pc, r3]
 8006534:	782d8684 	.word	0x782d8684
 8006538:	9b13      	ldr	r3, [sp, #76]	; 0x4c
 800653a:	9d12      	ldr	r5, [sp, #72]	; 0x48
 800653c:	441d      	add	r5, r3
 800653e:	f205 4332 	addw	r3, r5, #1074	; 0x432
 8006542:	2b20      	cmp	r3, #32
 8006544:	dd11      	ble.n	800656a <_dtoa_r+0x212>
 8006546:	9a02      	ldr	r2, [sp, #8]
 8006548:	f205 4012 	addw	r0, r5, #1042	; 0x412
 800654c:	f1c3 0340 	rsb	r3, r3, #64	; 0x40
 8006550:	fa22 f000 	lsr.w	r0, r2, r0
 8006554:	fa09 f303 	lsl.w	r3, r9, r3
 8006558:	4318      	orrs	r0, r3
 800655a:	f7f9 ffb3 	bl	80004c4 <__aeabi_ui2d>
 800655e:	2301      	movs	r3, #1
 8006560:	f1a1 71f8 	sub.w	r1, r1, #32505856	; 0x1f00000
 8006564:	3d01      	subs	r5, #1
 8006566:	9310      	str	r3, [sp, #64]	; 0x40
 8006568:	e773      	b.n	8006452 <_dtoa_r+0xfa>
 800656a:	f1c3 0020 	rsb	r0, r3, #32
 800656e:	9b02      	ldr	r3, [sp, #8]
 8006570:	fa03 f000 	lsl.w	r0, r3, r0
 8006574:	e7f1      	b.n	800655a <_dtoa_r+0x202>
 8006576:	2301      	movs	r3, #1
 8006578:	e7b2      	b.n	80064e0 <_dtoa_r+0x188>
 800657a:	900d      	str	r0, [sp, #52]	; 0x34
 800657c:	e7b1      	b.n	80064e2 <_dtoa_r+0x18a>
 800657e:	f1cb 0300 	rsb	r3, fp, #0
 8006582:	9308      	str	r3, [sp, #32]
 8006584:	2300      	movs	r3, #0
 8006586:	eba8 080b 	sub.w	r8, r8, fp
 800658a:	930c      	str	r3, [sp, #48]	; 0x30
 800658c:	e7be      	b.n	800650c <_dtoa_r+0x1b4>
 800658e:	2301      	movs	r3, #1
 8006590:	9309      	str	r3, [sp, #36]	; 0x24
 8006592:	9b1f      	ldr	r3, [sp, #124]	; 0x7c
 8006594:	2b00      	cmp	r3, #0
 8006596:	f340 8080 	ble.w	800669a <_dtoa_r+0x342>
 800659a:	4699      	mov	r9, r3
 800659c:	9304      	str	r3, [sp, #16]
 800659e:	2200      	movs	r2, #0
 80065a0:	2104      	movs	r1, #4
 80065a2:	6a65      	ldr	r5, [r4, #36]	; 0x24
 80065a4:	606a      	str	r2, [r5, #4]
 80065a6:	f101 0214 	add.w	r2, r1, #20
 80065aa:	429a      	cmp	r2, r3
 80065ac:	d97a      	bls.n	80066a4 <_dtoa_r+0x34c>
 80065ae:	6869      	ldr	r1, [r5, #4]
 80065b0:	4620      	mov	r0, r4
 80065b2:	f000 fee1 	bl	8007378 <_Balloc>
 80065b6:	6a63      	ldr	r3, [r4, #36]	; 0x24
 80065b8:	6028      	str	r0, [r5, #0]
 80065ba:	681b      	ldr	r3, [r3, #0]
 80065bc:	f1b9 0f0e 	cmp.w	r9, #14
 80065c0:	9306      	str	r3, [sp, #24]
 80065c2:	f200 80f0 	bhi.w	80067a6 <_dtoa_r+0x44e>
 80065c6:	2e00      	cmp	r6, #0
 80065c8:	f000 80ed 	beq.w	80067a6 <_dtoa_r+0x44e>
 80065cc:	e9dd 2302 	ldrd	r2, r3, [sp, #8]
 80065d0:	f1bb 0f00 	cmp.w	fp, #0
 80065d4:	e9cd 230e 	strd	r2, r3, [sp, #56]	; 0x38
 80065d8:	dd79      	ble.n	80066ce <_dtoa_r+0x376>
 80065da:	4a26      	ldr	r2, [pc, #152]	; (8006674 <_dtoa_r+0x31c>)
 80065dc:	f00b 030f 	and.w	r3, fp, #15
 80065e0:	ea4f 162b 	mov.w	r6, fp, asr #4
 80065e4:	eb02 03c3 	add.w	r3, r2, r3, lsl #3
 80065e8:	06f0      	lsls	r0, r6, #27
 80065ea:	e9d3 2300 	ldrd	r2, r3, [r3]
 80065ee:	e9cd 230a 	strd	r2, r3, [sp, #40]	; 0x28
 80065f2:	d55c      	bpl.n	80066ae <_dtoa_r+0x356>
 80065f4:	e9dd 010e 	ldrd	r0, r1, [sp, #56]	; 0x38
 80065f8:	4b1f      	ldr	r3, [pc, #124]	; (8006678 <_dtoa_r+0x320>)
 80065fa:	2503      	movs	r5, #3
 80065fc:	e9d3 2308 	ldrd	r2, r3, [r3, #32]
 8006600:	f7fa f900 	bl	8000804 <__aeabi_ddiv>
 8006604:	e9cd 0102 	strd	r0, r1, [sp, #8]
 8006608:	f006 060f 	and.w	r6, r6, #15
 800660c:	4f1a      	ldr	r7, [pc, #104]	; (8006678 <_dtoa_r+0x320>)
 800660e:	2e00      	cmp	r6, #0
 8006610:	d14f      	bne.n	80066b2 <_dtoa_r+0x35a>
 8006612:	e9dd 230a 	ldrd	r2, r3, [sp, #40]	; 0x28
 8006616:	e9dd 0102 	ldrd	r0, r1, [sp, #8]
 800661a:	f7fa f8f3 	bl	8000804 <__aeabi_ddiv>
 800661e:	e9cd 0102 	strd	r0, r1, [sp, #8]
 8006622:	e06e      	b.n	8006702 <_dtoa_r+0x3aa>
 8006624:	2301      	movs	r3, #1
 8006626:	9309      	str	r3, [sp, #36]	; 0x24
 8006628:	9b1f      	ldr	r3, [sp, #124]	; 0x7c
 800662a:	445b      	add	r3, fp
 800662c:	f103 0901 	add.w	r9, r3, #1
 8006630:	9304      	str	r3, [sp, #16]
 8006632:	464b      	mov	r3, r9
 8006634:	2b01      	cmp	r3, #1
 8006636:	bfb8      	it	lt
 8006638:	2301      	movlt	r3, #1
 800663a:	e7b0      	b.n	800659e <_dtoa_r+0x246>
 800663c:	2300      	movs	r3, #0
 800663e:	e7a7      	b.n	8006590 <_dtoa_r+0x238>
 8006640:	2300      	movs	r3, #0
 8006642:	e7f0      	b.n	8006626 <_dtoa_r+0x2ce>
 8006644:	f3af 8000 	nop.w
 8006648:	636f4361 	.word	0x636f4361
 800664c:	3fd287a7 	.word	0x3fd287a7
 8006650:	8b60c8b3 	.word	0x8b60c8b3
 8006654:	3fc68a28 	.word	0x3fc68a28
 8006658:	509f79fb 	.word	0x509f79fb
 800665c:	3fd34413 	.word	0x3fd34413
 8006660:	7ff00000 	.word	0x7ff00000
 8006664:	080088d9 	.word	0x080088d9
 8006668:	080088d0 	.word	0x080088d0
 800666c:	080088af 	.word	0x080088af
 8006670:	3ff80000 	.word	0x3ff80000
 8006674:	08008908 	.word	0x08008908
 8006678:	080088e0 	.word	0x080088e0
 800667c:	2601      	movs	r6, #1
 800667e:	2300      	movs	r3, #0
 8006680:	9609      	str	r6, [sp, #36]	; 0x24
 8006682:	931e      	str	r3, [sp, #120]	; 0x78
 8006684:	f04f 33ff 	mov.w	r3, #4294967295
 8006688:	2200      	movs	r2, #0
 800668a:	9304      	str	r3, [sp, #16]
 800668c:	4699      	mov	r9, r3
 800668e:	2312      	movs	r3, #18
 8006690:	921f      	str	r2, [sp, #124]	; 0x7c
 8006692:	e784      	b.n	800659e <_dtoa_r+0x246>
 8006694:	2301      	movs	r3, #1
 8006696:	9309      	str	r3, [sp, #36]	; 0x24
 8006698:	e7f4      	b.n	8006684 <_dtoa_r+0x32c>
 800669a:	2301      	movs	r3, #1
 800669c:	9304      	str	r3, [sp, #16]
 800669e:	4699      	mov	r9, r3
 80066a0:	461a      	mov	r2, r3
 80066a2:	e7f5      	b.n	8006690 <_dtoa_r+0x338>
 80066a4:	686a      	ldr	r2, [r5, #4]
 80066a6:	0049      	lsls	r1, r1, #1
 80066a8:	3201      	adds	r2, #1
 80066aa:	606a      	str	r2, [r5, #4]
 80066ac:	e77b      	b.n	80065a6 <_dtoa_r+0x24e>
 80066ae:	2502      	movs	r5, #2
 80066b0:	e7ac      	b.n	800660c <_dtoa_r+0x2b4>
 80066b2:	07f1      	lsls	r1, r6, #31
 80066b4:	d508      	bpl.n	80066c8 <_dtoa_r+0x370>
 80066b6:	e9dd 010a 	ldrd	r0, r1, [sp, #40]	; 0x28
 80066ba:	e9d7 2300 	ldrd	r2, r3, [r7]
 80066be:	f7f9 ff77 	bl	80005b0 <__aeabi_dmul>
 80066c2:	e9cd 010a 	strd	r0, r1, [sp, #40]	; 0x28
 80066c6:	3501      	adds	r5, #1
 80066c8:	1076      	asrs	r6, r6, #1
 80066ca:	3708      	adds	r7, #8
 80066cc:	e79f      	b.n	800660e <_dtoa_r+0x2b6>
 80066ce:	f000 80a5 	beq.w	800681c <_dtoa_r+0x4c4>
 80066d2:	e9dd 010e 	ldrd	r0, r1, [sp, #56]	; 0x38
 80066d6:	f1cb 0600 	rsb	r6, fp, #0
 80066da:	4ba2      	ldr	r3, [pc, #648]	; (8006964 <_dtoa_r+0x60c>)
 80066dc:	f006 020f 	and.w	r2, r6, #15
 80066e0:	eb03 03c2 	add.w	r3, r3, r2, lsl #3
 80066e4:	e9d3 2300 	ldrd	r2, r3, [r3]
 80066e8:	f7f9 ff62 	bl	80005b0 <__aeabi_dmul>
 80066ec:	2502      	movs	r5, #2
 80066ee:	2300      	movs	r3, #0
 80066f0:	e9cd 0102 	strd	r0, r1, [sp, #8]
 80066f4:	4f9c      	ldr	r7, [pc, #624]	; (8006968 <_dtoa_r+0x610>)
 80066f6:	1136      	asrs	r6, r6, #4
 80066f8:	2e00      	cmp	r6, #0
 80066fa:	f040 8084 	bne.w	8006806 <_dtoa_r+0x4ae>
 80066fe:	2b00      	cmp	r3, #0
 8006700:	d18d      	bne.n	800661e <_dtoa_r+0x2c6>
 8006702:	9b0d      	ldr	r3, [sp, #52]	; 0x34
 8006704:	2b00      	cmp	r3, #0
 8006706:	f000 808b 	beq.w	8006820 <_dtoa_r+0x4c8>
 800670a:	e9dd 2302 	ldrd	r2, r3, [sp, #8]
 800670e:	e9cd 230a 	strd	r2, r3, [sp, #40]	; 0x28
 8006712:	e9dd 010a 	ldrd	r0, r1, [sp, #40]	; 0x28
 8006716:	2200      	movs	r2, #0
 8006718:	4b94      	ldr	r3, [pc, #592]	; (800696c <_dtoa_r+0x614>)
 800671a:	f7fa f9bb 	bl	8000a94 <__aeabi_dcmplt>
 800671e:	2800      	cmp	r0, #0
 8006720:	d07e      	beq.n	8006820 <_dtoa_r+0x4c8>
 8006722:	f1b9 0f00 	cmp.w	r9, #0
 8006726:	d07b      	beq.n	8006820 <_dtoa_r+0x4c8>
 8006728:	9b04      	ldr	r3, [sp, #16]
 800672a:	2b00      	cmp	r3, #0
 800672c:	dd37      	ble.n	800679e <_dtoa_r+0x446>
 800672e:	e9dd 010a 	ldrd	r0, r1, [sp, #40]	; 0x28
 8006732:	2200      	movs	r2, #0
 8006734:	4b8e      	ldr	r3, [pc, #568]	; (8006970 <_dtoa_r+0x618>)
 8006736:	f7f9 ff3b 	bl	80005b0 <__aeabi_dmul>
 800673a:	e9cd 0102 	strd	r0, r1, [sp, #8]
 800673e:	9e04      	ldr	r6, [sp, #16]
 8006740:	f10b 37ff 	add.w	r7, fp, #4294967295
 8006744:	3501      	adds	r5, #1
 8006746:	4628      	mov	r0, r5
 8006748:	f7f9 fecc 	bl	80004e4 <__aeabi_i2d>
 800674c:	e9dd 2302 	ldrd	r2, r3, [sp, #8]
 8006750:	f7f9 ff2e 	bl	80005b0 <__aeabi_dmul>
 8006754:	4b87      	ldr	r3, [pc, #540]	; (8006974 <_dtoa_r+0x61c>)
 8006756:	2200      	movs	r2, #0
 8006758:	f7f9 fd78 	bl	800024c <__adddf3>
 800675c:	e9cd 010a 	strd	r0, r1, [sp, #40]	; 0x28
 8006760:	9b0b      	ldr	r3, [sp, #44]	; 0x2c
 8006762:	f1a3 7550 	sub.w	r5, r3, #54525952	; 0x3400000
 8006766:	950b      	str	r5, [sp, #44]	; 0x2c
 8006768:	2e00      	cmp	r6, #0
 800676a:	d15c      	bne.n	8006826 <_dtoa_r+0x4ce>
 800676c:	e9dd 0102 	ldrd	r0, r1, [sp, #8]
 8006770:	2200      	movs	r2, #0
 8006772:	4b81      	ldr	r3, [pc, #516]	; (8006978 <_dtoa_r+0x620>)
 8006774:	f7f9 fd68 	bl	8000248 <__aeabi_dsub>
 8006778:	9a0a      	ldr	r2, [sp, #40]	; 0x28
 800677a:	462b      	mov	r3, r5
 800677c:	e9cd 0102 	strd	r0, r1, [sp, #8]
 8006780:	f7fa f9a6 	bl	8000ad0 <__aeabi_dcmpgt>
 8006784:	2800      	cmp	r0, #0
 8006786:	f040 82f7 	bne.w	8006d78 <_dtoa_r+0xa20>
 800678a:	e9dd 0102 	ldrd	r0, r1, [sp, #8]
 800678e:	9a0a      	ldr	r2, [sp, #40]	; 0x28
 8006790:	f105 4300 	add.w	r3, r5, #2147483648	; 0x80000000
 8006794:	f7fa f97e 	bl	8000a94 <__aeabi_dcmplt>
 8006798:	2800      	cmp	r0, #0
 800679a:	f040 82eb 	bne.w	8006d74 <_dtoa_r+0xa1c>
 800679e:	e9dd 230e 	ldrd	r2, r3, [sp, #56]	; 0x38
 80067a2:	e9cd 2302 	strd	r2, r3, [sp, #8]
 80067a6:	9b13      	ldr	r3, [sp, #76]	; 0x4c
 80067a8:	2b00      	cmp	r3, #0
 80067aa:	f2c0 8150 	blt.w	8006a4e <_dtoa_r+0x6f6>
 80067ae:	f1bb 0f0e 	cmp.w	fp, #14
 80067b2:	f300 814c 	bgt.w	8006a4e <_dtoa_r+0x6f6>
 80067b6:	4b6b      	ldr	r3, [pc, #428]	; (8006964 <_dtoa_r+0x60c>)
 80067b8:	eb03 03cb 	add.w	r3, r3, fp, lsl #3
 80067bc:	e9d3 2300 	ldrd	r2, r3, [r3]
 80067c0:	e9cd 2304 	strd	r2, r3, [sp, #16]
 80067c4:	9b1f      	ldr	r3, [sp, #124]	; 0x7c
 80067c6:	2b00      	cmp	r3, #0
 80067c8:	f280 80da 	bge.w	8006980 <_dtoa_r+0x628>
 80067cc:	f1b9 0f00 	cmp.w	r9, #0
 80067d0:	f300 80d6 	bgt.w	8006980 <_dtoa_r+0x628>
 80067d4:	f040 82cd 	bne.w	8006d72 <_dtoa_r+0xa1a>
 80067d8:	e9dd 0104 	ldrd	r0, r1, [sp, #16]
 80067dc:	2200      	movs	r2, #0
 80067de:	4b66      	ldr	r3, [pc, #408]	; (8006978 <_dtoa_r+0x620>)
 80067e0:	f7f9 fee6 	bl	80005b0 <__aeabi_dmul>
 80067e4:	e9dd 2302 	ldrd	r2, r3, [sp, #8]
 80067e8:	f7fa f968 	bl	8000abc <__aeabi_dcmpge>
 80067ec:	464e      	mov	r6, r9
 80067ee:	464f      	mov	r7, r9
 80067f0:	2800      	cmp	r0, #0
 80067f2:	f040 82a4 	bne.w	8006d3e <_dtoa_r+0x9e6>
 80067f6:	9b06      	ldr	r3, [sp, #24]
 80067f8:	9a06      	ldr	r2, [sp, #24]
 80067fa:	1c5d      	adds	r5, r3, #1
 80067fc:	2331      	movs	r3, #49	; 0x31
 80067fe:	f10b 0b01 	add.w	fp, fp, #1
 8006802:	7013      	strb	r3, [r2, #0]
 8006804:	e29f      	b.n	8006d46 <_dtoa_r+0x9ee>
 8006806:	07f2      	lsls	r2, r6, #31
 8006808:	d505      	bpl.n	8006816 <_dtoa_r+0x4be>
 800680a:	e9d7 2300 	ldrd	r2, r3, [r7]
 800680e:	f7f9 fecf 	bl	80005b0 <__aeabi_dmul>
 8006812:	2301      	movs	r3, #1
 8006814:	3501      	adds	r5, #1
 8006816:	1076      	asrs	r6, r6, #1
 8006818:	3708      	adds	r7, #8
 800681a:	e76d      	b.n	80066f8 <_dtoa_r+0x3a0>
 800681c:	2502      	movs	r5, #2
 800681e:	e770      	b.n	8006702 <_dtoa_r+0x3aa>
 8006820:	465f      	mov	r7, fp
 8006822:	464e      	mov	r6, r9
 8006824:	e78f      	b.n	8006746 <_dtoa_r+0x3ee>
 8006826:	9a06      	ldr	r2, [sp, #24]
 8006828:	4b4e      	ldr	r3, [pc, #312]	; (8006964 <_dtoa_r+0x60c>)
 800682a:	4432      	add	r2, r6
 800682c:	9211      	str	r2, [sp, #68]	; 0x44
 800682e:	9a09      	ldr	r2, [sp, #36]	; 0x24
 8006830:	1e71      	subs	r1, r6, #1
 8006832:	2a00      	cmp	r2, #0
 8006834:	d048      	beq.n	80068c8 <_dtoa_r+0x570>
 8006836:	eb03 03c1 	add.w	r3, r3, r1, lsl #3
 800683a:	e9d3 2300 	ldrd	r2, r3, [r3]
 800683e:	2000      	movs	r0, #0
 8006840:	494e      	ldr	r1, [pc, #312]	; (800697c <_dtoa_r+0x624>)
 8006842:	f7f9 ffdf 	bl	8000804 <__aeabi_ddiv>
 8006846:	e9dd 230a 	ldrd	r2, r3, [sp, #40]	; 0x28
 800684a:	f7f9 fcfd 	bl	8000248 <__aeabi_dsub>
 800684e:	e9cd 010a 	strd	r0, r1, [sp, #40]	; 0x28
 8006852:	9d06      	ldr	r5, [sp, #24]
 8006854:	e9dd 0102 	ldrd	r0, r1, [sp, #8]
 8006858:	f7fa f95a 	bl	8000b10 <__aeabi_d2iz>
 800685c:	4606      	mov	r6, r0
 800685e:	f7f9 fe41 	bl	80004e4 <__aeabi_i2d>
 8006862:	4602      	mov	r2, r0
 8006864:	460b      	mov	r3, r1
 8006866:	e9dd 0102 	ldrd	r0, r1, [sp, #8]
 800686a:	f7f9 fced 	bl	8000248 <__aeabi_dsub>
 800686e:	e9dd 230a 	ldrd	r2, r3, [sp, #40]	; 0x28
 8006872:	3630      	adds	r6, #48	; 0x30
 8006874:	f805 6b01 	strb.w	r6, [r5], #1
 8006878:	e9cd 0102 	strd	r0, r1, [sp, #8]
 800687c:	f7fa f90a 	bl	8000a94 <__aeabi_dcmplt>
 8006880:	2800      	cmp	r0, #0
 8006882:	d164      	bne.n	800694e <_dtoa_r+0x5f6>
 8006884:	e9dd 2302 	ldrd	r2, r3, [sp, #8]
 8006888:	2000      	movs	r0, #0
 800688a:	4938      	ldr	r1, [pc, #224]	; (800696c <_dtoa_r+0x614>)
 800688c:	f7f9 fcdc 	bl	8000248 <__aeabi_dsub>
 8006890:	e9dd 230a 	ldrd	r2, r3, [sp, #40]	; 0x28
 8006894:	f7fa f8fe 	bl	8000a94 <__aeabi_dcmplt>
 8006898:	2800      	cmp	r0, #0
 800689a:	f040 80b9 	bne.w	8006a10 <_dtoa_r+0x6b8>
 800689e:	9b11      	ldr	r3, [sp, #68]	; 0x44
 80068a0:	429d      	cmp	r5, r3
 80068a2:	f43f af7c 	beq.w	800679e <_dtoa_r+0x446>
 80068a6:	e9dd 010a 	ldrd	r0, r1, [sp, #40]	; 0x28
 80068aa:	2200      	movs	r2, #0
 80068ac:	4b30      	ldr	r3, [pc, #192]	; (8006970 <_dtoa_r+0x618>)
 80068ae:	f7f9 fe7f 	bl	80005b0 <__aeabi_dmul>
 80068b2:	2200      	movs	r2, #0
 80068b4:	e9cd 010a 	strd	r0, r1, [sp, #40]	; 0x28
 80068b8:	e9dd 0102 	ldrd	r0, r1, [sp, #8]
 80068bc:	4b2c      	ldr	r3, [pc, #176]	; (8006970 <_dtoa_r+0x618>)
 80068be:	f7f9 fe77 	bl	80005b0 <__aeabi_dmul>
 80068c2:	e9cd 0102 	strd	r0, r1, [sp, #8]
 80068c6:	e7c5      	b.n	8006854 <_dtoa_r+0x4fc>
 80068c8:	eb03 01c1 	add.w	r1, r3, r1, lsl #3
 80068cc:	e9d1 0100 	ldrd	r0, r1, [r1]
 80068d0:	e9dd 230a 	ldrd	r2, r3, [sp, #40]	; 0x28
 80068d4:	f7f9 fe6c 	bl	80005b0 <__aeabi_dmul>
 80068d8:	e9cd 010a 	strd	r0, r1, [sp, #40]	; 0x28
 80068dc:	9d06      	ldr	r5, [sp, #24]
 80068de:	e9dd 0102 	ldrd	r0, r1, [sp, #8]
 80068e2:	f7fa f915 	bl	8000b10 <__aeabi_d2iz>
 80068e6:	4606      	mov	r6, r0
 80068e8:	f7f9 fdfc 	bl	80004e4 <__aeabi_i2d>
 80068ec:	4602      	mov	r2, r0
 80068ee:	460b      	mov	r3, r1
 80068f0:	e9dd 0102 	ldrd	r0, r1, [sp, #8]
 80068f4:	f7f9 fca8 	bl	8000248 <__aeabi_dsub>
 80068f8:	3630      	adds	r6, #48	; 0x30
 80068fa:	9b11      	ldr	r3, [sp, #68]	; 0x44
 80068fc:	f805 6b01 	strb.w	r6, [r5], #1
 8006900:	42ab      	cmp	r3, r5
 8006902:	e9cd 0102 	strd	r0, r1, [sp, #8]
 8006906:	f04f 0200 	mov.w	r2, #0
 800690a:	d124      	bne.n	8006956 <_dtoa_r+0x5fe>
 800690c:	4b1b      	ldr	r3, [pc, #108]	; (800697c <_dtoa_r+0x624>)
 800690e:	e9dd 010a 	ldrd	r0, r1, [sp, #40]	; 0x28
 8006912:	f7f9 fc9b 	bl	800024c <__adddf3>
 8006916:	4602      	mov	r2, r0
 8006918:	460b      	mov	r3, r1
 800691a:	e9dd 0102 	ldrd	r0, r1, [sp, #8]
 800691e:	f7fa f8d7 	bl	8000ad0 <__aeabi_dcmpgt>
 8006922:	2800      	cmp	r0, #0
 8006924:	d174      	bne.n	8006a10 <_dtoa_r+0x6b8>
 8006926:	e9dd 230a 	ldrd	r2, r3, [sp, #40]	; 0x28
 800692a:	2000      	movs	r0, #0
 800692c:	4913      	ldr	r1, [pc, #76]	; (800697c <_dtoa_r+0x624>)
 800692e:	f7f9 fc8b 	bl	8000248 <__aeabi_dsub>
 8006932:	4602      	mov	r2, r0
 8006934:	460b      	mov	r3, r1
 8006936:	e9dd 0102 	ldrd	r0, r1, [sp, #8]
 800693a:	f7fa f8ab 	bl	8000a94 <__aeabi_dcmplt>
 800693e:	2800      	cmp	r0, #0
 8006940:	f43f af2d 	beq.w	800679e <_dtoa_r+0x446>
 8006944:	f815 3c01 	ldrb.w	r3, [r5, #-1]
 8006948:	1e6a      	subs	r2, r5, #1
 800694a:	2b30      	cmp	r3, #48	; 0x30
 800694c:	d001      	beq.n	8006952 <_dtoa_r+0x5fa>
 800694e:	46bb      	mov	fp, r7
 8006950:	e04d      	b.n	80069ee <_dtoa_r+0x696>
 8006952:	4615      	mov	r5, r2
 8006954:	e7f6      	b.n	8006944 <_dtoa_r+0x5ec>
 8006956:	4b06      	ldr	r3, [pc, #24]	; (8006970 <_dtoa_r+0x618>)
 8006958:	f7f9 fe2a 	bl	80005b0 <__aeabi_dmul>
 800695c:	e9cd 0102 	strd	r0, r1, [sp, #8]
 8006960:	e7bd      	b.n	80068de <_dtoa_r+0x586>
 8006962:	bf00      	nop
 8006964:	08008908 	.word	0x08008908
 8006968:	080088e0 	.word	0x080088e0
 800696c:	3ff00000 	.word	0x3ff00000
 8006970:	40240000 	.word	0x40240000
 8006974:	401c0000 	.word	0x401c0000
 8006978:	40140000 	.word	0x40140000
 800697c:	3fe00000 	.word	0x3fe00000
 8006980:	9d06      	ldr	r5, [sp, #24]
 8006982:	e9dd 6702 	ldrd	r6, r7, [sp, #8]
 8006986:	e9dd 2304 	ldrd	r2, r3, [sp, #16]
 800698a:	4630      	mov	r0, r6
 800698c:	4639      	mov	r1, r7
 800698e:	f7f9 ff39 	bl	8000804 <__aeabi_ddiv>
 8006992:	f7fa f8bd 	bl	8000b10 <__aeabi_d2iz>
 8006996:	4680      	mov	r8, r0
 8006998:	f7f9 fda4 	bl	80004e4 <__aeabi_i2d>
 800699c:	e9dd 2304 	ldrd	r2, r3, [sp, #16]
 80069a0:	f7f9 fe06 	bl	80005b0 <__aeabi_dmul>
 80069a4:	4602      	mov	r2, r0
 80069a6:	460b      	mov	r3, r1
 80069a8:	4630      	mov	r0, r6
 80069aa:	4639      	mov	r1, r7
 80069ac:	f7f9 fc4c 	bl	8000248 <__aeabi_dsub>
 80069b0:	f108 0630 	add.w	r6, r8, #48	; 0x30
 80069b4:	f805 6b01 	strb.w	r6, [r5], #1
 80069b8:	9e06      	ldr	r6, [sp, #24]
 80069ba:	4602      	mov	r2, r0
 80069bc:	1bae      	subs	r6, r5, r6
 80069be:	45b1      	cmp	r9, r6
 80069c0:	460b      	mov	r3, r1
 80069c2:	d137      	bne.n	8006a34 <_dtoa_r+0x6dc>
 80069c4:	f7f9 fc42 	bl	800024c <__adddf3>
 80069c8:	4606      	mov	r6, r0
 80069ca:	460f      	mov	r7, r1
 80069cc:	4602      	mov	r2, r0
 80069ce:	460b      	mov	r3, r1
 80069d0:	e9dd 0104 	ldrd	r0, r1, [sp, #16]
 80069d4:	f7fa f85e 	bl	8000a94 <__aeabi_dcmplt>
 80069d8:	b9c8      	cbnz	r0, 8006a0e <_dtoa_r+0x6b6>
 80069da:	e9dd 0104 	ldrd	r0, r1, [sp, #16]
 80069de:	4632      	mov	r2, r6
 80069e0:	463b      	mov	r3, r7
 80069e2:	f7fa f84d 	bl	8000a80 <__aeabi_dcmpeq>
 80069e6:	b110      	cbz	r0, 80069ee <_dtoa_r+0x696>
 80069e8:	f018 0f01 	tst.w	r8, #1
 80069ec:	d10f      	bne.n	8006a0e <_dtoa_r+0x6b6>
 80069ee:	4651      	mov	r1, sl
 80069f0:	4620      	mov	r0, r4
 80069f2:	f000 fcf5 	bl	80073e0 <_Bfree>
 80069f6:	2300      	movs	r3, #0
 80069f8:	9a20      	ldr	r2, [sp, #128]	; 0x80
 80069fa:	702b      	strb	r3, [r5, #0]
 80069fc:	f10b 0301 	add.w	r3, fp, #1
 8006a00:	6013      	str	r3, [r2, #0]
 8006a02:	9b22      	ldr	r3, [sp, #136]	; 0x88
 8006a04:	2b00      	cmp	r3, #0
 8006a06:	f43f acec 	beq.w	80063e2 <_dtoa_r+0x8a>
 8006a0a:	601d      	str	r5, [r3, #0]
 8006a0c:	e4e9      	b.n	80063e2 <_dtoa_r+0x8a>
 8006a0e:	465f      	mov	r7, fp
 8006a10:	f815 2c01 	ldrb.w	r2, [r5, #-1]
 8006a14:	1e6b      	subs	r3, r5, #1
 8006a16:	2a39      	cmp	r2, #57	; 0x39
 8006a18:	d106      	bne.n	8006a28 <_dtoa_r+0x6d0>
 8006a1a:	9a06      	ldr	r2, [sp, #24]
 8006a1c:	429a      	cmp	r2, r3
 8006a1e:	d107      	bne.n	8006a30 <_dtoa_r+0x6d8>
 8006a20:	2330      	movs	r3, #48	; 0x30
 8006a22:	7013      	strb	r3, [r2, #0]
 8006a24:	4613      	mov	r3, r2
 8006a26:	3701      	adds	r7, #1
 8006a28:	781a      	ldrb	r2, [r3, #0]
 8006a2a:	3201      	adds	r2, #1
 8006a2c:	701a      	strb	r2, [r3, #0]
 8006a2e:	e78e      	b.n	800694e <_dtoa_r+0x5f6>
 8006a30:	461d      	mov	r5, r3
 8006a32:	e7ed      	b.n	8006a10 <_dtoa_r+0x6b8>
 8006a34:	2200      	movs	r2, #0
 8006a36:	4bb5      	ldr	r3, [pc, #724]	; (8006d0c <_dtoa_r+0x9b4>)
 8006a38:	f7f9 fdba 	bl	80005b0 <__aeabi_dmul>
 8006a3c:	2200      	movs	r2, #0
 8006a3e:	2300      	movs	r3, #0
 8006a40:	4606      	mov	r6, r0
 8006a42:	460f      	mov	r7, r1
 8006a44:	f7fa f81c 	bl	8000a80 <__aeabi_dcmpeq>
 8006a48:	2800      	cmp	r0, #0
 8006a4a:	d09c      	beq.n	8006986 <_dtoa_r+0x62e>
 8006a4c:	e7cf      	b.n	80069ee <_dtoa_r+0x696>
 8006a4e:	9a09      	ldr	r2, [sp, #36]	; 0x24
 8006a50:	2a00      	cmp	r2, #0
 8006a52:	f000 8129 	beq.w	8006ca8 <_dtoa_r+0x950>
 8006a56:	9a1e      	ldr	r2, [sp, #120]	; 0x78
 8006a58:	2a01      	cmp	r2, #1
 8006a5a:	f300 810e 	bgt.w	8006c7a <_dtoa_r+0x922>
 8006a5e:	9a10      	ldr	r2, [sp, #64]	; 0x40
 8006a60:	2a00      	cmp	r2, #0
 8006a62:	f000 8106 	beq.w	8006c72 <_dtoa_r+0x91a>
 8006a66:	f203 4333 	addw	r3, r3, #1075	; 0x433
 8006a6a:	4645      	mov	r5, r8
 8006a6c:	9e08      	ldr	r6, [sp, #32]
 8006a6e:	9a07      	ldr	r2, [sp, #28]
 8006a70:	2101      	movs	r1, #1
 8006a72:	441a      	add	r2, r3
 8006a74:	4620      	mov	r0, r4
 8006a76:	4498      	add	r8, r3
 8006a78:	9207      	str	r2, [sp, #28]
 8006a7a:	f000 fd51 	bl	8007520 <__i2b>
 8006a7e:	4607      	mov	r7, r0
 8006a80:	2d00      	cmp	r5, #0
 8006a82:	dd0b      	ble.n	8006a9c <_dtoa_r+0x744>
 8006a84:	9b07      	ldr	r3, [sp, #28]
 8006a86:	2b00      	cmp	r3, #0
 8006a88:	dd08      	ble.n	8006a9c <_dtoa_r+0x744>
 8006a8a:	42ab      	cmp	r3, r5
 8006a8c:	bfa8      	it	ge
 8006a8e:	462b      	movge	r3, r5
 8006a90:	9a07      	ldr	r2, [sp, #28]
 8006a92:	eba8 0803 	sub.w	r8, r8, r3
 8006a96:	1aed      	subs	r5, r5, r3
 8006a98:	1ad3      	subs	r3, r2, r3
 8006a9a:	9307      	str	r3, [sp, #28]
 8006a9c:	9b08      	ldr	r3, [sp, #32]
 8006a9e:	b1fb      	cbz	r3, 8006ae0 <_dtoa_r+0x788>
 8006aa0:	9b09      	ldr	r3, [sp, #36]	; 0x24
 8006aa2:	2b00      	cmp	r3, #0
 8006aa4:	f000 8104 	beq.w	8006cb0 <_dtoa_r+0x958>
 8006aa8:	2e00      	cmp	r6, #0
 8006aaa:	dd11      	ble.n	8006ad0 <_dtoa_r+0x778>
 8006aac:	4639      	mov	r1, r7
 8006aae:	4632      	mov	r2, r6
 8006ab0:	4620      	mov	r0, r4
 8006ab2:	f000 fdcb 	bl	800764c <__pow5mult>
 8006ab6:	4652      	mov	r2, sl
 8006ab8:	4601      	mov	r1, r0
 8006aba:	4607      	mov	r7, r0
 8006abc:	4620      	mov	r0, r4
 8006abe:	f000 fd38 	bl	8007532 <__multiply>
 8006ac2:	4651      	mov	r1, sl
 8006ac4:	900a      	str	r0, [sp, #40]	; 0x28
 8006ac6:	4620      	mov	r0, r4
 8006ac8:	f000 fc8a 	bl	80073e0 <_Bfree>
 8006acc:	9b0a      	ldr	r3, [sp, #40]	; 0x28
 8006ace:	469a      	mov	sl, r3
 8006ad0:	9b08      	ldr	r3, [sp, #32]
 8006ad2:	1b9a      	subs	r2, r3, r6
 8006ad4:	d004      	beq.n	8006ae0 <_dtoa_r+0x788>
 8006ad6:	4651      	mov	r1, sl
 8006ad8:	4620      	mov	r0, r4
 8006ada:	f000 fdb7 	bl	800764c <__pow5mult>
 8006ade:	4682      	mov	sl, r0
 8006ae0:	2101      	movs	r1, #1
 8006ae2:	4620      	mov	r0, r4
 8006ae4:	f000 fd1c 	bl	8007520 <__i2b>
 8006ae8:	9b0c      	ldr	r3, [sp, #48]	; 0x30
 8006aea:	4606      	mov	r6, r0
 8006aec:	2b00      	cmp	r3, #0
 8006aee:	f340 80e1 	ble.w	8006cb4 <_dtoa_r+0x95c>
 8006af2:	461a      	mov	r2, r3
 8006af4:	4601      	mov	r1, r0
 8006af6:	4620      	mov	r0, r4
 8006af8:	f000 fda8 	bl	800764c <__pow5mult>
 8006afc:	9b1e      	ldr	r3, [sp, #120]	; 0x78
 8006afe:	4606      	mov	r6, r0
 8006b00:	2b01      	cmp	r3, #1
 8006b02:	f340 80da 	ble.w	8006cba <_dtoa_r+0x962>
 8006b06:	2300      	movs	r3, #0
 8006b08:	9308      	str	r3, [sp, #32]
 8006b0a:	6933      	ldr	r3, [r6, #16]
 8006b0c:	eb06 0383 	add.w	r3, r6, r3, lsl #2
 8006b10:	6918      	ldr	r0, [r3, #16]
 8006b12:	f000 fcb7 	bl	8007484 <__hi0bits>
 8006b16:	f1c0 0020 	rsb	r0, r0, #32
 8006b1a:	9b07      	ldr	r3, [sp, #28]
 8006b1c:	4418      	add	r0, r3
 8006b1e:	f010 001f 	ands.w	r0, r0, #31
 8006b22:	f000 80f0 	beq.w	8006d06 <_dtoa_r+0x9ae>
 8006b26:	f1c0 0320 	rsb	r3, r0, #32
 8006b2a:	2b04      	cmp	r3, #4
 8006b2c:	f340 80e2 	ble.w	8006cf4 <_dtoa_r+0x99c>
 8006b30:	9b07      	ldr	r3, [sp, #28]
 8006b32:	f1c0 001c 	rsb	r0, r0, #28
 8006b36:	4480      	add	r8, r0
 8006b38:	4405      	add	r5, r0
 8006b3a:	4403      	add	r3, r0
 8006b3c:	9307      	str	r3, [sp, #28]
 8006b3e:	f1b8 0f00 	cmp.w	r8, #0
 8006b42:	dd05      	ble.n	8006b50 <_dtoa_r+0x7f8>
 8006b44:	4651      	mov	r1, sl
 8006b46:	4642      	mov	r2, r8
 8006b48:	4620      	mov	r0, r4
 8006b4a:	f000 fdcd 	bl	80076e8 <__lshift>
 8006b4e:	4682      	mov	sl, r0
 8006b50:	9b07      	ldr	r3, [sp, #28]
 8006b52:	2b00      	cmp	r3, #0
 8006b54:	dd05      	ble.n	8006b62 <_dtoa_r+0x80a>
 8006b56:	4631      	mov	r1, r6
 8006b58:	461a      	mov	r2, r3
 8006b5a:	4620      	mov	r0, r4
 8006b5c:	f000 fdc4 	bl	80076e8 <__lshift>
 8006b60:	4606      	mov	r6, r0
 8006b62:	9b0d      	ldr	r3, [sp, #52]	; 0x34
 8006b64:	2b00      	cmp	r3, #0
 8006b66:	f000 80d3 	beq.w	8006d10 <_dtoa_r+0x9b8>
 8006b6a:	4631      	mov	r1, r6
 8006b6c:	4650      	mov	r0, sl
 8006b6e:	f000 fe0c 	bl	800778a <__mcmp>
 8006b72:	2800      	cmp	r0, #0
 8006b74:	f280 80cc 	bge.w	8006d10 <_dtoa_r+0x9b8>
 8006b78:	2300      	movs	r3, #0
 8006b7a:	4651      	mov	r1, sl
 8006b7c:	220a      	movs	r2, #10
 8006b7e:	4620      	mov	r0, r4
 8006b80:	f000 fc45 	bl	800740e <__multadd>
 8006b84:	9b09      	ldr	r3, [sp, #36]	; 0x24
 8006b86:	f10b 3bff 	add.w	fp, fp, #4294967295
 8006b8a:	4682      	mov	sl, r0
 8006b8c:	2b00      	cmp	r3, #0
 8006b8e:	f000 81a9 	beq.w	8006ee4 <_dtoa_r+0xb8c>
 8006b92:	2300      	movs	r3, #0
 8006b94:	4639      	mov	r1, r7
 8006b96:	220a      	movs	r2, #10
 8006b98:	4620      	mov	r0, r4
 8006b9a:	f000 fc38 	bl	800740e <__multadd>
 8006b9e:	9b04      	ldr	r3, [sp, #16]
 8006ba0:	4607      	mov	r7, r0
 8006ba2:	2b00      	cmp	r3, #0
 8006ba4:	dc03      	bgt.n	8006bae <_dtoa_r+0x856>
 8006ba6:	9b1e      	ldr	r3, [sp, #120]	; 0x78
 8006ba8:	2b02      	cmp	r3, #2
 8006baa:	f300 80b9 	bgt.w	8006d20 <_dtoa_r+0x9c8>
 8006bae:	2d00      	cmp	r5, #0
 8006bb0:	dd05      	ble.n	8006bbe <_dtoa_r+0x866>
 8006bb2:	4639      	mov	r1, r7
 8006bb4:	462a      	mov	r2, r5
 8006bb6:	4620      	mov	r0, r4
 8006bb8:	f000 fd96 	bl	80076e8 <__lshift>
 8006bbc:	4607      	mov	r7, r0
 8006bbe:	9b08      	ldr	r3, [sp, #32]
 8006bc0:	2b00      	cmp	r3, #0
 8006bc2:	f000 8110 	beq.w	8006de6 <_dtoa_r+0xa8e>
 8006bc6:	6879      	ldr	r1, [r7, #4]
 8006bc8:	4620      	mov	r0, r4
 8006bca:	f000 fbd5 	bl	8007378 <_Balloc>
 8006bce:	4605      	mov	r5, r0
 8006bd0:	693a      	ldr	r2, [r7, #16]
 8006bd2:	f107 010c 	add.w	r1, r7, #12
 8006bd6:	3202      	adds	r2, #2
 8006bd8:	0092      	lsls	r2, r2, #2
 8006bda:	300c      	adds	r0, #12
 8006bdc:	f7fe fb18 	bl	8005210 <memcpy>
 8006be0:	2201      	movs	r2, #1
 8006be2:	4629      	mov	r1, r5
 8006be4:	4620      	mov	r0, r4
 8006be6:	f000 fd7f 	bl	80076e8 <__lshift>
 8006bea:	9707      	str	r7, [sp, #28]
 8006bec:	4607      	mov	r7, r0
 8006bee:	9b02      	ldr	r3, [sp, #8]
 8006bf0:	f8dd 8018 	ldr.w	r8, [sp, #24]
 8006bf4:	f003 0301 	and.w	r3, r3, #1
 8006bf8:	9308      	str	r3, [sp, #32]
 8006bfa:	4631      	mov	r1, r6
 8006bfc:	4650      	mov	r0, sl
 8006bfe:	f7ff fb1f 	bl	8006240 <quorem>
 8006c02:	9907      	ldr	r1, [sp, #28]
 8006c04:	4605      	mov	r5, r0
 8006c06:	f100 0930 	add.w	r9, r0, #48	; 0x30
 8006c0a:	4650      	mov	r0, sl
 8006c0c:	f000 fdbd 	bl	800778a <__mcmp>
 8006c10:	463a      	mov	r2, r7
 8006c12:	9002      	str	r0, [sp, #8]
 8006c14:	4631      	mov	r1, r6
 8006c16:	4620      	mov	r0, r4
 8006c18:	f000 fdd1 	bl	80077be <__mdiff>
 8006c1c:	68c3      	ldr	r3, [r0, #12]
 8006c1e:	4602      	mov	r2, r0
 8006c20:	2b00      	cmp	r3, #0
 8006c22:	f040 80e2 	bne.w	8006dea <_dtoa_r+0xa92>
 8006c26:	4601      	mov	r1, r0
 8006c28:	9009      	str	r0, [sp, #36]	; 0x24
 8006c2a:	4650      	mov	r0, sl
 8006c2c:	f000 fdad 	bl	800778a <__mcmp>
 8006c30:	4603      	mov	r3, r0
 8006c32:	9a09      	ldr	r2, [sp, #36]	; 0x24
 8006c34:	4611      	mov	r1, r2
 8006c36:	4620      	mov	r0, r4
 8006c38:	9309      	str	r3, [sp, #36]	; 0x24
 8006c3a:	f000 fbd1 	bl	80073e0 <_Bfree>
 8006c3e:	9b09      	ldr	r3, [sp, #36]	; 0x24
 8006c40:	2b00      	cmp	r3, #0
 8006c42:	f040 80d4 	bne.w	8006dee <_dtoa_r+0xa96>
 8006c46:	9a1e      	ldr	r2, [sp, #120]	; 0x78
 8006c48:	2a00      	cmp	r2, #0
 8006c4a:	f040 80d0 	bne.w	8006dee <_dtoa_r+0xa96>
 8006c4e:	9a08      	ldr	r2, [sp, #32]
 8006c50:	2a00      	cmp	r2, #0
 8006c52:	f040 80cc 	bne.w	8006dee <_dtoa_r+0xa96>
 8006c56:	f1b9 0f39 	cmp.w	r9, #57	; 0x39
 8006c5a:	f000 80e8 	beq.w	8006e2e <_dtoa_r+0xad6>
 8006c5e:	9b02      	ldr	r3, [sp, #8]
 8006c60:	2b00      	cmp	r3, #0
 8006c62:	dd01      	ble.n	8006c68 <_dtoa_r+0x910>
 8006c64:	f105 0931 	add.w	r9, r5, #49	; 0x31
 8006c68:	f108 0501 	add.w	r5, r8, #1
 8006c6c:	f888 9000 	strb.w	r9, [r8]
 8006c70:	e06b      	b.n	8006d4a <_dtoa_r+0x9f2>
 8006c72:	9b12      	ldr	r3, [sp, #72]	; 0x48
 8006c74:	f1c3 0336 	rsb	r3, r3, #54	; 0x36
 8006c78:	e6f7      	b.n	8006a6a <_dtoa_r+0x712>
 8006c7a:	9b08      	ldr	r3, [sp, #32]
 8006c7c:	f109 36ff 	add.w	r6, r9, #4294967295
 8006c80:	42b3      	cmp	r3, r6
 8006c82:	bfb7      	itett	lt
 8006c84:	9b08      	ldrlt	r3, [sp, #32]
 8006c86:	1b9e      	subge	r6, r3, r6
 8006c88:	1af2      	sublt	r2, r6, r3
 8006c8a:	9b0c      	ldrlt	r3, [sp, #48]	; 0x30
 8006c8c:	bfbf      	itttt	lt
 8006c8e:	9608      	strlt	r6, [sp, #32]
 8006c90:	189b      	addlt	r3, r3, r2
 8006c92:	930c      	strlt	r3, [sp, #48]	; 0x30
 8006c94:	2600      	movlt	r6, #0
 8006c96:	f1b9 0f00 	cmp.w	r9, #0
 8006c9a:	bfb9      	ittee	lt
 8006c9c:	eba8 0509 	sublt.w	r5, r8, r9
 8006ca0:	2300      	movlt	r3, #0
 8006ca2:	4645      	movge	r5, r8
 8006ca4:	464b      	movge	r3, r9
 8006ca6:	e6e2      	b.n	8006a6e <_dtoa_r+0x716>
 8006ca8:	9e08      	ldr	r6, [sp, #32]
 8006caa:	4645      	mov	r5, r8
 8006cac:	9f09      	ldr	r7, [sp, #36]	; 0x24
 8006cae:	e6e7      	b.n	8006a80 <_dtoa_r+0x728>
 8006cb0:	9a08      	ldr	r2, [sp, #32]
 8006cb2:	e710      	b.n	8006ad6 <_dtoa_r+0x77e>
 8006cb4:	9b1e      	ldr	r3, [sp, #120]	; 0x78
 8006cb6:	2b01      	cmp	r3, #1
 8006cb8:	dc18      	bgt.n	8006cec <_dtoa_r+0x994>
 8006cba:	9b02      	ldr	r3, [sp, #8]
 8006cbc:	b9b3      	cbnz	r3, 8006cec <_dtoa_r+0x994>
 8006cbe:	9b03      	ldr	r3, [sp, #12]
 8006cc0:	f3c3 0313 	ubfx	r3, r3, #0, #20
 8006cc4:	b9a3      	cbnz	r3, 8006cf0 <_dtoa_r+0x998>
 8006cc6:	9b03      	ldr	r3, [sp, #12]
 8006cc8:	f023 4300 	bic.w	r3, r3, #2147483648	; 0x80000000
 8006ccc:	0d1b      	lsrs	r3, r3, #20
 8006cce:	051b      	lsls	r3, r3, #20
 8006cd0:	b12b      	cbz	r3, 8006cde <_dtoa_r+0x986>
 8006cd2:	9b07      	ldr	r3, [sp, #28]
 8006cd4:	f108 0801 	add.w	r8, r8, #1
 8006cd8:	3301      	adds	r3, #1
 8006cda:	9307      	str	r3, [sp, #28]
 8006cdc:	2301      	movs	r3, #1
 8006cde:	9308      	str	r3, [sp, #32]
 8006ce0:	9b0c      	ldr	r3, [sp, #48]	; 0x30
 8006ce2:	2b00      	cmp	r3, #0
 8006ce4:	f47f af11 	bne.w	8006b0a <_dtoa_r+0x7b2>
 8006ce8:	2001      	movs	r0, #1
 8006cea:	e716      	b.n	8006b1a <_dtoa_r+0x7c2>
 8006cec:	2300      	movs	r3, #0
 8006cee:	e7f6      	b.n	8006cde <_dtoa_r+0x986>
 8006cf0:	9b02      	ldr	r3, [sp, #8]
 8006cf2:	e7f4      	b.n	8006cde <_dtoa_r+0x986>
 8006cf4:	f43f af23 	beq.w	8006b3e <_dtoa_r+0x7e6>
 8006cf8:	9a07      	ldr	r2, [sp, #28]
 8006cfa:	331c      	adds	r3, #28
 8006cfc:	441a      	add	r2, r3
 8006cfe:	4498      	add	r8, r3
 8006d00:	441d      	add	r5, r3
 8006d02:	4613      	mov	r3, r2
 8006d04:	e71a      	b.n	8006b3c <_dtoa_r+0x7e4>
 8006d06:	4603      	mov	r3, r0
 8006d08:	e7f6      	b.n	8006cf8 <_dtoa_r+0x9a0>
 8006d0a:	bf00      	nop
 8006d0c:	40240000 	.word	0x40240000
 8006d10:	f1b9 0f00 	cmp.w	r9, #0
 8006d14:	dc33      	bgt.n	8006d7e <_dtoa_r+0xa26>
 8006d16:	9b1e      	ldr	r3, [sp, #120]	; 0x78
 8006d18:	2b02      	cmp	r3, #2
 8006d1a:	dd30      	ble.n	8006d7e <_dtoa_r+0xa26>
 8006d1c:	f8cd 9010 	str.w	r9, [sp, #16]
 8006d20:	9b04      	ldr	r3, [sp, #16]
 8006d22:	b963      	cbnz	r3, 8006d3e <_dtoa_r+0x9e6>
 8006d24:	4631      	mov	r1, r6
 8006d26:	2205      	movs	r2, #5
 8006d28:	4620      	mov	r0, r4
 8006d2a:	f000 fb70 	bl	800740e <__multadd>
 8006d2e:	4601      	mov	r1, r0
 8006d30:	4606      	mov	r6, r0
 8006d32:	4650      	mov	r0, sl
 8006d34:	f000 fd29 	bl	800778a <__mcmp>
 8006d38:	2800      	cmp	r0, #0
 8006d3a:	f73f ad5c 	bgt.w	80067f6 <_dtoa_r+0x49e>
 8006d3e:	9b1f      	ldr	r3, [sp, #124]	; 0x7c
 8006d40:	9d06      	ldr	r5, [sp, #24]
 8006d42:	ea6f 0b03 	mvn.w	fp, r3
 8006d46:	2300      	movs	r3, #0
 8006d48:	9307      	str	r3, [sp, #28]
 8006d4a:	4631      	mov	r1, r6
 8006d4c:	4620      	mov	r0, r4
 8006d4e:	f000 fb47 	bl	80073e0 <_Bfree>
 8006d52:	2f00      	cmp	r7, #0
 8006d54:	f43f ae4b 	beq.w	80069ee <_dtoa_r+0x696>
 8006d58:	9b07      	ldr	r3, [sp, #28]
 8006d5a:	b12b      	cbz	r3, 8006d68 <_dtoa_r+0xa10>
 8006d5c:	42bb      	cmp	r3, r7
 8006d5e:	d003      	beq.n	8006d68 <_dtoa_r+0xa10>
 8006d60:	4619      	mov	r1, r3
 8006d62:	4620      	mov	r0, r4
 8006d64:	f000 fb3c 	bl	80073e0 <_Bfree>
 8006d68:	4639      	mov	r1, r7
 8006d6a:	4620      	mov	r0, r4
 8006d6c:	f000 fb38 	bl	80073e0 <_Bfree>
 8006d70:	e63d      	b.n	80069ee <_dtoa_r+0x696>
 8006d72:	2600      	movs	r6, #0
 8006d74:	4637      	mov	r7, r6
 8006d76:	e7e2      	b.n	8006d3e <_dtoa_r+0x9e6>
 8006d78:	46bb      	mov	fp, r7
 8006d7a:	4637      	mov	r7, r6
 8006d7c:	e53b      	b.n	80067f6 <_dtoa_r+0x49e>
 8006d7e:	9b09      	ldr	r3, [sp, #36]	; 0x24
 8006d80:	f8cd 9010 	str.w	r9, [sp, #16]
 8006d84:	2b00      	cmp	r3, #0
 8006d86:	f47f af12 	bne.w	8006bae <_dtoa_r+0x856>
 8006d8a:	9d06      	ldr	r5, [sp, #24]
 8006d8c:	4631      	mov	r1, r6
 8006d8e:	4650      	mov	r0, sl
 8006d90:	f7ff fa56 	bl	8006240 <quorem>
 8006d94:	9b06      	ldr	r3, [sp, #24]
 8006d96:	f100 0930 	add.w	r9, r0, #48	; 0x30
 8006d9a:	f805 9b01 	strb.w	r9, [r5], #1
 8006d9e:	9a04      	ldr	r2, [sp, #16]
 8006da0:	1aeb      	subs	r3, r5, r3
 8006da2:	429a      	cmp	r2, r3
 8006da4:	f300 8081 	bgt.w	8006eaa <_dtoa_r+0xb52>
 8006da8:	9b06      	ldr	r3, [sp, #24]
 8006daa:	2a01      	cmp	r2, #1
 8006dac:	bfac      	ite	ge
 8006dae:	189b      	addge	r3, r3, r2
 8006db0:	3301      	addlt	r3, #1
 8006db2:	4698      	mov	r8, r3
 8006db4:	2300      	movs	r3, #0
 8006db6:	9307      	str	r3, [sp, #28]
 8006db8:	4651      	mov	r1, sl
 8006dba:	2201      	movs	r2, #1
 8006dbc:	4620      	mov	r0, r4
 8006dbe:	f000 fc93 	bl	80076e8 <__lshift>
 8006dc2:	4631      	mov	r1, r6
 8006dc4:	4682      	mov	sl, r0
 8006dc6:	f000 fce0 	bl	800778a <__mcmp>
 8006dca:	2800      	cmp	r0, #0
 8006dcc:	dc34      	bgt.n	8006e38 <_dtoa_r+0xae0>
 8006dce:	d102      	bne.n	8006dd6 <_dtoa_r+0xa7e>
 8006dd0:	f019 0f01 	tst.w	r9, #1
 8006dd4:	d130      	bne.n	8006e38 <_dtoa_r+0xae0>
 8006dd6:	4645      	mov	r5, r8
 8006dd8:	f815 3c01 	ldrb.w	r3, [r5, #-1]
 8006ddc:	1e6a      	subs	r2, r5, #1
 8006dde:	2b30      	cmp	r3, #48	; 0x30
 8006de0:	d1b3      	bne.n	8006d4a <_dtoa_r+0x9f2>
 8006de2:	4615      	mov	r5, r2
 8006de4:	e7f8      	b.n	8006dd8 <_dtoa_r+0xa80>
 8006de6:	4638      	mov	r0, r7
 8006de8:	e6ff      	b.n	8006bea <_dtoa_r+0x892>
 8006dea:	2301      	movs	r3, #1
 8006dec:	e722      	b.n	8006c34 <_dtoa_r+0x8dc>
 8006dee:	9a02      	ldr	r2, [sp, #8]
 8006df0:	2a00      	cmp	r2, #0
 8006df2:	db04      	blt.n	8006dfe <_dtoa_r+0xaa6>
 8006df4:	d128      	bne.n	8006e48 <_dtoa_r+0xaf0>
 8006df6:	9a1e      	ldr	r2, [sp, #120]	; 0x78
 8006df8:	bb32      	cbnz	r2, 8006e48 <_dtoa_r+0xaf0>
 8006dfa:	9a08      	ldr	r2, [sp, #32]
 8006dfc:	bb22      	cbnz	r2, 8006e48 <_dtoa_r+0xaf0>
 8006dfe:	2b00      	cmp	r3, #0
 8006e00:	f77f af32 	ble.w	8006c68 <_dtoa_r+0x910>
 8006e04:	4651      	mov	r1, sl
 8006e06:	2201      	movs	r2, #1
 8006e08:	4620      	mov	r0, r4
 8006e0a:	f000 fc6d 	bl	80076e8 <__lshift>
 8006e0e:	4631      	mov	r1, r6
 8006e10:	4682      	mov	sl, r0
 8006e12:	f000 fcba 	bl	800778a <__mcmp>
 8006e16:	2800      	cmp	r0, #0
 8006e18:	dc05      	bgt.n	8006e26 <_dtoa_r+0xace>
 8006e1a:	f47f af25 	bne.w	8006c68 <_dtoa_r+0x910>
 8006e1e:	f019 0f01 	tst.w	r9, #1
 8006e22:	f43f af21 	beq.w	8006c68 <_dtoa_r+0x910>
 8006e26:	f1b9 0f39 	cmp.w	r9, #57	; 0x39
 8006e2a:	f47f af1b 	bne.w	8006c64 <_dtoa_r+0x90c>
 8006e2e:	2339      	movs	r3, #57	; 0x39
 8006e30:	f108 0801 	add.w	r8, r8, #1
 8006e34:	f808 3c01 	strb.w	r3, [r8, #-1]
 8006e38:	4645      	mov	r5, r8
 8006e3a:	f815 3c01 	ldrb.w	r3, [r5, #-1]
 8006e3e:	1e6a      	subs	r2, r5, #1
 8006e40:	2b39      	cmp	r3, #57	; 0x39
 8006e42:	d03a      	beq.n	8006eba <_dtoa_r+0xb62>
 8006e44:	3301      	adds	r3, #1
 8006e46:	e03f      	b.n	8006ec8 <_dtoa_r+0xb70>
 8006e48:	2b00      	cmp	r3, #0
 8006e4a:	f108 0501 	add.w	r5, r8, #1
 8006e4e:	dd05      	ble.n	8006e5c <_dtoa_r+0xb04>
 8006e50:	f1b9 0f39 	cmp.w	r9, #57	; 0x39
 8006e54:	d0eb      	beq.n	8006e2e <_dtoa_r+0xad6>
 8006e56:	f109 0901 	add.w	r9, r9, #1
 8006e5a:	e707      	b.n	8006c6c <_dtoa_r+0x914>
 8006e5c:	9b06      	ldr	r3, [sp, #24]
 8006e5e:	9a04      	ldr	r2, [sp, #16]
 8006e60:	1aeb      	subs	r3, r5, r3
 8006e62:	4293      	cmp	r3, r2
 8006e64:	46a8      	mov	r8, r5
 8006e66:	f805 9c01 	strb.w	r9, [r5, #-1]
 8006e6a:	d0a5      	beq.n	8006db8 <_dtoa_r+0xa60>
 8006e6c:	4651      	mov	r1, sl
 8006e6e:	2300      	movs	r3, #0
 8006e70:	220a      	movs	r2, #10
 8006e72:	4620      	mov	r0, r4
 8006e74:	f000 facb 	bl	800740e <__multadd>
 8006e78:	9b07      	ldr	r3, [sp, #28]
 8006e7a:	4682      	mov	sl, r0
 8006e7c:	42bb      	cmp	r3, r7
 8006e7e:	f04f 020a 	mov.w	r2, #10
 8006e82:	f04f 0300 	mov.w	r3, #0
 8006e86:	9907      	ldr	r1, [sp, #28]
 8006e88:	4620      	mov	r0, r4
 8006e8a:	d104      	bne.n	8006e96 <_dtoa_r+0xb3e>
 8006e8c:	f000 fabf 	bl	800740e <__multadd>
 8006e90:	9007      	str	r0, [sp, #28]
 8006e92:	4607      	mov	r7, r0
 8006e94:	e6b1      	b.n	8006bfa <_dtoa_r+0x8a2>
 8006e96:	f000 faba 	bl	800740e <__multadd>
 8006e9a:	2300      	movs	r3, #0
 8006e9c:	9007      	str	r0, [sp, #28]
 8006e9e:	220a      	movs	r2, #10
 8006ea0:	4639      	mov	r1, r7
 8006ea2:	4620      	mov	r0, r4
 8006ea4:	f000 fab3 	bl	800740e <__multadd>
 8006ea8:	e7f3      	b.n	8006e92 <_dtoa_r+0xb3a>
 8006eaa:	4651      	mov	r1, sl
 8006eac:	2300      	movs	r3, #0
 8006eae:	220a      	movs	r2, #10
 8006eb0:	4620      	mov	r0, r4
 8006eb2:	f000 faac 	bl	800740e <__multadd>
 8006eb6:	4682      	mov	sl, r0
 8006eb8:	e768      	b.n	8006d8c <_dtoa_r+0xa34>
 8006eba:	9b06      	ldr	r3, [sp, #24]
 8006ebc:	4293      	cmp	r3, r2
 8006ebe:	d105      	bne.n	8006ecc <_dtoa_r+0xb74>
 8006ec0:	2331      	movs	r3, #49	; 0x31
 8006ec2:	9a06      	ldr	r2, [sp, #24]
 8006ec4:	f10b 0b01 	add.w	fp, fp, #1
 8006ec8:	7013      	strb	r3, [r2, #0]
 8006eca:	e73e      	b.n	8006d4a <_dtoa_r+0x9f2>
 8006ecc:	4615      	mov	r5, r2
 8006ece:	e7b4      	b.n	8006e3a <_dtoa_r+0xae2>
 8006ed0:	4b09      	ldr	r3, [pc, #36]	; (8006ef8 <_dtoa_r+0xba0>)
 8006ed2:	f7ff baa3 	b.w	800641c <_dtoa_r+0xc4>
 8006ed6:	9b22      	ldr	r3, [sp, #136]	; 0x88
 8006ed8:	2b00      	cmp	r3, #0
 8006eda:	f47f aa7d 	bne.w	80063d8 <_dtoa_r+0x80>
 8006ede:	4b07      	ldr	r3, [pc, #28]	; (8006efc <_dtoa_r+0xba4>)
 8006ee0:	f7ff ba9c 	b.w	800641c <_dtoa_r+0xc4>
 8006ee4:	9b04      	ldr	r3, [sp, #16]
 8006ee6:	2b00      	cmp	r3, #0
 8006ee8:	f73f af4f 	bgt.w	8006d8a <_dtoa_r+0xa32>
 8006eec:	9b1e      	ldr	r3, [sp, #120]	; 0x78
 8006eee:	2b02      	cmp	r3, #2
 8006ef0:	f77f af4b 	ble.w	8006d8a <_dtoa_r+0xa32>
 8006ef4:	e714      	b.n	8006d20 <_dtoa_r+0x9c8>
 8006ef6:	bf00      	nop
 8006ef8:	080088ae 	.word	0x080088ae
 8006efc:	080088d0 	.word	0x080088d0

08006f00 <_localeconv_r>:
 8006f00:	4b04      	ldr	r3, [pc, #16]	; (8006f14 <_localeconv_r+0x14>)
 8006f02:	681b      	ldr	r3, [r3, #0]
 8006f04:	6a18      	ldr	r0, [r3, #32]
 8006f06:	4b04      	ldr	r3, [pc, #16]	; (8006f18 <_localeconv_r+0x18>)
 8006f08:	2800      	cmp	r0, #0
 8006f0a:	bf08      	it	eq
 8006f0c:	4618      	moveq	r0, r3
 8006f0e:	30f0      	adds	r0, #240	; 0xf0
 8006f10:	4770      	bx	lr
 8006f12:	bf00      	nop
 8006f14:	200000bc 	.word	0x200000bc
 8006f18:	200005c0 	.word	0x200005c0

08006f1c <malloc>:
 8006f1c:	4b02      	ldr	r3, [pc, #8]	; (8006f28 <malloc+0xc>)
 8006f1e:	4601      	mov	r1, r0
 8006f20:	6818      	ldr	r0, [r3, #0]
 8006f22:	f000 b803 	b.w	8006f2c <_malloc_r>
 8006f26:	bf00      	nop
 8006f28:	200000bc 	.word	0x200000bc

08006f2c <_malloc_r>:
 8006f2c:	e92d 4ff7 	stmdb	sp!, {r0, r1, r2, r4, r5, r6, r7, r8, r9, sl, fp, lr}
 8006f30:	f101 040b 	add.w	r4, r1, #11
 8006f34:	2c16      	cmp	r4, #22
 8006f36:	4681      	mov	r9, r0
 8006f38:	d907      	bls.n	8006f4a <_malloc_r+0x1e>
 8006f3a:	f034 0407 	bics.w	r4, r4, #7
 8006f3e:	d505      	bpl.n	8006f4c <_malloc_r+0x20>
 8006f40:	230c      	movs	r3, #12
 8006f42:	f8c9 3000 	str.w	r3, [r9]
 8006f46:	2600      	movs	r6, #0
 8006f48:	e131      	b.n	80071ae <_malloc_r+0x282>
 8006f4a:	2410      	movs	r4, #16
 8006f4c:	428c      	cmp	r4, r1
 8006f4e:	d3f7      	bcc.n	8006f40 <_malloc_r+0x14>
 8006f50:	4648      	mov	r0, r9
 8006f52:	f000 fa05 	bl	8007360 <__malloc_lock>
 8006f56:	f5b4 7ffc 	cmp.w	r4, #504	; 0x1f8
 8006f5a:	4d9b      	ldr	r5, [pc, #620]	; (80071c8 <_malloc_r+0x29c>)
 8006f5c:	d236      	bcs.n	8006fcc <_malloc_r+0xa0>
 8006f5e:	f104 0208 	add.w	r2, r4, #8
 8006f62:	442a      	add	r2, r5
 8006f64:	6856      	ldr	r6, [r2, #4]
 8006f66:	f1a2 0108 	sub.w	r1, r2, #8
 8006f6a:	428e      	cmp	r6, r1
 8006f6c:	ea4f 03d4 	mov.w	r3, r4, lsr #3
 8006f70:	d102      	bne.n	8006f78 <_malloc_r+0x4c>
 8006f72:	68d6      	ldr	r6, [r2, #12]
 8006f74:	42b2      	cmp	r2, r6
 8006f76:	d010      	beq.n	8006f9a <_malloc_r+0x6e>
 8006f78:	6873      	ldr	r3, [r6, #4]
 8006f7a:	68f2      	ldr	r2, [r6, #12]
 8006f7c:	68b1      	ldr	r1, [r6, #8]
 8006f7e:	f023 0303 	bic.w	r3, r3, #3
 8006f82:	60ca      	str	r2, [r1, #12]
 8006f84:	4433      	add	r3, r6
 8006f86:	6091      	str	r1, [r2, #8]
 8006f88:	685a      	ldr	r2, [r3, #4]
 8006f8a:	f042 0201 	orr.w	r2, r2, #1
 8006f8e:	605a      	str	r2, [r3, #4]
 8006f90:	4648      	mov	r0, r9
 8006f92:	f000 f9eb 	bl	800736c <__malloc_unlock>
 8006f96:	3608      	adds	r6, #8
 8006f98:	e109      	b.n	80071ae <_malloc_r+0x282>
 8006f9a:	3302      	adds	r3, #2
 8006f9c:	4a8b      	ldr	r2, [pc, #556]	; (80071cc <_malloc_r+0x2a0>)
 8006f9e:	692e      	ldr	r6, [r5, #16]
 8006fa0:	4611      	mov	r1, r2
 8006fa2:	4296      	cmp	r6, r2
 8006fa4:	d06d      	beq.n	8007082 <_malloc_r+0x156>
 8006fa6:	6870      	ldr	r0, [r6, #4]
 8006fa8:	f020 0003 	bic.w	r0, r0, #3
 8006fac:	1b07      	subs	r7, r0, r4
 8006fae:	2f0f      	cmp	r7, #15
 8006fb0:	dd47      	ble.n	8007042 <_malloc_r+0x116>
 8006fb2:	1933      	adds	r3, r6, r4
 8006fb4:	f044 0401 	orr.w	r4, r4, #1
 8006fb8:	6074      	str	r4, [r6, #4]
 8006fba:	616b      	str	r3, [r5, #20]
 8006fbc:	612b      	str	r3, [r5, #16]
 8006fbe:	60da      	str	r2, [r3, #12]
 8006fc0:	609a      	str	r2, [r3, #8]
 8006fc2:	f047 0201 	orr.w	r2, r7, #1
 8006fc6:	605a      	str	r2, [r3, #4]
 8006fc8:	5037      	str	r7, [r6, r0]
 8006fca:	e7e1      	b.n	8006f90 <_malloc_r+0x64>
 8006fcc:	0a63      	lsrs	r3, r4, #9
 8006fce:	d02a      	beq.n	8007026 <_malloc_r+0xfa>
 8006fd0:	2b04      	cmp	r3, #4
 8006fd2:	d812      	bhi.n	8006ffa <_malloc_r+0xce>
 8006fd4:	09a3      	lsrs	r3, r4, #6
 8006fd6:	3338      	adds	r3, #56	; 0x38
 8006fd8:	1c5a      	adds	r2, r3, #1
 8006fda:	eb05 02c2 	add.w	r2, r5, r2, lsl #3
 8006fde:	6856      	ldr	r6, [r2, #4]
 8006fe0:	f1a2 0008 	sub.w	r0, r2, #8
 8006fe4:	4286      	cmp	r6, r0
 8006fe6:	d006      	beq.n	8006ff6 <_malloc_r+0xca>
 8006fe8:	6872      	ldr	r2, [r6, #4]
 8006fea:	f022 0203 	bic.w	r2, r2, #3
 8006fee:	1b11      	subs	r1, r2, r4
 8006ff0:	290f      	cmp	r1, #15
 8006ff2:	dd1c      	ble.n	800702e <_malloc_r+0x102>
 8006ff4:	3b01      	subs	r3, #1
 8006ff6:	3301      	adds	r3, #1
 8006ff8:	e7d0      	b.n	8006f9c <_malloc_r+0x70>
 8006ffa:	2b14      	cmp	r3, #20
 8006ffc:	d801      	bhi.n	8007002 <_malloc_r+0xd6>
 8006ffe:	335b      	adds	r3, #91	; 0x5b
 8007000:	e7ea      	b.n	8006fd8 <_malloc_r+0xac>
 8007002:	2b54      	cmp	r3, #84	; 0x54
 8007004:	d802      	bhi.n	800700c <_malloc_r+0xe0>
 8007006:	0b23      	lsrs	r3, r4, #12
 8007008:	336e      	adds	r3, #110	; 0x6e
 800700a:	e7e5      	b.n	8006fd8 <_malloc_r+0xac>
 800700c:	f5b3 7faa 	cmp.w	r3, #340	; 0x154
 8007010:	d802      	bhi.n	8007018 <_malloc_r+0xec>
 8007012:	0be3      	lsrs	r3, r4, #15
 8007014:	3377      	adds	r3, #119	; 0x77
 8007016:	e7df      	b.n	8006fd8 <_malloc_r+0xac>
 8007018:	f240 5254 	movw	r2, #1364	; 0x554
 800701c:	4293      	cmp	r3, r2
 800701e:	d804      	bhi.n	800702a <_malloc_r+0xfe>
 8007020:	0ca3      	lsrs	r3, r4, #18
 8007022:	337c      	adds	r3, #124	; 0x7c
 8007024:	e7d8      	b.n	8006fd8 <_malloc_r+0xac>
 8007026:	233f      	movs	r3, #63	; 0x3f
 8007028:	e7d6      	b.n	8006fd8 <_malloc_r+0xac>
 800702a:	237e      	movs	r3, #126	; 0x7e
 800702c:	e7d4      	b.n	8006fd8 <_malloc_r+0xac>
 800702e:	2900      	cmp	r1, #0
 8007030:	68f1      	ldr	r1, [r6, #12]
 8007032:	db04      	blt.n	800703e <_malloc_r+0x112>
 8007034:	68b3      	ldr	r3, [r6, #8]
 8007036:	60d9      	str	r1, [r3, #12]
 8007038:	608b      	str	r3, [r1, #8]
 800703a:	18b3      	adds	r3, r6, r2
 800703c:	e7a4      	b.n	8006f88 <_malloc_r+0x5c>
 800703e:	460e      	mov	r6, r1
 8007040:	e7d0      	b.n	8006fe4 <_malloc_r+0xb8>
 8007042:	2f00      	cmp	r7, #0
 8007044:	616a      	str	r2, [r5, #20]
 8007046:	612a      	str	r2, [r5, #16]
 8007048:	db05      	blt.n	8007056 <_malloc_r+0x12a>
 800704a:	4430      	add	r0, r6
 800704c:	6843      	ldr	r3, [r0, #4]
 800704e:	f043 0301 	orr.w	r3, r3, #1
 8007052:	6043      	str	r3, [r0, #4]
 8007054:	e79c      	b.n	8006f90 <_malloc_r+0x64>
 8007056:	f5b0 7f00 	cmp.w	r0, #512	; 0x200
 800705a:	d244      	bcs.n	80070e6 <_malloc_r+0x1ba>
 800705c:	2201      	movs	r2, #1
 800705e:	08c0      	lsrs	r0, r0, #3
 8007060:	1087      	asrs	r7, r0, #2
 8007062:	fa02 f707 	lsl.w	r7, r2, r7
 8007066:	686a      	ldr	r2, [r5, #4]
 8007068:	3001      	adds	r0, #1
 800706a:	433a      	orrs	r2, r7
 800706c:	606a      	str	r2, [r5, #4]
 800706e:	f855 7030 	ldr.w	r7, [r5, r0, lsl #3]
 8007072:	eb05 02c0 	add.w	r2, r5, r0, lsl #3
 8007076:	3a08      	subs	r2, #8
 8007078:	60f2      	str	r2, [r6, #12]
 800707a:	60b7      	str	r7, [r6, #8]
 800707c:	f845 6030 	str.w	r6, [r5, r0, lsl #3]
 8007080:	60fe      	str	r6, [r7, #12]
 8007082:	2001      	movs	r0, #1
 8007084:	109a      	asrs	r2, r3, #2
 8007086:	fa00 f202 	lsl.w	r2, r0, r2
 800708a:	6868      	ldr	r0, [r5, #4]
 800708c:	4282      	cmp	r2, r0
 800708e:	f200 809f 	bhi.w	80071d0 <_malloc_r+0x2a4>
 8007092:	4202      	tst	r2, r0
 8007094:	d106      	bne.n	80070a4 <_malloc_r+0x178>
 8007096:	f023 0303 	bic.w	r3, r3, #3
 800709a:	0052      	lsls	r2, r2, #1
 800709c:	4202      	tst	r2, r0
 800709e:	f103 0304 	add.w	r3, r3, #4
 80070a2:	d0fa      	beq.n	800709a <_malloc_r+0x16e>
 80070a4:	eb05 0cc3 	add.w	ip, r5, r3, lsl #3
 80070a8:	46e0      	mov	r8, ip
 80070aa:	469e      	mov	lr, r3
 80070ac:	f8d8 600c 	ldr.w	r6, [r8, #12]
 80070b0:	4546      	cmp	r6, r8
 80070b2:	d153      	bne.n	800715c <_malloc_r+0x230>
 80070b4:	f10e 0e01 	add.w	lr, lr, #1
 80070b8:	f01e 0f03 	tst.w	lr, #3
 80070bc:	f108 0808 	add.w	r8, r8, #8
 80070c0:	d1f4      	bne.n	80070ac <_malloc_r+0x180>
 80070c2:	0798      	lsls	r0, r3, #30
 80070c4:	d179      	bne.n	80071ba <_malloc_r+0x28e>
 80070c6:	686b      	ldr	r3, [r5, #4]
 80070c8:	ea23 0302 	bic.w	r3, r3, r2
 80070cc:	606b      	str	r3, [r5, #4]
 80070ce:	6868      	ldr	r0, [r5, #4]
 80070d0:	0052      	lsls	r2, r2, #1
 80070d2:	4282      	cmp	r2, r0
 80070d4:	d87c      	bhi.n	80071d0 <_malloc_r+0x2a4>
 80070d6:	2a00      	cmp	r2, #0
 80070d8:	d07a      	beq.n	80071d0 <_malloc_r+0x2a4>
 80070da:	4673      	mov	r3, lr
 80070dc:	4202      	tst	r2, r0
 80070de:	d1e1      	bne.n	80070a4 <_malloc_r+0x178>
 80070e0:	3304      	adds	r3, #4
 80070e2:	0052      	lsls	r2, r2, #1
 80070e4:	e7fa      	b.n	80070dc <_malloc_r+0x1b0>
 80070e6:	0a42      	lsrs	r2, r0, #9
 80070e8:	2a04      	cmp	r2, #4
 80070ea:	d815      	bhi.n	8007118 <_malloc_r+0x1ec>
 80070ec:	0982      	lsrs	r2, r0, #6
 80070ee:	3238      	adds	r2, #56	; 0x38
 80070f0:	1c57      	adds	r7, r2, #1
 80070f2:	f855 7037 	ldr.w	r7, [r5, r7, lsl #3]
 80070f6:	eb05 0ec2 	add.w	lr, r5, r2, lsl #3
 80070fa:	45be      	cmp	lr, r7
 80070fc:	d126      	bne.n	800714c <_malloc_r+0x220>
 80070fe:	2001      	movs	r0, #1
 8007100:	1092      	asrs	r2, r2, #2
 8007102:	fa00 f202 	lsl.w	r2, r0, r2
 8007106:	6868      	ldr	r0, [r5, #4]
 8007108:	4310      	orrs	r0, r2
 800710a:	6068      	str	r0, [r5, #4]
 800710c:	f8c6 e00c 	str.w	lr, [r6, #12]
 8007110:	60b7      	str	r7, [r6, #8]
 8007112:	f8ce 6008 	str.w	r6, [lr, #8]
 8007116:	e7b3      	b.n	8007080 <_malloc_r+0x154>
 8007118:	2a14      	cmp	r2, #20
 800711a:	d801      	bhi.n	8007120 <_malloc_r+0x1f4>
 800711c:	325b      	adds	r2, #91	; 0x5b
 800711e:	e7e7      	b.n	80070f0 <_malloc_r+0x1c4>
 8007120:	2a54      	cmp	r2, #84	; 0x54
 8007122:	d802      	bhi.n	800712a <_malloc_r+0x1fe>
 8007124:	0b02      	lsrs	r2, r0, #12
 8007126:	326e      	adds	r2, #110	; 0x6e
 8007128:	e7e2      	b.n	80070f0 <_malloc_r+0x1c4>
 800712a:	f5b2 7faa 	cmp.w	r2, #340	; 0x154
 800712e:	d802      	bhi.n	8007136 <_malloc_r+0x20a>
 8007130:	0bc2      	lsrs	r2, r0, #15
 8007132:	3277      	adds	r2, #119	; 0x77
 8007134:	e7dc      	b.n	80070f0 <_malloc_r+0x1c4>
 8007136:	f240 5754 	movw	r7, #1364	; 0x554
 800713a:	42ba      	cmp	r2, r7
 800713c:	bf9a      	itte	ls
 800713e:	0c82      	lsrls	r2, r0, #18
 8007140:	327c      	addls	r2, #124	; 0x7c
 8007142:	227e      	movhi	r2, #126	; 0x7e
 8007144:	e7d4      	b.n	80070f0 <_malloc_r+0x1c4>
 8007146:	68bf      	ldr	r7, [r7, #8]
 8007148:	45be      	cmp	lr, r7
 800714a:	d004      	beq.n	8007156 <_malloc_r+0x22a>
 800714c:	687a      	ldr	r2, [r7, #4]
 800714e:	f022 0203 	bic.w	r2, r2, #3
 8007152:	4290      	cmp	r0, r2
 8007154:	d3f7      	bcc.n	8007146 <_malloc_r+0x21a>
 8007156:	f8d7 e00c 	ldr.w	lr, [r7, #12]
 800715a:	e7d7      	b.n	800710c <_malloc_r+0x1e0>
 800715c:	6870      	ldr	r0, [r6, #4]
 800715e:	68f7      	ldr	r7, [r6, #12]
 8007160:	f020 0003 	bic.w	r0, r0, #3
 8007164:	eba0 0a04 	sub.w	sl, r0, r4
 8007168:	f1ba 0f0f 	cmp.w	sl, #15
 800716c:	dd10      	ble.n	8007190 <_malloc_r+0x264>
 800716e:	68b2      	ldr	r2, [r6, #8]
 8007170:	1933      	adds	r3, r6, r4
 8007172:	f044 0401 	orr.w	r4, r4, #1
 8007176:	6074      	str	r4, [r6, #4]
 8007178:	60d7      	str	r7, [r2, #12]
 800717a:	60ba      	str	r2, [r7, #8]
 800717c:	f04a 0201 	orr.w	r2, sl, #1
 8007180:	616b      	str	r3, [r5, #20]
 8007182:	612b      	str	r3, [r5, #16]
 8007184:	60d9      	str	r1, [r3, #12]
 8007186:	6099      	str	r1, [r3, #8]
 8007188:	605a      	str	r2, [r3, #4]
 800718a:	f846 a000 	str.w	sl, [r6, r0]
 800718e:	e6ff      	b.n	8006f90 <_malloc_r+0x64>
 8007190:	f1ba 0f00 	cmp.w	sl, #0
 8007194:	db0f      	blt.n	80071b6 <_malloc_r+0x28a>
 8007196:	4430      	add	r0, r6
 8007198:	6843      	ldr	r3, [r0, #4]
 800719a:	f043 0301 	orr.w	r3, r3, #1
 800719e:	6043      	str	r3, [r0, #4]
 80071a0:	f856 3f08 	ldr.w	r3, [r6, #8]!
 80071a4:	4648      	mov	r0, r9
 80071a6:	60df      	str	r7, [r3, #12]
 80071a8:	60bb      	str	r3, [r7, #8]
 80071aa:	f000 f8df 	bl	800736c <__malloc_unlock>
 80071ae:	4630      	mov	r0, r6
 80071b0:	b003      	add	sp, #12
 80071b2:	e8bd 8ff0 	ldmia.w	sp!, {r4, r5, r6, r7, r8, r9, sl, fp, pc}
 80071b6:	463e      	mov	r6, r7
 80071b8:	e77a      	b.n	80070b0 <_malloc_r+0x184>
 80071ba:	f85c 0908 	ldr.w	r0, [ip], #-8
 80071be:	3b01      	subs	r3, #1
 80071c0:	4584      	cmp	ip, r0
 80071c2:	f43f af7e 	beq.w	80070c2 <_malloc_r+0x196>
 80071c6:	e782      	b.n	80070ce <_malloc_r+0x1a2>
 80071c8:	200001b0 	.word	0x200001b0
 80071cc:	200001b8 	.word	0x200001b8
 80071d0:	f8d5 b008 	ldr.w	fp, [r5, #8]
 80071d4:	f8db 6004 	ldr.w	r6, [fp, #4]
 80071d8:	f026 0603 	bic.w	r6, r6, #3
 80071dc:	42b4      	cmp	r4, r6
 80071de:	d803      	bhi.n	80071e8 <_malloc_r+0x2bc>
 80071e0:	1b33      	subs	r3, r6, r4
 80071e2:	2b0f      	cmp	r3, #15
 80071e4:	f300 8095 	bgt.w	8007312 <_malloc_r+0x3e6>
 80071e8:	4a4f      	ldr	r2, [pc, #316]	; (8007328 <_malloc_r+0x3fc>)
 80071ea:	eb0b 0306 	add.w	r3, fp, r6
 80071ee:	6817      	ldr	r7, [r2, #0]
 80071f0:	4a4e      	ldr	r2, [pc, #312]	; (800732c <_malloc_r+0x400>)
 80071f2:	3710      	adds	r7, #16
 80071f4:	6811      	ldr	r1, [r2, #0]
 80071f6:	4427      	add	r7, r4
 80071f8:	3101      	adds	r1, #1
 80071fa:	d005      	beq.n	8007208 <_malloc_r+0x2dc>
 80071fc:	494c      	ldr	r1, [pc, #304]	; (8007330 <_malloc_r+0x404>)
 80071fe:	3901      	subs	r1, #1
 8007200:	440f      	add	r7, r1
 8007202:	3101      	adds	r1, #1
 8007204:	4249      	negs	r1, r1
 8007206:	400f      	ands	r7, r1
 8007208:	4639      	mov	r1, r7
 800720a:	4648      	mov	r0, r9
 800720c:	9201      	str	r2, [sp, #4]
 800720e:	9300      	str	r3, [sp, #0]
 8007210:	f000 fb84 	bl	800791c <_sbrk_r>
 8007214:	f1b0 3fff 	cmp.w	r0, #4294967295
 8007218:	4680      	mov	r8, r0
 800721a:	d055      	beq.n	80072c8 <_malloc_r+0x39c>
 800721c:	9b00      	ldr	r3, [sp, #0]
 800721e:	9a01      	ldr	r2, [sp, #4]
 8007220:	4283      	cmp	r3, r0
 8007222:	d901      	bls.n	8007228 <_malloc_r+0x2fc>
 8007224:	45ab      	cmp	fp, r5
 8007226:	d14f      	bne.n	80072c8 <_malloc_r+0x39c>
 8007228:	4842      	ldr	r0, [pc, #264]	; (8007334 <_malloc_r+0x408>)
 800722a:	4543      	cmp	r3, r8
 800722c:	6801      	ldr	r1, [r0, #0]
 800722e:	4682      	mov	sl, r0
 8007230:	eb07 0e01 	add.w	lr, r7, r1
 8007234:	f8c0 e000 	str.w	lr, [r0]
 8007238:	493f      	ldr	r1, [pc, #252]	; (8007338 <_malloc_r+0x40c>)
 800723a:	d113      	bne.n	8007264 <_malloc_r+0x338>
 800723c:	420b      	tst	r3, r1
 800723e:	d111      	bne.n	8007264 <_malloc_r+0x338>
 8007240:	68ab      	ldr	r3, [r5, #8]
 8007242:	443e      	add	r6, r7
 8007244:	f046 0601 	orr.w	r6, r6, #1
 8007248:	605e      	str	r6, [r3, #4]
 800724a:	4a3c      	ldr	r2, [pc, #240]	; (800733c <_malloc_r+0x410>)
 800724c:	f8da 3000 	ldr.w	r3, [sl]
 8007250:	6811      	ldr	r1, [r2, #0]
 8007252:	428b      	cmp	r3, r1
 8007254:	bf88      	it	hi
 8007256:	6013      	strhi	r3, [r2, #0]
 8007258:	4a39      	ldr	r2, [pc, #228]	; (8007340 <_malloc_r+0x414>)
 800725a:	6811      	ldr	r1, [r2, #0]
 800725c:	428b      	cmp	r3, r1
 800725e:	bf88      	it	hi
 8007260:	6013      	strhi	r3, [r2, #0]
 8007262:	e031      	b.n	80072c8 <_malloc_r+0x39c>
 8007264:	6810      	ldr	r0, [r2, #0]
 8007266:	3001      	adds	r0, #1
 8007268:	bf1b      	ittet	ne
 800726a:	eba8 0303 	subne.w	r3, r8, r3
 800726e:	4473      	addne	r3, lr
 8007270:	f8c2 8000 	streq.w	r8, [r2]
 8007274:	f8ca 3000 	strne.w	r3, [sl]
 8007278:	f018 0007 	ands.w	r0, r8, #7
 800727c:	bf1c      	itt	ne
 800727e:	f1c0 0008 	rsbne	r0, r0, #8
 8007282:	4480      	addne	r8, r0
 8007284:	4b2a      	ldr	r3, [pc, #168]	; (8007330 <_malloc_r+0x404>)
 8007286:	4447      	add	r7, r8
 8007288:	4418      	add	r0, r3
 800728a:	400f      	ands	r7, r1
 800728c:	1bc7      	subs	r7, r0, r7
 800728e:	4639      	mov	r1, r7
 8007290:	4648      	mov	r0, r9
 8007292:	f000 fb43 	bl	800791c <_sbrk_r>
 8007296:	1c43      	adds	r3, r0, #1
 8007298:	bf04      	itt	eq
 800729a:	4640      	moveq	r0, r8
 800729c:	2700      	moveq	r7, #0
 800729e:	f8da 3000 	ldr.w	r3, [sl]
 80072a2:	eba0 0008 	sub.w	r0, r0, r8
 80072a6:	443b      	add	r3, r7
 80072a8:	4407      	add	r7, r0
 80072aa:	f047 0701 	orr.w	r7, r7, #1
 80072ae:	45ab      	cmp	fp, r5
 80072b0:	f8c5 8008 	str.w	r8, [r5, #8]
 80072b4:	f8ca 3000 	str.w	r3, [sl]
 80072b8:	f8c8 7004 	str.w	r7, [r8, #4]
 80072bc:	d0c5      	beq.n	800724a <_malloc_r+0x31e>
 80072be:	2e0f      	cmp	r6, #15
 80072c0:	d810      	bhi.n	80072e4 <_malloc_r+0x3b8>
 80072c2:	2301      	movs	r3, #1
 80072c4:	f8c8 3004 	str.w	r3, [r8, #4]
 80072c8:	68ab      	ldr	r3, [r5, #8]
 80072ca:	685a      	ldr	r2, [r3, #4]
 80072cc:	f022 0203 	bic.w	r2, r2, #3
 80072d0:	4294      	cmp	r4, r2
 80072d2:	eba2 0304 	sub.w	r3, r2, r4
 80072d6:	d801      	bhi.n	80072dc <_malloc_r+0x3b0>
 80072d8:	2b0f      	cmp	r3, #15
 80072da:	dc1a      	bgt.n	8007312 <_malloc_r+0x3e6>
 80072dc:	4648      	mov	r0, r9
 80072de:	f000 f845 	bl	800736c <__malloc_unlock>
 80072e2:	e630      	b.n	8006f46 <_malloc_r+0x1a>
 80072e4:	2205      	movs	r2, #5
 80072e6:	f8db 3004 	ldr.w	r3, [fp, #4]
 80072ea:	3e0c      	subs	r6, #12
 80072ec:	f026 0607 	bic.w	r6, r6, #7
 80072f0:	f003 0301 	and.w	r3, r3, #1
 80072f4:	4333      	orrs	r3, r6
 80072f6:	f8cb 3004 	str.w	r3, [fp, #4]
 80072fa:	2e0f      	cmp	r6, #15
 80072fc:	eb0b 0306 	add.w	r3, fp, r6
 8007300:	605a      	str	r2, [r3, #4]
 8007302:	609a      	str	r2, [r3, #8]
 8007304:	d9a1      	bls.n	800724a <_malloc_r+0x31e>
 8007306:	f10b 0108 	add.w	r1, fp, #8
 800730a:	4648      	mov	r0, r9
 800730c:	f000 fc14 	bl	8007b38 <_free_r>
 8007310:	e79b      	b.n	800724a <_malloc_r+0x31e>
 8007312:	68ae      	ldr	r6, [r5, #8]
 8007314:	f044 0201 	orr.w	r2, r4, #1
 8007318:	f043 0301 	orr.w	r3, r3, #1
 800731c:	4434      	add	r4, r6
 800731e:	6072      	str	r2, [r6, #4]
 8007320:	60ac      	str	r4, [r5, #8]
 8007322:	6063      	str	r3, [r4, #4]
 8007324:	e634      	b.n	8006f90 <_malloc_r+0x64>
 8007326:	bf00      	nop
 8007328:	200044f4 	.word	0x200044f4
 800732c:	200005b8 	.word	0x200005b8
 8007330:	00000080 	.word	0x00000080
 8007334:	200044c4 	.word	0x200044c4
 8007338:	0000007f 	.word	0x0000007f
 800733c:	200044ec 	.word	0x200044ec
 8007340:	200044f0 	.word	0x200044f0

08007344 <memchr>:
 8007344:	b510      	push	{r4, lr}
 8007346:	b2c9      	uxtb	r1, r1
 8007348:	4402      	add	r2, r0
 800734a:	4290      	cmp	r0, r2
 800734c:	4603      	mov	r3, r0
 800734e:	d101      	bne.n	8007354 <memchr+0x10>
 8007350:	2000      	movs	r0, #0
 8007352:	bd10      	pop	{r4, pc}
 8007354:	781c      	ldrb	r4, [r3, #0]
 8007356:	3001      	adds	r0, #1
 8007358:	428c      	cmp	r4, r1
 800735a:	d1f6      	bne.n	800734a <memchr+0x6>
 800735c:	4618      	mov	r0, r3
 800735e:	bd10      	pop	{r4, pc}

08007360 <__malloc_lock>:
 8007360:	4801      	ldr	r0, [pc, #4]	; (8007368 <__malloc_lock+0x8>)
 8007362:	f000 bca5 	b.w	8007cb0 <__retarget_lock_acquire_recursive>
 8007366:	bf00      	nop
 8007368:	20004664 	.word	0x20004664

0800736c <__malloc_unlock>:
 800736c:	4801      	ldr	r0, [pc, #4]	; (8007374 <__malloc_unlock+0x8>)
 800736e:	f000 bca0 	b.w	8007cb2 <__retarget_lock_release_recursive>
 8007372:	bf00      	nop
 8007374:	20004664 	.word	0x20004664

08007378 <_Balloc>:
 8007378:	b570      	push	{r4, r5, r6, lr}
 800737a:	6a45      	ldr	r5, [r0, #36]	; 0x24
 800737c:	4604      	mov	r4, r0
 800737e:	460e      	mov	r6, r1
 8007380:	b93d      	cbnz	r5, 8007392 <_Balloc+0x1a>
 8007382:	2010      	movs	r0, #16
 8007384:	f7ff fdca 	bl	8006f1c <malloc>
 8007388:	6260      	str	r0, [r4, #36]	; 0x24
 800738a:	6045      	str	r5, [r0, #4]
 800738c:	6085      	str	r5, [r0, #8]
 800738e:	6005      	str	r5, [r0, #0]
 8007390:	60c5      	str	r5, [r0, #12]
 8007392:	6a65      	ldr	r5, [r4, #36]	; 0x24
 8007394:	68eb      	ldr	r3, [r5, #12]
 8007396:	b183      	cbz	r3, 80073ba <_Balloc+0x42>
 8007398:	6a63      	ldr	r3, [r4, #36]	; 0x24
 800739a:	68db      	ldr	r3, [r3, #12]
 800739c:	f853 0026 	ldr.w	r0, [r3, r6, lsl #2]
 80073a0:	b9b8      	cbnz	r0, 80073d2 <_Balloc+0x5a>
 80073a2:	2101      	movs	r1, #1
 80073a4:	fa01 f506 	lsl.w	r5, r1, r6
 80073a8:	1d6a      	adds	r2, r5, #5
 80073aa:	0092      	lsls	r2, r2, #2
 80073ac:	4620      	mov	r0, r4
 80073ae:	f000 fb3f 	bl	8007a30 <_calloc_r>
 80073b2:	b160      	cbz	r0, 80073ce <_Balloc+0x56>
 80073b4:	6046      	str	r6, [r0, #4]
 80073b6:	6085      	str	r5, [r0, #8]
 80073b8:	e00e      	b.n	80073d8 <_Balloc+0x60>
 80073ba:	2221      	movs	r2, #33	; 0x21
 80073bc:	2104      	movs	r1, #4
 80073be:	4620      	mov	r0, r4
 80073c0:	f000 fb36 	bl	8007a30 <_calloc_r>
 80073c4:	6a63      	ldr	r3, [r4, #36]	; 0x24
 80073c6:	60e8      	str	r0, [r5, #12]
 80073c8:	68db      	ldr	r3, [r3, #12]
 80073ca:	2b00      	cmp	r3, #0
 80073cc:	d1e4      	bne.n	8007398 <_Balloc+0x20>
 80073ce:	2000      	movs	r0, #0
 80073d0:	bd70      	pop	{r4, r5, r6, pc}
 80073d2:	6802      	ldr	r2, [r0, #0]
 80073d4:	f843 2026 	str.w	r2, [r3, r6, lsl #2]
 80073d8:	2300      	movs	r3, #0
 80073da:	6103      	str	r3, [r0, #16]
 80073dc:	60c3      	str	r3, [r0, #12]
 80073de:	bd70      	pop	{r4, r5, r6, pc}

080073e0 <_Bfree>:
 80073e0:	b570      	push	{r4, r5, r6, lr}
 80073e2:	6a44      	ldr	r4, [r0, #36]	; 0x24
 80073e4:	4606      	mov	r6, r0
 80073e6:	460d      	mov	r5, r1
 80073e8:	b93c      	cbnz	r4, 80073fa <_Bfree+0x1a>
 80073ea:	2010      	movs	r0, #16
 80073ec:	f7ff fd96 	bl	8006f1c <malloc>
 80073f0:	6270      	str	r0, [r6, #36]	; 0x24
 80073f2:	6044      	str	r4, [r0, #4]
 80073f4:	6084      	str	r4, [r0, #8]
 80073f6:	6004      	str	r4, [r0, #0]
 80073f8:	60c4      	str	r4, [r0, #12]
 80073fa:	b13d      	cbz	r5, 800740c <_Bfree+0x2c>
 80073fc:	6a73      	ldr	r3, [r6, #36]	; 0x24
 80073fe:	686a      	ldr	r2, [r5, #4]
 8007400:	68db      	ldr	r3, [r3, #12]
 8007402:	f853 1022 	ldr.w	r1, [r3, r2, lsl #2]
 8007406:	6029      	str	r1, [r5, #0]
 8007408:	f843 5022 	str.w	r5, [r3, r2, lsl #2]
 800740c:	bd70      	pop	{r4, r5, r6, pc}

0800740e <__multadd>:
 800740e:	e92d 41f0 	stmdb	sp!, {r4, r5, r6, r7, r8, lr}
 8007412:	461f      	mov	r7, r3
 8007414:	4606      	mov	r6, r0
 8007416:	460c      	mov	r4, r1
 8007418:	2300      	movs	r3, #0
 800741a:	690d      	ldr	r5, [r1, #16]
 800741c:	f101 0e14 	add.w	lr, r1, #20
 8007420:	f8de 0000 	ldr.w	r0, [lr]
 8007424:	3301      	adds	r3, #1
 8007426:	b281      	uxth	r1, r0
 8007428:	fb02 7101 	mla	r1, r2, r1, r7
 800742c:	0c00      	lsrs	r0, r0, #16
 800742e:	0c0f      	lsrs	r7, r1, #16
 8007430:	fb02 7000 	mla	r0, r2, r0, r7
 8007434:	b289      	uxth	r1, r1
 8007436:	eb01 4100 	add.w	r1, r1, r0, lsl #16
 800743a:	429d      	cmp	r5, r3
 800743c:	ea4f 4710 	mov.w	r7, r0, lsr #16
 8007440:	f84e 1b04 	str.w	r1, [lr], #4
 8007444:	dcec      	bgt.n	8007420 <__multadd+0x12>
 8007446:	b1d7      	cbz	r7, 800747e <__multadd+0x70>
 8007448:	68a3      	ldr	r3, [r4, #8]
 800744a:	429d      	cmp	r5, r3
 800744c:	db12      	blt.n	8007474 <__multadd+0x66>
 800744e:	6861      	ldr	r1, [r4, #4]
 8007450:	4630      	mov	r0, r6
 8007452:	3101      	adds	r1, #1
 8007454:	f7ff ff90 	bl	8007378 <_Balloc>
 8007458:	4680      	mov	r8, r0
 800745a:	6922      	ldr	r2, [r4, #16]
 800745c:	f104 010c 	add.w	r1, r4, #12
 8007460:	3202      	adds	r2, #2
 8007462:	0092      	lsls	r2, r2, #2
 8007464:	300c      	adds	r0, #12
 8007466:	f7fd fed3 	bl	8005210 <memcpy>
 800746a:	4621      	mov	r1, r4
 800746c:	4630      	mov	r0, r6
 800746e:	f7ff ffb7 	bl	80073e0 <_Bfree>
 8007472:	4644      	mov	r4, r8
 8007474:	eb04 0385 	add.w	r3, r4, r5, lsl #2
 8007478:	3501      	adds	r5, #1
 800747a:	615f      	str	r7, [r3, #20]
 800747c:	6125      	str	r5, [r4, #16]
 800747e:	4620      	mov	r0, r4
 8007480:	e8bd 81f0 	ldmia.w	sp!, {r4, r5, r6, r7, r8, pc}

08007484 <__hi0bits>:
 8007484:	0c02      	lsrs	r2, r0, #16
 8007486:	0412      	lsls	r2, r2, #16
 8007488:	4603      	mov	r3, r0
 800748a:	b9b2      	cbnz	r2, 80074ba <__hi0bits+0x36>
 800748c:	0403      	lsls	r3, r0, #16
 800748e:	2010      	movs	r0, #16
 8007490:	f013 4f7f 	tst.w	r3, #4278190080	; 0xff000000
 8007494:	bf04      	itt	eq
 8007496:	021b      	lsleq	r3, r3, #8
 8007498:	3008      	addeq	r0, #8
 800749a:	f013 4f70 	tst.w	r3, #4026531840	; 0xf0000000
 800749e:	bf04      	itt	eq
 80074a0:	011b      	lsleq	r3, r3, #4
 80074a2:	3004      	addeq	r0, #4
 80074a4:	f013 4f40 	tst.w	r3, #3221225472	; 0xc0000000
 80074a8:	bf04      	itt	eq
 80074aa:	009b      	lsleq	r3, r3, #2
 80074ac:	3002      	addeq	r0, #2
 80074ae:	2b00      	cmp	r3, #0
 80074b0:	db06      	blt.n	80074c0 <__hi0bits+0x3c>
 80074b2:	005b      	lsls	r3, r3, #1
 80074b4:	d503      	bpl.n	80074be <__hi0bits+0x3a>
 80074b6:	3001      	adds	r0, #1
 80074b8:	4770      	bx	lr
 80074ba:	2000      	movs	r0, #0
 80074bc:	e7e8      	b.n	8007490 <__hi0bits+0xc>
 80074be:	2020      	movs	r0, #32
 80074c0:	4770      	bx	lr

080074c2 <__lo0bits>:
 80074c2:	6803      	ldr	r3, [r0, #0]
 80074c4:	4601      	mov	r1, r0
 80074c6:	f013 0207 	ands.w	r2, r3, #7
 80074ca:	d00b      	beq.n	80074e4 <__lo0bits+0x22>
 80074cc:	07da      	lsls	r2, r3, #31
 80074ce:	d423      	bmi.n	8007518 <__lo0bits+0x56>
 80074d0:	0798      	lsls	r0, r3, #30
 80074d2:	bf49      	itett	mi
 80074d4:	085b      	lsrmi	r3, r3, #1
 80074d6:	089b      	lsrpl	r3, r3, #2
 80074d8:	2001      	movmi	r0, #1
 80074da:	600b      	strmi	r3, [r1, #0]
 80074dc:	bf5c      	itt	pl
 80074de:	600b      	strpl	r3, [r1, #0]
 80074e0:	2002      	movpl	r0, #2
 80074e2:	4770      	bx	lr
 80074e4:	b298      	uxth	r0, r3
 80074e6:	b9a8      	cbnz	r0, 8007514 <__lo0bits+0x52>
 80074e8:	2010      	movs	r0, #16
 80074ea:	0c1b      	lsrs	r3, r3, #16
 80074ec:	f013 0fff 	tst.w	r3, #255	; 0xff
 80074f0:	bf04      	itt	eq
 80074f2:	0a1b      	lsreq	r3, r3, #8
 80074f4:	3008      	addeq	r0, #8
 80074f6:	071a      	lsls	r2, r3, #28
 80074f8:	bf04      	itt	eq
 80074fa:	091b      	lsreq	r3, r3, #4
 80074fc:	3004      	addeq	r0, #4
 80074fe:	079a      	lsls	r2, r3, #30
 8007500:	bf04      	itt	eq
 8007502:	089b      	lsreq	r3, r3, #2
 8007504:	3002      	addeq	r0, #2
 8007506:	07da      	lsls	r2, r3, #31
 8007508:	d402      	bmi.n	8007510 <__lo0bits+0x4e>
 800750a:	085b      	lsrs	r3, r3, #1
 800750c:	d006      	beq.n	800751c <__lo0bits+0x5a>
 800750e:	3001      	adds	r0, #1
 8007510:	600b      	str	r3, [r1, #0]
 8007512:	4770      	bx	lr
 8007514:	4610      	mov	r0, r2
 8007516:	e7e9      	b.n	80074ec <__lo0bits+0x2a>
 8007518:	2000      	movs	r0, #0
 800751a:	4770      	bx	lr
 800751c:	2020      	movs	r0, #32
 800751e:	4770      	bx	lr

08007520 <__i2b>:
 8007520:	b510      	push	{r4, lr}
 8007522:	460c      	mov	r4, r1
 8007524:	2101      	movs	r1, #1
 8007526:	f7ff ff27 	bl	8007378 <_Balloc>
 800752a:	2201      	movs	r2, #1
 800752c:	6144      	str	r4, [r0, #20]
 800752e:	6102      	str	r2, [r0, #16]
 8007530:	bd10      	pop	{r4, pc}

08007532 <__multiply>:
 8007532:	e92d 4ff7 	stmdb	sp!, {r0, r1, r2, r4, r5, r6, r7, r8, r9, sl, fp, lr}
 8007536:	4614      	mov	r4, r2
 8007538:	690a      	ldr	r2, [r1, #16]
 800753a:	6923      	ldr	r3, [r4, #16]
 800753c:	4689      	mov	r9, r1
 800753e:	429a      	cmp	r2, r3
 8007540:	bfbe      	ittt	lt
 8007542:	460b      	movlt	r3, r1
 8007544:	46a1      	movlt	r9, r4
 8007546:	461c      	movlt	r4, r3
 8007548:	f8d9 7010 	ldr.w	r7, [r9, #16]
 800754c:	f8d4 a010 	ldr.w	sl, [r4, #16]
 8007550:	f8d9 3008 	ldr.w	r3, [r9, #8]
 8007554:	f8d9 1004 	ldr.w	r1, [r9, #4]
 8007558:	eb07 060a 	add.w	r6, r7, sl
 800755c:	429e      	cmp	r6, r3
 800755e:	bfc8      	it	gt
 8007560:	3101      	addgt	r1, #1
 8007562:	f7ff ff09 	bl	8007378 <_Balloc>
 8007566:	f100 0514 	add.w	r5, r0, #20
 800756a:	462b      	mov	r3, r5
 800756c:	2200      	movs	r2, #0
 800756e:	eb05 0886 	add.w	r8, r5, r6, lsl #2
 8007572:	4543      	cmp	r3, r8
 8007574:	d316      	bcc.n	80075a4 <__multiply+0x72>
 8007576:	f104 0214 	add.w	r2, r4, #20
 800757a:	f109 0114 	add.w	r1, r9, #20
 800757e:	eb02 038a 	add.w	r3, r2, sl, lsl #2
 8007582:	eb01 0787 	add.w	r7, r1, r7, lsl #2
 8007586:	9301      	str	r3, [sp, #4]
 8007588:	9c01      	ldr	r4, [sp, #4]
 800758a:	4613      	mov	r3, r2
 800758c:	4294      	cmp	r4, r2
 800758e:	d80c      	bhi.n	80075aa <__multiply+0x78>
 8007590:	2e00      	cmp	r6, #0
 8007592:	dd03      	ble.n	800759c <__multiply+0x6a>
 8007594:	f858 3d04 	ldr.w	r3, [r8, #-4]!
 8007598:	2b00      	cmp	r3, #0
 800759a:	d054      	beq.n	8007646 <__multiply+0x114>
 800759c:	6106      	str	r6, [r0, #16]
 800759e:	b003      	add	sp, #12
 80075a0:	e8bd 8ff0 	ldmia.w	sp!, {r4, r5, r6, r7, r8, r9, sl, fp, pc}
 80075a4:	f843 2b04 	str.w	r2, [r3], #4
 80075a8:	e7e3      	b.n	8007572 <__multiply+0x40>
 80075aa:	f8b3 a000 	ldrh.w	sl, [r3]
 80075ae:	3204      	adds	r2, #4
 80075b0:	f1ba 0f00 	cmp.w	sl, #0
 80075b4:	d020      	beq.n	80075f8 <__multiply+0xc6>
 80075b6:	46ae      	mov	lr, r5
 80075b8:	4689      	mov	r9, r1
 80075ba:	f04f 0c00 	mov.w	ip, #0
 80075be:	f859 4b04 	ldr.w	r4, [r9], #4
 80075c2:	f8be b000 	ldrh.w	fp, [lr]
 80075c6:	b2a3      	uxth	r3, r4
 80075c8:	fb0a b303 	mla	r3, sl, r3, fp
 80075cc:	ea4f 4b14 	mov.w	fp, r4, lsr #16
 80075d0:	f8de 4000 	ldr.w	r4, [lr]
 80075d4:	4463      	add	r3, ip
 80075d6:	ea4f 4c14 	mov.w	ip, r4, lsr #16
 80075da:	fb0a c40b 	mla	r4, sl, fp, ip
 80075de:	eb04 4413 	add.w	r4, r4, r3, lsr #16
 80075e2:	b29b      	uxth	r3, r3
 80075e4:	ea43 4304 	orr.w	r3, r3, r4, lsl #16
 80075e8:	454f      	cmp	r7, r9
 80075ea:	ea4f 4c14 	mov.w	ip, r4, lsr #16
 80075ee:	f84e 3b04 	str.w	r3, [lr], #4
 80075f2:	d8e4      	bhi.n	80075be <__multiply+0x8c>
 80075f4:	f8ce c000 	str.w	ip, [lr]
 80075f8:	f832 9c02 	ldrh.w	r9, [r2, #-2]
 80075fc:	f1b9 0f00 	cmp.w	r9, #0
 8007600:	d01f      	beq.n	8007642 <__multiply+0x110>
 8007602:	46ae      	mov	lr, r5
 8007604:	468c      	mov	ip, r1
 8007606:	f04f 0a00 	mov.w	sl, #0
 800760a:	682b      	ldr	r3, [r5, #0]
 800760c:	f8bc 4000 	ldrh.w	r4, [ip]
 8007610:	f8be b002 	ldrh.w	fp, [lr, #2]
 8007614:	b29b      	uxth	r3, r3
 8007616:	fb09 b404 	mla	r4, r9, r4, fp
 800761a:	44a2      	add	sl, r4
 800761c:	ea43 430a 	orr.w	r3, r3, sl, lsl #16
 8007620:	f84e 3b04 	str.w	r3, [lr], #4
 8007624:	f85c 3b04 	ldr.w	r3, [ip], #4
 8007628:	f8be 4000 	ldrh.w	r4, [lr]
 800762c:	0c1b      	lsrs	r3, r3, #16
 800762e:	fb09 4303 	mla	r3, r9, r3, r4
 8007632:	4567      	cmp	r7, ip
 8007634:	eb03 431a 	add.w	r3, r3, sl, lsr #16
 8007638:	ea4f 4a13 	mov.w	sl, r3, lsr #16
 800763c:	d8e6      	bhi.n	800760c <__multiply+0xda>
 800763e:	f8ce 3000 	str.w	r3, [lr]
 8007642:	3504      	adds	r5, #4
 8007644:	e7a0      	b.n	8007588 <__multiply+0x56>
 8007646:	3e01      	subs	r6, #1
 8007648:	e7a2      	b.n	8007590 <__multiply+0x5e>
	...

0800764c <__pow5mult>:
 800764c:	e92d 43f8 	stmdb	sp!, {r3, r4, r5, r6, r7, r8, r9, lr}
 8007650:	4615      	mov	r5, r2
 8007652:	f012 0203 	ands.w	r2, r2, #3
 8007656:	4606      	mov	r6, r0
 8007658:	460f      	mov	r7, r1
 800765a:	d007      	beq.n	800766c <__pow5mult+0x20>
 800765c:	4c21      	ldr	r4, [pc, #132]	; (80076e4 <__pow5mult+0x98>)
 800765e:	3a01      	subs	r2, #1
 8007660:	2300      	movs	r3, #0
 8007662:	f854 2022 	ldr.w	r2, [r4, r2, lsl #2]
 8007666:	f7ff fed2 	bl	800740e <__multadd>
 800766a:	4607      	mov	r7, r0
 800766c:	10ad      	asrs	r5, r5, #2
 800766e:	d035      	beq.n	80076dc <__pow5mult+0x90>
 8007670:	6a74      	ldr	r4, [r6, #36]	; 0x24
 8007672:	b93c      	cbnz	r4, 8007684 <__pow5mult+0x38>
 8007674:	2010      	movs	r0, #16
 8007676:	f7ff fc51 	bl	8006f1c <malloc>
 800767a:	6270      	str	r0, [r6, #36]	; 0x24
 800767c:	6044      	str	r4, [r0, #4]
 800767e:	6084      	str	r4, [r0, #8]
 8007680:	6004      	str	r4, [r0, #0]
 8007682:	60c4      	str	r4, [r0, #12]
 8007684:	f8d6 8024 	ldr.w	r8, [r6, #36]	; 0x24
 8007688:	f8d8 4008 	ldr.w	r4, [r8, #8]
 800768c:	b94c      	cbnz	r4, 80076a2 <__pow5mult+0x56>
 800768e:	f240 2171 	movw	r1, #625	; 0x271
 8007692:	4630      	mov	r0, r6
 8007694:	f7ff ff44 	bl	8007520 <__i2b>
 8007698:	2300      	movs	r3, #0
 800769a:	4604      	mov	r4, r0
 800769c:	f8c8 0008 	str.w	r0, [r8, #8]
 80076a0:	6003      	str	r3, [r0, #0]
 80076a2:	f04f 0800 	mov.w	r8, #0
 80076a6:	07eb      	lsls	r3, r5, #31
 80076a8:	d50a      	bpl.n	80076c0 <__pow5mult+0x74>
 80076aa:	4639      	mov	r1, r7
 80076ac:	4622      	mov	r2, r4
 80076ae:	4630      	mov	r0, r6
 80076b0:	f7ff ff3f 	bl	8007532 <__multiply>
 80076b4:	4681      	mov	r9, r0
 80076b6:	4639      	mov	r1, r7
 80076b8:	4630      	mov	r0, r6
 80076ba:	f7ff fe91 	bl	80073e0 <_Bfree>
 80076be:	464f      	mov	r7, r9
 80076c0:	106d      	asrs	r5, r5, #1
 80076c2:	d00b      	beq.n	80076dc <__pow5mult+0x90>
 80076c4:	6820      	ldr	r0, [r4, #0]
 80076c6:	b938      	cbnz	r0, 80076d8 <__pow5mult+0x8c>
 80076c8:	4622      	mov	r2, r4
 80076ca:	4621      	mov	r1, r4
 80076cc:	4630      	mov	r0, r6
 80076ce:	f7ff ff30 	bl	8007532 <__multiply>
 80076d2:	6020      	str	r0, [r4, #0]
 80076d4:	f8c0 8000 	str.w	r8, [r0]
 80076d8:	4604      	mov	r4, r0
 80076da:	e7e4      	b.n	80076a6 <__pow5mult+0x5a>
 80076dc:	4638      	mov	r0, r7
 80076de:	e8bd 83f8 	ldmia.w	sp!, {r3, r4, r5, r6, r7, r8, r9, pc}
 80076e2:	bf00      	nop
 80076e4:	080089d0 	.word	0x080089d0

080076e8 <__lshift>:
 80076e8:	e92d 47f0 	stmdb	sp!, {r4, r5, r6, r7, r8, r9, sl, lr}
 80076ec:	460c      	mov	r4, r1
 80076ee:	4607      	mov	r7, r0
 80076f0:	4616      	mov	r6, r2
 80076f2:	6923      	ldr	r3, [r4, #16]
 80076f4:	ea4f 1a62 	mov.w	sl, r2, asr #5
 80076f8:	eb0a 0903 	add.w	r9, sl, r3
 80076fc:	6849      	ldr	r1, [r1, #4]
 80076fe:	68a3      	ldr	r3, [r4, #8]
 8007700:	f109 0501 	add.w	r5, r9, #1
 8007704:	42ab      	cmp	r3, r5
 8007706:	db31      	blt.n	800776c <__lshift+0x84>
 8007708:	4638      	mov	r0, r7
 800770a:	f7ff fe35 	bl	8007378 <_Balloc>
 800770e:	2200      	movs	r2, #0
 8007710:	4680      	mov	r8, r0
 8007712:	4611      	mov	r1, r2
 8007714:	f100 0314 	add.w	r3, r0, #20
 8007718:	4552      	cmp	r2, sl
 800771a:	db2a      	blt.n	8007772 <__lshift+0x8a>
 800771c:	6920      	ldr	r0, [r4, #16]
 800771e:	ea2a 7aea 	bic.w	sl, sl, sl, asr #31
 8007722:	f104 0114 	add.w	r1, r4, #20
 8007726:	f016 021f 	ands.w	r2, r6, #31
 800772a:	eb03 038a 	add.w	r3, r3, sl, lsl #2
 800772e:	eb01 0e80 	add.w	lr, r1, r0, lsl #2
 8007732:	d022      	beq.n	800777a <__lshift+0x92>
 8007734:	2000      	movs	r0, #0
 8007736:	f1c2 0c20 	rsb	ip, r2, #32
 800773a:	680e      	ldr	r6, [r1, #0]
 800773c:	4096      	lsls	r6, r2
 800773e:	4330      	orrs	r0, r6
 8007740:	f843 0b04 	str.w	r0, [r3], #4
 8007744:	f851 0b04 	ldr.w	r0, [r1], #4
 8007748:	458e      	cmp	lr, r1
 800774a:	fa20 f00c 	lsr.w	r0, r0, ip
 800774e:	d8f4      	bhi.n	800773a <__lshift+0x52>
 8007750:	6018      	str	r0, [r3, #0]
 8007752:	b108      	cbz	r0, 8007758 <__lshift+0x70>
 8007754:	f109 0502 	add.w	r5, r9, #2
 8007758:	3d01      	subs	r5, #1
 800775a:	4638      	mov	r0, r7
 800775c:	f8c8 5010 	str.w	r5, [r8, #16]
 8007760:	4621      	mov	r1, r4
 8007762:	f7ff fe3d 	bl	80073e0 <_Bfree>
 8007766:	4640      	mov	r0, r8
 8007768:	e8bd 87f0 	ldmia.w	sp!, {r4, r5, r6, r7, r8, r9, sl, pc}
 800776c:	3101      	adds	r1, #1
 800776e:	005b      	lsls	r3, r3, #1
 8007770:	e7c8      	b.n	8007704 <__lshift+0x1c>
 8007772:	f843 1022 	str.w	r1, [r3, r2, lsl #2]
 8007776:	3201      	adds	r2, #1
 8007778:	e7ce      	b.n	8007718 <__lshift+0x30>
 800777a:	3b04      	subs	r3, #4
 800777c:	f851 2b04 	ldr.w	r2, [r1], #4
 8007780:	458e      	cmp	lr, r1
 8007782:	f843 2f04 	str.w	r2, [r3, #4]!
 8007786:	d8f9      	bhi.n	800777c <__lshift+0x94>
 8007788:	e7e6      	b.n	8007758 <__lshift+0x70>

0800778a <__mcmp>:
 800778a:	6903      	ldr	r3, [r0, #16]
 800778c:	690a      	ldr	r2, [r1, #16]
 800778e:	b530      	push	{r4, r5, lr}
 8007790:	1a9b      	subs	r3, r3, r2
 8007792:	d10c      	bne.n	80077ae <__mcmp+0x24>
 8007794:	0092      	lsls	r2, r2, #2
 8007796:	3014      	adds	r0, #20
 8007798:	3114      	adds	r1, #20
 800779a:	1884      	adds	r4, r0, r2
 800779c:	4411      	add	r1, r2
 800779e:	f854 5d04 	ldr.w	r5, [r4, #-4]!
 80077a2:	f851 2d04 	ldr.w	r2, [r1, #-4]!
 80077a6:	4295      	cmp	r5, r2
 80077a8:	d003      	beq.n	80077b2 <__mcmp+0x28>
 80077aa:	d305      	bcc.n	80077b8 <__mcmp+0x2e>
 80077ac:	2301      	movs	r3, #1
 80077ae:	4618      	mov	r0, r3
 80077b0:	bd30      	pop	{r4, r5, pc}
 80077b2:	42a0      	cmp	r0, r4
 80077b4:	d3f3      	bcc.n	800779e <__mcmp+0x14>
 80077b6:	e7fa      	b.n	80077ae <__mcmp+0x24>
 80077b8:	f04f 33ff 	mov.w	r3, #4294967295
 80077bc:	e7f7      	b.n	80077ae <__mcmp+0x24>

080077be <__mdiff>:
 80077be:	e92d 47f0 	stmdb	sp!, {r4, r5, r6, r7, r8, r9, sl, lr}
 80077c2:	460d      	mov	r5, r1
 80077c4:	4607      	mov	r7, r0
 80077c6:	4611      	mov	r1, r2
 80077c8:	4628      	mov	r0, r5
 80077ca:	4614      	mov	r4, r2
 80077cc:	f7ff ffdd 	bl	800778a <__mcmp>
 80077d0:	1e06      	subs	r6, r0, #0
 80077d2:	d108      	bne.n	80077e6 <__mdiff+0x28>
 80077d4:	4631      	mov	r1, r6
 80077d6:	4638      	mov	r0, r7
 80077d8:	f7ff fdce 	bl	8007378 <_Balloc>
 80077dc:	2301      	movs	r3, #1
 80077de:	6146      	str	r6, [r0, #20]
 80077e0:	6103      	str	r3, [r0, #16]
 80077e2:	e8bd 87f0 	ldmia.w	sp!, {r4, r5, r6, r7, r8, r9, sl, pc}
 80077e6:	bfa4      	itt	ge
 80077e8:	4623      	movge	r3, r4
 80077ea:	462c      	movge	r4, r5
 80077ec:	4638      	mov	r0, r7
 80077ee:	6861      	ldr	r1, [r4, #4]
 80077f0:	bfa6      	itte	ge
 80077f2:	461d      	movge	r5, r3
 80077f4:	2600      	movge	r6, #0
 80077f6:	2601      	movlt	r6, #1
 80077f8:	f7ff fdbe 	bl	8007378 <_Balloc>
 80077fc:	f04f 0c00 	mov.w	ip, #0
 8007800:	60c6      	str	r6, [r0, #12]
 8007802:	692b      	ldr	r3, [r5, #16]
 8007804:	6926      	ldr	r6, [r4, #16]
 8007806:	f104 0214 	add.w	r2, r4, #20
 800780a:	f105 0914 	add.w	r9, r5, #20
 800780e:	eb02 0786 	add.w	r7, r2, r6, lsl #2
 8007812:	eb09 0883 	add.w	r8, r9, r3, lsl #2
 8007816:	f100 0114 	add.w	r1, r0, #20
 800781a:	f852 ab04 	ldr.w	sl, [r2], #4
 800781e:	f859 5b04 	ldr.w	r5, [r9], #4
 8007822:	fa1f f38a 	uxth.w	r3, sl
 8007826:	4463      	add	r3, ip
 8007828:	b2ac      	uxth	r4, r5
 800782a:	1b1b      	subs	r3, r3, r4
 800782c:	0c2c      	lsrs	r4, r5, #16
 800782e:	ebc4 441a 	rsb	r4, r4, sl, lsr #16
 8007832:	eb04 4423 	add.w	r4, r4, r3, asr #16
 8007836:	b29b      	uxth	r3, r3
 8007838:	ea4f 4c24 	mov.w	ip, r4, asr #16
 800783c:	45c8      	cmp	r8, r9
 800783e:	ea43 4404 	orr.w	r4, r3, r4, lsl #16
 8007842:	4696      	mov	lr, r2
 8007844:	f841 4b04 	str.w	r4, [r1], #4
 8007848:	d8e7      	bhi.n	800781a <__mdiff+0x5c>
 800784a:	45be      	cmp	lr, r7
 800784c:	d305      	bcc.n	800785a <__mdiff+0x9c>
 800784e:	f851 3d04 	ldr.w	r3, [r1, #-4]!
 8007852:	b18b      	cbz	r3, 8007878 <__mdiff+0xba>
 8007854:	6106      	str	r6, [r0, #16]
 8007856:	e8bd 87f0 	ldmia.w	sp!, {r4, r5, r6, r7, r8, r9, sl, pc}
 800785a:	f85e 4b04 	ldr.w	r4, [lr], #4
 800785e:	b2a2      	uxth	r2, r4
 8007860:	4462      	add	r2, ip
 8007862:	1413      	asrs	r3, r2, #16
 8007864:	eb03 4314 	add.w	r3, r3, r4, lsr #16
 8007868:	b292      	uxth	r2, r2
 800786a:	ea42 4203 	orr.w	r2, r2, r3, lsl #16
 800786e:	ea4f 4c23 	mov.w	ip, r3, asr #16
 8007872:	f841 2b04 	str.w	r2, [r1], #4
 8007876:	e7e8      	b.n	800784a <__mdiff+0x8c>
 8007878:	3e01      	subs	r6, #1
 800787a:	e7e8      	b.n	800784e <__mdiff+0x90>

0800787c <__d2b>:
 800787c:	e92d 41f3 	stmdb	sp!, {r0, r1, r4, r5, r6, r7, r8, lr}
 8007880:	461c      	mov	r4, r3
 8007882:	2101      	movs	r1, #1
 8007884:	4690      	mov	r8, r2
 8007886:	9e08      	ldr	r6, [sp, #32]
 8007888:	9d09      	ldr	r5, [sp, #36]	; 0x24
 800788a:	f7ff fd75 	bl	8007378 <_Balloc>
 800788e:	f3c4 0213 	ubfx	r2, r4, #0, #20
 8007892:	f3c4 540a 	ubfx	r4, r4, #20, #11
 8007896:	4607      	mov	r7, r0
 8007898:	bb34      	cbnz	r4, 80078e8 <__d2b+0x6c>
 800789a:	9201      	str	r2, [sp, #4]
 800789c:	f1b8 0f00 	cmp.w	r8, #0
 80078a0:	d027      	beq.n	80078f2 <__d2b+0x76>
 80078a2:	a802      	add	r0, sp, #8
 80078a4:	f840 8d08 	str.w	r8, [r0, #-8]!
 80078a8:	f7ff fe0b 	bl	80074c2 <__lo0bits>
 80078ac:	9900      	ldr	r1, [sp, #0]
 80078ae:	b1f0      	cbz	r0, 80078ee <__d2b+0x72>
 80078b0:	9a01      	ldr	r2, [sp, #4]
 80078b2:	f1c0 0320 	rsb	r3, r0, #32
 80078b6:	fa02 f303 	lsl.w	r3, r2, r3
 80078ba:	430b      	orrs	r3, r1
 80078bc:	40c2      	lsrs	r2, r0
 80078be:	617b      	str	r3, [r7, #20]
 80078c0:	9201      	str	r2, [sp, #4]
 80078c2:	9b01      	ldr	r3, [sp, #4]
 80078c4:	2b00      	cmp	r3, #0
 80078c6:	bf14      	ite	ne
 80078c8:	2102      	movne	r1, #2
 80078ca:	2101      	moveq	r1, #1
 80078cc:	61bb      	str	r3, [r7, #24]
 80078ce:	6139      	str	r1, [r7, #16]
 80078d0:	b1c4      	cbz	r4, 8007904 <__d2b+0x88>
 80078d2:	f2a4 4433 	subw	r4, r4, #1075	; 0x433
 80078d6:	4404      	add	r4, r0
 80078d8:	6034      	str	r4, [r6, #0]
 80078da:	f1c0 0035 	rsb	r0, r0, #53	; 0x35
 80078de:	6028      	str	r0, [r5, #0]
 80078e0:	4638      	mov	r0, r7
 80078e2:	b002      	add	sp, #8
 80078e4:	e8bd 81f0 	ldmia.w	sp!, {r4, r5, r6, r7, r8, pc}
 80078e8:	f442 1280 	orr.w	r2, r2, #1048576	; 0x100000
 80078ec:	e7d5      	b.n	800789a <__d2b+0x1e>
 80078ee:	6179      	str	r1, [r7, #20]
 80078f0:	e7e7      	b.n	80078c2 <__d2b+0x46>
 80078f2:	a801      	add	r0, sp, #4
 80078f4:	f7ff fde5 	bl	80074c2 <__lo0bits>
 80078f8:	2101      	movs	r1, #1
 80078fa:	9b01      	ldr	r3, [sp, #4]
 80078fc:	6139      	str	r1, [r7, #16]
 80078fe:	617b      	str	r3, [r7, #20]
 8007900:	3020      	adds	r0, #32
 8007902:	e7e5      	b.n	80078d0 <__d2b+0x54>
 8007904:	f2a0 4032 	subw	r0, r0, #1074	; 0x432
 8007908:	eb07 0381 	add.w	r3, r7, r1, lsl #2
 800790c:	6030      	str	r0, [r6, #0]
 800790e:	6918      	ldr	r0, [r3, #16]
 8007910:	f7ff fdb8 	bl	8007484 <__hi0bits>
 8007914:	ebc0 1041 	rsb	r0, r0, r1, lsl #5
 8007918:	e7e1      	b.n	80078de <__d2b+0x62>
	...

0800791c <_sbrk_r>:
 800791c:	b538      	push	{r3, r4, r5, lr}
 800791e:	2300      	movs	r3, #0
 8007920:	4c05      	ldr	r4, [pc, #20]	; (8007938 <_sbrk_r+0x1c>)
 8007922:	4605      	mov	r5, r0
 8007924:	4608      	mov	r0, r1
 8007926:	6023      	str	r3, [r4, #0]
 8007928:	f000 fb80 	bl	800802c <_sbrk>
 800792c:	1c43      	adds	r3, r0, #1
 800792e:	d102      	bne.n	8007936 <_sbrk_r+0x1a>
 8007930:	6823      	ldr	r3, [r4, #0]
 8007932:	b103      	cbz	r3, 8007936 <_sbrk_r+0x1a>
 8007934:	602b      	str	r3, [r5, #0]
 8007936:	bd38      	pop	{r3, r4, r5, pc}
 8007938:	2000466c 	.word	0x2000466c

0800793c <__ssprint_r>:
 800793c:	6893      	ldr	r3, [r2, #8]
 800793e:	e92d 4ff7 	stmdb	sp!, {r0, r1, r2, r4, r5, r6, r7, r8, r9, sl, fp, lr}
 8007942:	4681      	mov	r9, r0
 8007944:	460c      	mov	r4, r1
 8007946:	4617      	mov	r7, r2
 8007948:	2b00      	cmp	r3, #0
 800794a:	d060      	beq.n	8007a0e <__ssprint_r+0xd2>
 800794c:	f04f 0b00 	mov.w	fp, #0
 8007950:	465e      	mov	r6, fp
 8007952:	f8d2 a000 	ldr.w	sl, [r2]
 8007956:	b356      	cbz	r6, 80079ae <__ssprint_r+0x72>
 8007958:	68a3      	ldr	r3, [r4, #8]
 800795a:	429e      	cmp	r6, r3
 800795c:	d344      	bcc.n	80079e8 <__ssprint_r+0xac>
 800795e:	89a2      	ldrh	r2, [r4, #12]
 8007960:	f412 6f90 	tst.w	r2, #1152	; 0x480
 8007964:	d03e      	beq.n	80079e4 <__ssprint_r+0xa8>
 8007966:	2302      	movs	r3, #2
 8007968:	6825      	ldr	r5, [r4, #0]
 800796a:	6921      	ldr	r1, [r4, #16]
 800796c:	eba5 0801 	sub.w	r8, r5, r1
 8007970:	6965      	ldr	r5, [r4, #20]
 8007972:	eb05 0545 	add.w	r5, r5, r5, lsl #1
 8007976:	fb95 f5f3 	sdiv	r5, r5, r3
 800797a:	f108 0301 	add.w	r3, r8, #1
 800797e:	4433      	add	r3, r6
 8007980:	429d      	cmp	r5, r3
 8007982:	bf38      	it	cc
 8007984:	461d      	movcc	r5, r3
 8007986:	0553      	lsls	r3, r2, #21
 8007988:	d546      	bpl.n	8007a18 <__ssprint_r+0xdc>
 800798a:	4629      	mov	r1, r5
 800798c:	4648      	mov	r0, r9
 800798e:	f7ff facd 	bl	8006f2c <_malloc_r>
 8007992:	b998      	cbnz	r0, 80079bc <__ssprint_r+0x80>
 8007994:	230c      	movs	r3, #12
 8007996:	f8c9 3000 	str.w	r3, [r9]
 800799a:	89a3      	ldrh	r3, [r4, #12]
 800799c:	f04f 30ff 	mov.w	r0, #4294967295
 80079a0:	f043 0340 	orr.w	r3, r3, #64	; 0x40
 80079a4:	81a3      	strh	r3, [r4, #12]
 80079a6:	2300      	movs	r3, #0
 80079a8:	60bb      	str	r3, [r7, #8]
 80079aa:	607b      	str	r3, [r7, #4]
 80079ac:	e031      	b.n	8007a12 <__ssprint_r+0xd6>
 80079ae:	f8da b000 	ldr.w	fp, [sl]
 80079b2:	f8da 6004 	ldr.w	r6, [sl, #4]
 80079b6:	f10a 0a08 	add.w	sl, sl, #8
 80079ba:	e7cc      	b.n	8007956 <__ssprint_r+0x1a>
 80079bc:	4642      	mov	r2, r8
 80079be:	6921      	ldr	r1, [r4, #16]
 80079c0:	9001      	str	r0, [sp, #4]
 80079c2:	f7fd fc25 	bl	8005210 <memcpy>
 80079c6:	89a2      	ldrh	r2, [r4, #12]
 80079c8:	9b01      	ldr	r3, [sp, #4]
 80079ca:	f422 6290 	bic.w	r2, r2, #1152	; 0x480
 80079ce:	f042 0280 	orr.w	r2, r2, #128	; 0x80
 80079d2:	81a2      	strh	r2, [r4, #12]
 80079d4:	6123      	str	r3, [r4, #16]
 80079d6:	4443      	add	r3, r8
 80079d8:	6023      	str	r3, [r4, #0]
 80079da:	4633      	mov	r3, r6
 80079dc:	6165      	str	r5, [r4, #20]
 80079de:	eba5 0508 	sub.w	r5, r5, r8
 80079e2:	60a5      	str	r5, [r4, #8]
 80079e4:	429e      	cmp	r6, r3
 80079e6:	d200      	bcs.n	80079ea <__ssprint_r+0xae>
 80079e8:	4633      	mov	r3, r6
 80079ea:	461a      	mov	r2, r3
 80079ec:	4659      	mov	r1, fp
 80079ee:	6820      	ldr	r0, [r4, #0]
 80079f0:	9301      	str	r3, [sp, #4]
 80079f2:	f000 f971 	bl	8007cd8 <memmove>
 80079f6:	68a2      	ldr	r2, [r4, #8]
 80079f8:	9b01      	ldr	r3, [sp, #4]
 80079fa:	1ad2      	subs	r2, r2, r3
 80079fc:	60a2      	str	r2, [r4, #8]
 80079fe:	6822      	ldr	r2, [r4, #0]
 8007a00:	4413      	add	r3, r2
 8007a02:	6023      	str	r3, [r4, #0]
 8007a04:	68bb      	ldr	r3, [r7, #8]
 8007a06:	1b9e      	subs	r6, r3, r6
 8007a08:	60be      	str	r6, [r7, #8]
 8007a0a:	2e00      	cmp	r6, #0
 8007a0c:	d1cf      	bne.n	80079ae <__ssprint_r+0x72>
 8007a0e:	2000      	movs	r0, #0
 8007a10:	6078      	str	r0, [r7, #4]
 8007a12:	b003      	add	sp, #12
 8007a14:	e8bd 8ff0 	ldmia.w	sp!, {r4, r5, r6, r7, r8, r9, sl, fp, pc}
 8007a18:	462a      	mov	r2, r5
 8007a1a:	4648      	mov	r0, r9
 8007a1c:	f000 f976 	bl	8007d0c <_realloc_r>
 8007a20:	4603      	mov	r3, r0
 8007a22:	2800      	cmp	r0, #0
 8007a24:	d1d6      	bne.n	80079d4 <__ssprint_r+0x98>
 8007a26:	6921      	ldr	r1, [r4, #16]
 8007a28:	4648      	mov	r0, r9
 8007a2a:	f000 f885 	bl	8007b38 <_free_r>
 8007a2e:	e7b1      	b.n	8007994 <__ssprint_r+0x58>

08007a30 <_calloc_r>:
 8007a30:	b510      	push	{r4, lr}
 8007a32:	4351      	muls	r1, r2
 8007a34:	f7ff fa7a 	bl	8006f2c <_malloc_r>
 8007a38:	4604      	mov	r4, r0
 8007a3a:	b198      	cbz	r0, 8007a64 <_calloc_r+0x34>
 8007a3c:	f850 2c04 	ldr.w	r2, [r0, #-4]
 8007a40:	f022 0203 	bic.w	r2, r2, #3
 8007a44:	3a04      	subs	r2, #4
 8007a46:	2a24      	cmp	r2, #36	; 0x24
 8007a48:	d81b      	bhi.n	8007a82 <_calloc_r+0x52>
 8007a4a:	2a13      	cmp	r2, #19
 8007a4c:	d917      	bls.n	8007a7e <_calloc_r+0x4e>
 8007a4e:	2100      	movs	r1, #0
 8007a50:	2a1b      	cmp	r2, #27
 8007a52:	6001      	str	r1, [r0, #0]
 8007a54:	6041      	str	r1, [r0, #4]
 8007a56:	d807      	bhi.n	8007a68 <_calloc_r+0x38>
 8007a58:	f100 0308 	add.w	r3, r0, #8
 8007a5c:	2200      	movs	r2, #0
 8007a5e:	601a      	str	r2, [r3, #0]
 8007a60:	605a      	str	r2, [r3, #4]
 8007a62:	609a      	str	r2, [r3, #8]
 8007a64:	4620      	mov	r0, r4
 8007a66:	bd10      	pop	{r4, pc}
 8007a68:	2a24      	cmp	r2, #36	; 0x24
 8007a6a:	6081      	str	r1, [r0, #8]
 8007a6c:	60c1      	str	r1, [r0, #12]
 8007a6e:	bf11      	iteee	ne
 8007a70:	f100 0310 	addne.w	r3, r0, #16
 8007a74:	6101      	streq	r1, [r0, #16]
 8007a76:	f100 0318 	addeq.w	r3, r0, #24
 8007a7a:	6141      	streq	r1, [r0, #20]
 8007a7c:	e7ee      	b.n	8007a5c <_calloc_r+0x2c>
 8007a7e:	4603      	mov	r3, r0
 8007a80:	e7ec      	b.n	8007a5c <_calloc_r+0x2c>
 8007a82:	2100      	movs	r1, #0
 8007a84:	f7fd fbcf 	bl	8005226 <memset>
 8007a88:	e7ec      	b.n	8007a64 <_calloc_r+0x34>
	...

08007a8c <_malloc_trim_r>:
 8007a8c:	e92d 43f8 	stmdb	sp!, {r3, r4, r5, r6, r7, r8, r9, lr}
 8007a90:	4689      	mov	r9, r1
 8007a92:	4f25      	ldr	r7, [pc, #148]	; (8007b28 <_malloc_trim_r+0x9c>)
 8007a94:	4606      	mov	r6, r0
 8007a96:	f7ff fc63 	bl	8007360 <__malloc_lock>
 8007a9a:	68bb      	ldr	r3, [r7, #8]
 8007a9c:	f8df 8094 	ldr.w	r8, [pc, #148]	; 8007b34 <_malloc_trim_r+0xa8>
 8007aa0:	685d      	ldr	r5, [r3, #4]
 8007aa2:	f1a8 0411 	sub.w	r4, r8, #17
 8007aa6:	f025 0503 	bic.w	r5, r5, #3
 8007aaa:	eba4 0409 	sub.w	r4, r4, r9
 8007aae:	442c      	add	r4, r5
 8007ab0:	fbb4 f4f8 	udiv	r4, r4, r8
 8007ab4:	3c01      	subs	r4, #1
 8007ab6:	fb08 f404 	mul.w	r4, r8, r4
 8007aba:	4544      	cmp	r4, r8
 8007abc:	da05      	bge.n	8007aca <_malloc_trim_r+0x3e>
 8007abe:	4630      	mov	r0, r6
 8007ac0:	f7ff fc54 	bl	800736c <__malloc_unlock>
 8007ac4:	2000      	movs	r0, #0
 8007ac6:	e8bd 83f8 	ldmia.w	sp!, {r3, r4, r5, r6, r7, r8, r9, pc}
 8007aca:	2100      	movs	r1, #0
 8007acc:	4630      	mov	r0, r6
 8007ace:	f7ff ff25 	bl	800791c <_sbrk_r>
 8007ad2:	68bb      	ldr	r3, [r7, #8]
 8007ad4:	442b      	add	r3, r5
 8007ad6:	4298      	cmp	r0, r3
 8007ad8:	d1f1      	bne.n	8007abe <_malloc_trim_r+0x32>
 8007ada:	4261      	negs	r1, r4
 8007adc:	4630      	mov	r0, r6
 8007ade:	f7ff ff1d 	bl	800791c <_sbrk_r>
 8007ae2:	3001      	adds	r0, #1
 8007ae4:	d110      	bne.n	8007b08 <_malloc_trim_r+0x7c>
 8007ae6:	2100      	movs	r1, #0
 8007ae8:	4630      	mov	r0, r6
 8007aea:	f7ff ff17 	bl	800791c <_sbrk_r>
 8007aee:	68ba      	ldr	r2, [r7, #8]
 8007af0:	1a83      	subs	r3, r0, r2
 8007af2:	2b0f      	cmp	r3, #15
 8007af4:	dde3      	ble.n	8007abe <_malloc_trim_r+0x32>
 8007af6:	490d      	ldr	r1, [pc, #52]	; (8007b2c <_malloc_trim_r+0xa0>)
 8007af8:	f043 0301 	orr.w	r3, r3, #1
 8007afc:	6809      	ldr	r1, [r1, #0]
 8007afe:	6053      	str	r3, [r2, #4]
 8007b00:	1a40      	subs	r0, r0, r1
 8007b02:	490b      	ldr	r1, [pc, #44]	; (8007b30 <_malloc_trim_r+0xa4>)
 8007b04:	6008      	str	r0, [r1, #0]
 8007b06:	e7da      	b.n	8007abe <_malloc_trim_r+0x32>
 8007b08:	68bb      	ldr	r3, [r7, #8]
 8007b0a:	4a09      	ldr	r2, [pc, #36]	; (8007b30 <_malloc_trim_r+0xa4>)
 8007b0c:	1b2d      	subs	r5, r5, r4
 8007b0e:	f045 0501 	orr.w	r5, r5, #1
 8007b12:	605d      	str	r5, [r3, #4]
 8007b14:	6813      	ldr	r3, [r2, #0]
 8007b16:	4630      	mov	r0, r6
 8007b18:	1b1c      	subs	r4, r3, r4
 8007b1a:	6014      	str	r4, [r2, #0]
 8007b1c:	f7ff fc26 	bl	800736c <__malloc_unlock>
 8007b20:	2001      	movs	r0, #1
 8007b22:	e8bd 83f8 	ldmia.w	sp!, {r3, r4, r5, r6, r7, r8, r9, pc}
 8007b26:	bf00      	nop
 8007b28:	200001b0 	.word	0x200001b0
 8007b2c:	200005b8 	.word	0x200005b8
 8007b30:	200044c4 	.word	0x200044c4
 8007b34:	00000080 	.word	0x00000080

08007b38 <_free_r>:
 8007b38:	e92d 41f0 	stmdb	sp!, {r4, r5, r6, r7, r8, lr}
 8007b3c:	4604      	mov	r4, r0
 8007b3e:	4688      	mov	r8, r1
 8007b40:	2900      	cmp	r1, #0
 8007b42:	f000 80ab 	beq.w	8007c9c <_free_r+0x164>
 8007b46:	f7ff fc0b 	bl	8007360 <__malloc_lock>
 8007b4a:	f858 2c04 	ldr.w	r2, [r8, #-4]
 8007b4e:	4d54      	ldr	r5, [pc, #336]	; (8007ca0 <_free_r+0x168>)
 8007b50:	f022 0001 	bic.w	r0, r2, #1
 8007b54:	f1a8 0308 	sub.w	r3, r8, #8
 8007b58:	181f      	adds	r7, r3, r0
 8007b5a:	68a9      	ldr	r1, [r5, #8]
 8007b5c:	687e      	ldr	r6, [r7, #4]
 8007b5e:	428f      	cmp	r7, r1
 8007b60:	f026 0603 	bic.w	r6, r6, #3
 8007b64:	f002 0201 	and.w	r2, r2, #1
 8007b68:	d11b      	bne.n	8007ba2 <_free_r+0x6a>
 8007b6a:	4430      	add	r0, r6
 8007b6c:	b93a      	cbnz	r2, 8007b7e <_free_r+0x46>
 8007b6e:	f858 2c08 	ldr.w	r2, [r8, #-8]
 8007b72:	1a9b      	subs	r3, r3, r2
 8007b74:	6899      	ldr	r1, [r3, #8]
 8007b76:	4410      	add	r0, r2
 8007b78:	68da      	ldr	r2, [r3, #12]
 8007b7a:	60ca      	str	r2, [r1, #12]
 8007b7c:	6091      	str	r1, [r2, #8]
 8007b7e:	f040 0201 	orr.w	r2, r0, #1
 8007b82:	605a      	str	r2, [r3, #4]
 8007b84:	60ab      	str	r3, [r5, #8]
 8007b86:	4b47      	ldr	r3, [pc, #284]	; (8007ca4 <_free_r+0x16c>)
 8007b88:	681b      	ldr	r3, [r3, #0]
 8007b8a:	4298      	cmp	r0, r3
 8007b8c:	d304      	bcc.n	8007b98 <_free_r+0x60>
 8007b8e:	4b46      	ldr	r3, [pc, #280]	; (8007ca8 <_free_r+0x170>)
 8007b90:	4620      	mov	r0, r4
 8007b92:	6819      	ldr	r1, [r3, #0]
 8007b94:	f7ff ff7a 	bl	8007a8c <_malloc_trim_r>
 8007b98:	4620      	mov	r0, r4
 8007b9a:	e8bd 41f0 	ldmia.w	sp!, {r4, r5, r6, r7, r8, lr}
 8007b9e:	f7ff bbe5 	b.w	800736c <__malloc_unlock>
 8007ba2:	607e      	str	r6, [r7, #4]
 8007ba4:	2a00      	cmp	r2, #0
 8007ba6:	d139      	bne.n	8007c1c <_free_r+0xe4>
 8007ba8:	f858 1c08 	ldr.w	r1, [r8, #-8]
 8007bac:	f105 0e08 	add.w	lr, r5, #8
 8007bb0:	1a5b      	subs	r3, r3, r1
 8007bb2:	4408      	add	r0, r1
 8007bb4:	6899      	ldr	r1, [r3, #8]
 8007bb6:	4571      	cmp	r1, lr
 8007bb8:	d032      	beq.n	8007c20 <_free_r+0xe8>
 8007bba:	f8d3 e00c 	ldr.w	lr, [r3, #12]
 8007bbe:	f8c1 e00c 	str.w	lr, [r1, #12]
 8007bc2:	f8ce 1008 	str.w	r1, [lr, #8]
 8007bc6:	19b9      	adds	r1, r7, r6
 8007bc8:	6849      	ldr	r1, [r1, #4]
 8007bca:	07c9      	lsls	r1, r1, #31
 8007bcc:	d40a      	bmi.n	8007be4 <_free_r+0xac>
 8007bce:	4430      	add	r0, r6
 8007bd0:	68b9      	ldr	r1, [r7, #8]
 8007bd2:	bb3a      	cbnz	r2, 8007c24 <_free_r+0xec>
 8007bd4:	4e35      	ldr	r6, [pc, #212]	; (8007cac <_free_r+0x174>)
 8007bd6:	42b1      	cmp	r1, r6
 8007bd8:	d124      	bne.n	8007c24 <_free_r+0xec>
 8007bda:	2201      	movs	r2, #1
 8007bdc:	616b      	str	r3, [r5, #20]
 8007bde:	612b      	str	r3, [r5, #16]
 8007be0:	60d9      	str	r1, [r3, #12]
 8007be2:	6099      	str	r1, [r3, #8]
 8007be4:	f040 0101 	orr.w	r1, r0, #1
 8007be8:	6059      	str	r1, [r3, #4]
 8007bea:	5018      	str	r0, [r3, r0]
 8007bec:	2a00      	cmp	r2, #0
 8007bee:	d1d3      	bne.n	8007b98 <_free_r+0x60>
 8007bf0:	f5b0 7f00 	cmp.w	r0, #512	; 0x200
 8007bf4:	d21a      	bcs.n	8007c2c <_free_r+0xf4>
 8007bf6:	2201      	movs	r2, #1
 8007bf8:	08c0      	lsrs	r0, r0, #3
 8007bfa:	1081      	asrs	r1, r0, #2
 8007bfc:	408a      	lsls	r2, r1
 8007bfe:	6869      	ldr	r1, [r5, #4]
 8007c00:	3001      	adds	r0, #1
 8007c02:	430a      	orrs	r2, r1
 8007c04:	606a      	str	r2, [r5, #4]
 8007c06:	f855 1030 	ldr.w	r1, [r5, r0, lsl #3]
 8007c0a:	eb05 02c0 	add.w	r2, r5, r0, lsl #3
 8007c0e:	3a08      	subs	r2, #8
 8007c10:	60da      	str	r2, [r3, #12]
 8007c12:	6099      	str	r1, [r3, #8]
 8007c14:	f845 3030 	str.w	r3, [r5, r0, lsl #3]
 8007c18:	60cb      	str	r3, [r1, #12]
 8007c1a:	e7bd      	b.n	8007b98 <_free_r+0x60>
 8007c1c:	2200      	movs	r2, #0
 8007c1e:	e7d2      	b.n	8007bc6 <_free_r+0x8e>
 8007c20:	2201      	movs	r2, #1
 8007c22:	e7d0      	b.n	8007bc6 <_free_r+0x8e>
 8007c24:	68fe      	ldr	r6, [r7, #12]
 8007c26:	60ce      	str	r6, [r1, #12]
 8007c28:	60b1      	str	r1, [r6, #8]
 8007c2a:	e7db      	b.n	8007be4 <_free_r+0xac>
 8007c2c:	0a42      	lsrs	r2, r0, #9
 8007c2e:	2a04      	cmp	r2, #4
 8007c30:	d813      	bhi.n	8007c5a <_free_r+0x122>
 8007c32:	0982      	lsrs	r2, r0, #6
 8007c34:	3238      	adds	r2, #56	; 0x38
 8007c36:	1c51      	adds	r1, r2, #1
 8007c38:	f855 1031 	ldr.w	r1, [r5, r1, lsl #3]
 8007c3c:	eb05 06c2 	add.w	r6, r5, r2, lsl #3
 8007c40:	428e      	cmp	r6, r1
 8007c42:	d124      	bne.n	8007c8e <_free_r+0x156>
 8007c44:	2001      	movs	r0, #1
 8007c46:	1092      	asrs	r2, r2, #2
 8007c48:	fa00 f202 	lsl.w	r2, r0, r2
 8007c4c:	6868      	ldr	r0, [r5, #4]
 8007c4e:	4302      	orrs	r2, r0
 8007c50:	606a      	str	r2, [r5, #4]
 8007c52:	60de      	str	r6, [r3, #12]
 8007c54:	6099      	str	r1, [r3, #8]
 8007c56:	60b3      	str	r3, [r6, #8]
 8007c58:	e7de      	b.n	8007c18 <_free_r+0xe0>
 8007c5a:	2a14      	cmp	r2, #20
 8007c5c:	d801      	bhi.n	8007c62 <_free_r+0x12a>
 8007c5e:	325b      	adds	r2, #91	; 0x5b
 8007c60:	e7e9      	b.n	8007c36 <_free_r+0xfe>
 8007c62:	2a54      	cmp	r2, #84	; 0x54
 8007c64:	d802      	bhi.n	8007c6c <_free_r+0x134>
 8007c66:	0b02      	lsrs	r2, r0, #12
 8007c68:	326e      	adds	r2, #110	; 0x6e
 8007c6a:	e7e4      	b.n	8007c36 <_free_r+0xfe>
 8007c6c:	f5b2 7faa 	cmp.w	r2, #340	; 0x154
 8007c70:	d802      	bhi.n	8007c78 <_free_r+0x140>
 8007c72:	0bc2      	lsrs	r2, r0, #15
 8007c74:	3277      	adds	r2, #119	; 0x77
 8007c76:	e7de      	b.n	8007c36 <_free_r+0xfe>
 8007c78:	f240 5154 	movw	r1, #1364	; 0x554
 8007c7c:	428a      	cmp	r2, r1
 8007c7e:	bf9a      	itte	ls
 8007c80:	0c82      	lsrls	r2, r0, #18
 8007c82:	327c      	addls	r2, #124	; 0x7c
 8007c84:	227e      	movhi	r2, #126	; 0x7e
 8007c86:	e7d6      	b.n	8007c36 <_free_r+0xfe>
 8007c88:	6889      	ldr	r1, [r1, #8]
 8007c8a:	428e      	cmp	r6, r1
 8007c8c:	d004      	beq.n	8007c98 <_free_r+0x160>
 8007c8e:	684a      	ldr	r2, [r1, #4]
 8007c90:	f022 0203 	bic.w	r2, r2, #3
 8007c94:	4290      	cmp	r0, r2
 8007c96:	d3f7      	bcc.n	8007c88 <_free_r+0x150>
 8007c98:	68ce      	ldr	r6, [r1, #12]
 8007c9a:	e7da      	b.n	8007c52 <_free_r+0x11a>
 8007c9c:	e8bd 81f0 	ldmia.w	sp!, {r4, r5, r6, r7, r8, pc}
 8007ca0:	200001b0 	.word	0x200001b0
 8007ca4:	200005bc 	.word	0x200005bc
 8007ca8:	200044f4 	.word	0x200044f4
 8007cac:	200001b8 	.word	0x200001b8

08007cb0 <__retarget_lock_acquire_recursive>:
 8007cb0:	4770      	bx	lr

08007cb2 <__retarget_lock_release_recursive>:
 8007cb2:	4770      	bx	lr

08007cb4 <__ascii_mbtowc>:
 8007cb4:	b082      	sub	sp, #8
 8007cb6:	b901      	cbnz	r1, 8007cba <__ascii_mbtowc+0x6>
 8007cb8:	a901      	add	r1, sp, #4
 8007cba:	b142      	cbz	r2, 8007cce <__ascii_mbtowc+0x1a>
 8007cbc:	b14b      	cbz	r3, 8007cd2 <__ascii_mbtowc+0x1e>
 8007cbe:	7813      	ldrb	r3, [r2, #0]
 8007cc0:	600b      	str	r3, [r1, #0]
 8007cc2:	7812      	ldrb	r2, [r2, #0]
 8007cc4:	1c10      	adds	r0, r2, #0
 8007cc6:	bf18      	it	ne
 8007cc8:	2001      	movne	r0, #1
 8007cca:	b002      	add	sp, #8
 8007ccc:	4770      	bx	lr
 8007cce:	4610      	mov	r0, r2
 8007cd0:	e7fb      	b.n	8007cca <__ascii_mbtowc+0x16>
 8007cd2:	f06f 0001 	mvn.w	r0, #1
 8007cd6:	e7f8      	b.n	8007cca <__ascii_mbtowc+0x16>

08007cd8 <memmove>:
 8007cd8:	4288      	cmp	r0, r1
 8007cda:	b510      	push	{r4, lr}
 8007cdc:	eb01 0302 	add.w	r3, r1, r2
 8007ce0:	d803      	bhi.n	8007cea <memmove+0x12>
 8007ce2:	1e42      	subs	r2, r0, #1
 8007ce4:	4299      	cmp	r1, r3
 8007ce6:	d10c      	bne.n	8007d02 <memmove+0x2a>
 8007ce8:	bd10      	pop	{r4, pc}
 8007cea:	4298      	cmp	r0, r3
 8007cec:	d2f9      	bcs.n	8007ce2 <memmove+0xa>
 8007cee:	1881      	adds	r1, r0, r2
 8007cf0:	1ad2      	subs	r2, r2, r3
 8007cf2:	42d3      	cmn	r3, r2
 8007cf4:	d100      	bne.n	8007cf8 <memmove+0x20>
 8007cf6:	bd10      	pop	{r4, pc}
 8007cf8:	f813 4d01 	ldrb.w	r4, [r3, #-1]!
 8007cfc:	f801 4d01 	strb.w	r4, [r1, #-1]!
 8007d00:	e7f7      	b.n	8007cf2 <memmove+0x1a>
 8007d02:	f811 4b01 	ldrb.w	r4, [r1], #1
 8007d06:	f802 4f01 	strb.w	r4, [r2, #1]!
 8007d0a:	e7eb      	b.n	8007ce4 <memmove+0xc>

08007d0c <_realloc_r>:
 8007d0c:	e92d 4ff7 	stmdb	sp!, {r0, r1, r2, r4, r5, r6, r7, r8, r9, sl, fp, lr}
 8007d10:	4682      	mov	sl, r0
 8007d12:	460c      	mov	r4, r1
 8007d14:	b929      	cbnz	r1, 8007d22 <_realloc_r+0x16>
 8007d16:	4611      	mov	r1, r2
 8007d18:	b003      	add	sp, #12
 8007d1a:	e8bd 4ff0 	ldmia.w	sp!, {r4, r5, r6, r7, r8, r9, sl, fp, lr}
 8007d1e:	f7ff b905 	b.w	8006f2c <_malloc_r>
 8007d22:	9201      	str	r2, [sp, #4]
 8007d24:	f7ff fb1c 	bl	8007360 <__malloc_lock>
 8007d28:	9a01      	ldr	r2, [sp, #4]
 8007d2a:	f854 5c04 	ldr.w	r5, [r4, #-4]
 8007d2e:	f102 080b 	add.w	r8, r2, #11
 8007d32:	f1b8 0f16 	cmp.w	r8, #22
 8007d36:	f1a4 0908 	sub.w	r9, r4, #8
 8007d3a:	f025 0603 	bic.w	r6, r5, #3
 8007d3e:	d90a      	bls.n	8007d56 <_realloc_r+0x4a>
 8007d40:	f038 0807 	bics.w	r8, r8, #7
 8007d44:	d509      	bpl.n	8007d5a <_realloc_r+0x4e>
 8007d46:	230c      	movs	r3, #12
 8007d48:	2700      	movs	r7, #0
 8007d4a:	f8ca 3000 	str.w	r3, [sl]
 8007d4e:	4638      	mov	r0, r7
 8007d50:	b003      	add	sp, #12
 8007d52:	e8bd 8ff0 	ldmia.w	sp!, {r4, r5, r6, r7, r8, r9, sl, fp, pc}
 8007d56:	f04f 0810 	mov.w	r8, #16
 8007d5a:	4590      	cmp	r8, r2
 8007d5c:	d3f3      	bcc.n	8007d46 <_realloc_r+0x3a>
 8007d5e:	45b0      	cmp	r8, r6
 8007d60:	f340 8148 	ble.w	8007ff4 <_realloc_r+0x2e8>
 8007d64:	4ba9      	ldr	r3, [pc, #676]	; (800800c <_realloc_r+0x300>)
 8007d66:	eb09 0106 	add.w	r1, r9, r6
 8007d6a:	f8d3 e008 	ldr.w	lr, [r3, #8]
 8007d6e:	469b      	mov	fp, r3
 8007d70:	4571      	cmp	r1, lr
 8007d72:	684b      	ldr	r3, [r1, #4]
 8007d74:	d005      	beq.n	8007d82 <_realloc_r+0x76>
 8007d76:	f023 0001 	bic.w	r0, r3, #1
 8007d7a:	4408      	add	r0, r1
 8007d7c:	6840      	ldr	r0, [r0, #4]
 8007d7e:	07c7      	lsls	r7, r0, #31
 8007d80:	d447      	bmi.n	8007e12 <_realloc_r+0x106>
 8007d82:	f023 0303 	bic.w	r3, r3, #3
 8007d86:	4571      	cmp	r1, lr
 8007d88:	eb06 0703 	add.w	r7, r6, r3
 8007d8c:	d119      	bne.n	8007dc2 <_realloc_r+0xb6>
 8007d8e:	f108 0010 	add.w	r0, r8, #16
 8007d92:	4287      	cmp	r7, r0
 8007d94:	db3f      	blt.n	8007e16 <_realloc_r+0x10a>
 8007d96:	eba7 0708 	sub.w	r7, r7, r8
 8007d9a:	eb09 0308 	add.w	r3, r9, r8
 8007d9e:	f047 0701 	orr.w	r7, r7, #1
 8007da2:	f8cb 3008 	str.w	r3, [fp, #8]
 8007da6:	605f      	str	r7, [r3, #4]
 8007da8:	f854 3c04 	ldr.w	r3, [r4, #-4]
 8007dac:	4650      	mov	r0, sl
 8007dae:	f003 0301 	and.w	r3, r3, #1
 8007db2:	ea43 0308 	orr.w	r3, r3, r8
 8007db6:	f844 3c04 	str.w	r3, [r4, #-4]
 8007dba:	f7ff fad7 	bl	800736c <__malloc_unlock>
 8007dbe:	4627      	mov	r7, r4
 8007dc0:	e7c5      	b.n	8007d4e <_realloc_r+0x42>
 8007dc2:	45b8      	cmp	r8, r7
 8007dc4:	dc27      	bgt.n	8007e16 <_realloc_r+0x10a>
 8007dc6:	68cb      	ldr	r3, [r1, #12]
 8007dc8:	688a      	ldr	r2, [r1, #8]
 8007dca:	60d3      	str	r3, [r2, #12]
 8007dcc:	609a      	str	r2, [r3, #8]
 8007dce:	eba7 0008 	sub.w	r0, r7, r8
 8007dd2:	280f      	cmp	r0, #15
 8007dd4:	f8d9 3004 	ldr.w	r3, [r9, #4]
 8007dd8:	eb09 0207 	add.w	r2, r9, r7
 8007ddc:	f240 810c 	bls.w	8007ff8 <_realloc_r+0x2ec>
 8007de0:	f003 0301 	and.w	r3, r3, #1
 8007de4:	eb09 0108 	add.w	r1, r9, r8
 8007de8:	ea43 0308 	orr.w	r3, r3, r8
 8007dec:	f040 0001 	orr.w	r0, r0, #1
 8007df0:	f8c9 3004 	str.w	r3, [r9, #4]
 8007df4:	6048      	str	r0, [r1, #4]
 8007df6:	6853      	ldr	r3, [r2, #4]
 8007df8:	3108      	adds	r1, #8
 8007dfa:	f043 0301 	orr.w	r3, r3, #1
 8007dfe:	6053      	str	r3, [r2, #4]
 8007e00:	4650      	mov	r0, sl
 8007e02:	f7ff fe99 	bl	8007b38 <_free_r>
 8007e06:	4650      	mov	r0, sl
 8007e08:	f7ff fab0 	bl	800736c <__malloc_unlock>
 8007e0c:	f109 0708 	add.w	r7, r9, #8
 8007e10:	e79d      	b.n	8007d4e <_realloc_r+0x42>
 8007e12:	2300      	movs	r3, #0
 8007e14:	4619      	mov	r1, r3
 8007e16:	07e8      	lsls	r0, r5, #31
 8007e18:	f100 8085 	bmi.w	8007f26 <_realloc_r+0x21a>
 8007e1c:	f854 5c08 	ldr.w	r5, [r4, #-8]
 8007e20:	eba9 0505 	sub.w	r5, r9, r5
 8007e24:	6868      	ldr	r0, [r5, #4]
 8007e26:	f020 0003 	bic.w	r0, r0, #3
 8007e2a:	4430      	add	r0, r6
 8007e2c:	2900      	cmp	r1, #0
 8007e2e:	d077      	beq.n	8007f20 <_realloc_r+0x214>
 8007e30:	4571      	cmp	r1, lr
 8007e32:	d151      	bne.n	8007ed8 <_realloc_r+0x1cc>
 8007e34:	4403      	add	r3, r0
 8007e36:	f108 0110 	add.w	r1, r8, #16
 8007e3a:	428b      	cmp	r3, r1
 8007e3c:	db70      	blt.n	8007f20 <_realloc_r+0x214>
 8007e3e:	462f      	mov	r7, r5
 8007e40:	68ea      	ldr	r2, [r5, #12]
 8007e42:	f857 1f08 	ldr.w	r1, [r7, #8]!
 8007e46:	60ca      	str	r2, [r1, #12]
 8007e48:	6091      	str	r1, [r2, #8]
 8007e4a:	1f32      	subs	r2, r6, #4
 8007e4c:	2a24      	cmp	r2, #36	; 0x24
 8007e4e:	d83c      	bhi.n	8007eca <_realloc_r+0x1be>
 8007e50:	2a13      	cmp	r2, #19
 8007e52:	d937      	bls.n	8007ec4 <_realloc_r+0x1b8>
 8007e54:	6821      	ldr	r1, [r4, #0]
 8007e56:	2a1b      	cmp	r2, #27
 8007e58:	60a9      	str	r1, [r5, #8]
 8007e5a:	6861      	ldr	r1, [r4, #4]
 8007e5c:	60e9      	str	r1, [r5, #12]
 8007e5e:	d81c      	bhi.n	8007e9a <_realloc_r+0x18e>
 8007e60:	f105 0210 	add.w	r2, r5, #16
 8007e64:	f104 0108 	add.w	r1, r4, #8
 8007e68:	6808      	ldr	r0, [r1, #0]
 8007e6a:	6010      	str	r0, [r2, #0]
 8007e6c:	6848      	ldr	r0, [r1, #4]
 8007e6e:	6050      	str	r0, [r2, #4]
 8007e70:	6889      	ldr	r1, [r1, #8]
 8007e72:	6091      	str	r1, [r2, #8]
 8007e74:	eba3 0308 	sub.w	r3, r3, r8
 8007e78:	eb05 0208 	add.w	r2, r5, r8
 8007e7c:	f043 0301 	orr.w	r3, r3, #1
 8007e80:	f8cb 2008 	str.w	r2, [fp, #8]
 8007e84:	6053      	str	r3, [r2, #4]
 8007e86:	686b      	ldr	r3, [r5, #4]
 8007e88:	f003 0301 	and.w	r3, r3, #1
 8007e8c:	ea43 0308 	orr.w	r3, r3, r8
 8007e90:	606b      	str	r3, [r5, #4]
 8007e92:	4650      	mov	r0, sl
 8007e94:	f7ff fa6a 	bl	800736c <__malloc_unlock>
 8007e98:	e759      	b.n	8007d4e <_realloc_r+0x42>
 8007e9a:	68a1      	ldr	r1, [r4, #8]
 8007e9c:	2a24      	cmp	r2, #36	; 0x24
 8007e9e:	6129      	str	r1, [r5, #16]
 8007ea0:	68e1      	ldr	r1, [r4, #12]
 8007ea2:	bf18      	it	ne
 8007ea4:	f105 0218 	addne.w	r2, r5, #24
 8007ea8:	6169      	str	r1, [r5, #20]
 8007eaa:	bf09      	itett	eq
 8007eac:	6922      	ldreq	r2, [r4, #16]
 8007eae:	f104 0110 	addne.w	r1, r4, #16
 8007eb2:	61aa      	streq	r2, [r5, #24]
 8007eb4:	6960      	ldreq	r0, [r4, #20]
 8007eb6:	bf02      	ittt	eq
 8007eb8:	f105 0220 	addeq.w	r2, r5, #32
 8007ebc:	f104 0118 	addeq.w	r1, r4, #24
 8007ec0:	61e8      	streq	r0, [r5, #28]
 8007ec2:	e7d1      	b.n	8007e68 <_realloc_r+0x15c>
 8007ec4:	463a      	mov	r2, r7
 8007ec6:	4621      	mov	r1, r4
 8007ec8:	e7ce      	b.n	8007e68 <_realloc_r+0x15c>
 8007eca:	4621      	mov	r1, r4
 8007ecc:	4638      	mov	r0, r7
 8007ece:	9301      	str	r3, [sp, #4]
 8007ed0:	f7ff ff02 	bl	8007cd8 <memmove>
 8007ed4:	9b01      	ldr	r3, [sp, #4]
 8007ed6:	e7cd      	b.n	8007e74 <_realloc_r+0x168>
 8007ed8:	18c7      	adds	r7, r0, r3
 8007eda:	45b8      	cmp	r8, r7
 8007edc:	dc20      	bgt.n	8007f20 <_realloc_r+0x214>
 8007ede:	68cb      	ldr	r3, [r1, #12]
 8007ee0:	688a      	ldr	r2, [r1, #8]
 8007ee2:	60d3      	str	r3, [r2, #12]
 8007ee4:	609a      	str	r2, [r3, #8]
 8007ee6:	4628      	mov	r0, r5
 8007ee8:	68eb      	ldr	r3, [r5, #12]
 8007eea:	f850 2f08 	ldr.w	r2, [r0, #8]!
 8007eee:	60d3      	str	r3, [r2, #12]
 8007ef0:	609a      	str	r2, [r3, #8]
 8007ef2:	1f32      	subs	r2, r6, #4
 8007ef4:	2a24      	cmp	r2, #36	; 0x24
 8007ef6:	d843      	bhi.n	8007f80 <_realloc_r+0x274>
 8007ef8:	2a13      	cmp	r2, #19
 8007efa:	d93f      	bls.n	8007f7c <_realloc_r+0x270>
 8007efc:	6823      	ldr	r3, [r4, #0]
 8007efe:	2a1b      	cmp	r2, #27
 8007f00:	60ab      	str	r3, [r5, #8]
 8007f02:	6863      	ldr	r3, [r4, #4]
 8007f04:	60eb      	str	r3, [r5, #12]
 8007f06:	d824      	bhi.n	8007f52 <_realloc_r+0x246>
 8007f08:	f105 0010 	add.w	r0, r5, #16
 8007f0c:	f104 0308 	add.w	r3, r4, #8
 8007f10:	681a      	ldr	r2, [r3, #0]
 8007f12:	6002      	str	r2, [r0, #0]
 8007f14:	685a      	ldr	r2, [r3, #4]
 8007f16:	6042      	str	r2, [r0, #4]
 8007f18:	689b      	ldr	r3, [r3, #8]
 8007f1a:	6083      	str	r3, [r0, #8]
 8007f1c:	46a9      	mov	r9, r5
 8007f1e:	e756      	b.n	8007dce <_realloc_r+0xc2>
 8007f20:	4580      	cmp	r8, r0
 8007f22:	4607      	mov	r7, r0
 8007f24:	dddf      	ble.n	8007ee6 <_realloc_r+0x1da>
 8007f26:	4611      	mov	r1, r2
 8007f28:	4650      	mov	r0, sl
 8007f2a:	f7fe ffff 	bl	8006f2c <_malloc_r>
 8007f2e:	4607      	mov	r7, r0
 8007f30:	2800      	cmp	r0, #0
 8007f32:	d0ae      	beq.n	8007e92 <_realloc_r+0x186>
 8007f34:	f854 3c04 	ldr.w	r3, [r4, #-4]
 8007f38:	f1a0 0208 	sub.w	r2, r0, #8
 8007f3c:	f023 0301 	bic.w	r3, r3, #1
 8007f40:	444b      	add	r3, r9
 8007f42:	429a      	cmp	r2, r3
 8007f44:	d120      	bne.n	8007f88 <_realloc_r+0x27c>
 8007f46:	f850 7c04 	ldr.w	r7, [r0, #-4]
 8007f4a:	f027 0703 	bic.w	r7, r7, #3
 8007f4e:	4437      	add	r7, r6
 8007f50:	e73d      	b.n	8007dce <_realloc_r+0xc2>
 8007f52:	68a3      	ldr	r3, [r4, #8]
 8007f54:	2a24      	cmp	r2, #36	; 0x24
 8007f56:	612b      	str	r3, [r5, #16]
 8007f58:	68e3      	ldr	r3, [r4, #12]
 8007f5a:	bf18      	it	ne
 8007f5c:	f105 0018 	addne.w	r0, r5, #24
 8007f60:	616b      	str	r3, [r5, #20]
 8007f62:	bf09      	itett	eq
 8007f64:	6923      	ldreq	r3, [r4, #16]
 8007f66:	f104 0310 	addne.w	r3, r4, #16
 8007f6a:	61ab      	streq	r3, [r5, #24]
 8007f6c:	6962      	ldreq	r2, [r4, #20]
 8007f6e:	bf02      	ittt	eq
 8007f70:	f105 0020 	addeq.w	r0, r5, #32
 8007f74:	f104 0318 	addeq.w	r3, r4, #24
 8007f78:	61ea      	streq	r2, [r5, #28]
 8007f7a:	e7c9      	b.n	8007f10 <_realloc_r+0x204>
 8007f7c:	4623      	mov	r3, r4
 8007f7e:	e7c7      	b.n	8007f10 <_realloc_r+0x204>
 8007f80:	4621      	mov	r1, r4
 8007f82:	f7ff fea9 	bl	8007cd8 <memmove>
 8007f86:	e7c9      	b.n	8007f1c <_realloc_r+0x210>
 8007f88:	1f32      	subs	r2, r6, #4
 8007f8a:	2a24      	cmp	r2, #36	; 0x24
 8007f8c:	d82e      	bhi.n	8007fec <_realloc_r+0x2e0>
 8007f8e:	2a13      	cmp	r2, #19
 8007f90:	d929      	bls.n	8007fe6 <_realloc_r+0x2da>
 8007f92:	6823      	ldr	r3, [r4, #0]
 8007f94:	2a1b      	cmp	r2, #27
 8007f96:	6003      	str	r3, [r0, #0]
 8007f98:	6863      	ldr	r3, [r4, #4]
 8007f9a:	6043      	str	r3, [r0, #4]
 8007f9c:	d80e      	bhi.n	8007fbc <_realloc_r+0x2b0>
 8007f9e:	f100 0308 	add.w	r3, r0, #8
 8007fa2:	f104 0208 	add.w	r2, r4, #8
 8007fa6:	6811      	ldr	r1, [r2, #0]
 8007fa8:	6019      	str	r1, [r3, #0]
 8007faa:	6851      	ldr	r1, [r2, #4]
 8007fac:	6059      	str	r1, [r3, #4]
 8007fae:	6892      	ldr	r2, [r2, #8]
 8007fb0:	609a      	str	r2, [r3, #8]
 8007fb2:	4621      	mov	r1, r4
 8007fb4:	4650      	mov	r0, sl
 8007fb6:	f7ff fdbf 	bl	8007b38 <_free_r>
 8007fba:	e76a      	b.n	8007e92 <_realloc_r+0x186>
 8007fbc:	68a3      	ldr	r3, [r4, #8]
 8007fbe:	2a24      	cmp	r2, #36	; 0x24
 8007fc0:	6083      	str	r3, [r0, #8]
 8007fc2:	68e3      	ldr	r3, [r4, #12]
 8007fc4:	bf18      	it	ne
 8007fc6:	f104 0210 	addne.w	r2, r4, #16
 8007fca:	60c3      	str	r3, [r0, #12]
 8007fcc:	bf09      	itett	eq
 8007fce:	6923      	ldreq	r3, [r4, #16]
 8007fd0:	f100 0310 	addne.w	r3, r0, #16
 8007fd4:	6103      	streq	r3, [r0, #16]
 8007fd6:	6961      	ldreq	r1, [r4, #20]
 8007fd8:	bf02      	ittt	eq
 8007fda:	f100 0318 	addeq.w	r3, r0, #24
 8007fde:	f104 0218 	addeq.w	r2, r4, #24
 8007fe2:	6141      	streq	r1, [r0, #20]
 8007fe4:	e7df      	b.n	8007fa6 <_realloc_r+0x29a>
 8007fe6:	4603      	mov	r3, r0
 8007fe8:	4622      	mov	r2, r4
 8007fea:	e7dc      	b.n	8007fa6 <_realloc_r+0x29a>
 8007fec:	4621      	mov	r1, r4
 8007fee:	f7ff fe73 	bl	8007cd8 <memmove>
 8007ff2:	e7de      	b.n	8007fb2 <_realloc_r+0x2a6>
 8007ff4:	4637      	mov	r7, r6
 8007ff6:	e6ea      	b.n	8007dce <_realloc_r+0xc2>
 8007ff8:	f003 0301 	and.w	r3, r3, #1
 8007ffc:	431f      	orrs	r7, r3
 8007ffe:	f8c9 7004 	str.w	r7, [r9, #4]
 8008002:	6853      	ldr	r3, [r2, #4]
 8008004:	f043 0301 	orr.w	r3, r3, #1
 8008008:	6053      	str	r3, [r2, #4]
 800800a:	e6fc      	b.n	8007e06 <_realloc_r+0xfa>
 800800c:	200001b0 	.word	0x200001b0

08008010 <__ascii_wctomb>:
 8008010:	b149      	cbz	r1, 8008026 <__ascii_wctomb+0x16>
 8008012:	2aff      	cmp	r2, #255	; 0xff
 8008014:	bf8b      	itete	hi
 8008016:	238a      	movhi	r3, #138	; 0x8a
 8008018:	700a      	strbls	r2, [r1, #0]
 800801a:	6003      	strhi	r3, [r0, #0]
 800801c:	2001      	movls	r0, #1
 800801e:	bf88      	it	hi
 8008020:	f04f 30ff 	movhi.w	r0, #4294967295
 8008024:	4770      	bx	lr
 8008026:	4608      	mov	r0, r1
 8008028:	4770      	bx	lr
	...

0800802c <_sbrk>:
 800802c:	4b04      	ldr	r3, [pc, #16]	; (8008040 <_sbrk+0x14>)
 800802e:	4602      	mov	r2, r0
 8008030:	6819      	ldr	r1, [r3, #0]
 8008032:	b909      	cbnz	r1, 8008038 <_sbrk+0xc>
 8008034:	4903      	ldr	r1, [pc, #12]	; (8008044 <_sbrk+0x18>)
 8008036:	6019      	str	r1, [r3, #0]
 8008038:	6818      	ldr	r0, [r3, #0]
 800803a:	4402      	add	r2, r0
 800803c:	601a      	str	r2, [r3, #0]
 800803e:	4770      	bx	lr
 8008040:	200044f8 	.word	0x200044f8
 8008044:	20004670 	.word	0x20004670

08008048 <_init>:
 8008048:	b5f8      	push	{r3, r4, r5, r6, r7, lr}
 800804a:	bf00      	nop
 800804c:	bcf8      	pop	{r3, r4, r5, r6, r7}
 800804e:	bc08      	pop	{r3}
 8008050:	469e      	mov	lr, r3
 8008052:	4770      	bx	lr

08008054 <_fini>:
 8008054:	b5f8      	push	{r3, r4, r5, r6, r7, lr}
 8008056:	bf00      	nop
 8008058:	bcf8      	pop	{r3, r4, r5, r6, r7}
 800805a:	bc08      	pop	{r3}
 800805c:	469e      	mov	lr, r3
 800805e:	4770      	bx	lr
